
tnt.elf:     file format elf32-littlearm


Disassembly of section .program_ptr:

00000000 <prog_ptr>:
   0:	00000000 	andeq	r0, r0, r0

Disassembly of section .init_fun:

00000004 <init>:
   4:	4b36      	ldr	r3, [pc, #216]	; (e0 <init+0xdc>)
   6:	b570      	push	{r4, r5, r6, lr}
   8:	447b      	add	r3, pc
   a:	4d31      	ldr	r5, [pc, #196]	; (d0 <init+0xcc>)
   c:	681b      	ldr	r3, [r3, #0]
   e:	f8d5 3354 	ldr.w	r3, [r5, #852]	; 0x354
  12:	4606      	mov	r6, r0
  14:	4798      	blx	r3
  16:	b930      	cbnz	r0, 26 <init+0x22>
  18:	4832      	ldr	r0, [pc, #200]	; (e4 <init+0xe0>)
  1a:	f8d5 10b4 	ldr.w	r1, [r5, #180]	; 0xb4
  1e:	4b2d      	ldr	r3, [pc, #180]	; (d4 <init+0xd0>)
  20:	2200      	movs	r2, #0
  22:	4478      	add	r0, pc
  24:	4788      	blx	r1
  26:	f8d5 30b8 	ldr.w	r3, [r5, #184]	; 0xb8
  2a:	f640 0038 	movw	r0, #2104	; 0x838
  2e:	4798      	blx	r3
  30:	f640 0238 	movw	r2, #2104	; 0x838
  34:	4604      	mov	r4, r0
  36:	2100      	movs	r1, #0
  38:	f007 f99c 	bl	7374 <memset>
  3c:	4620      	mov	r0, r4
  3e:	f003 fa93 	bl	3568 <read_cfg_from_eeprom>
  42:	4b29      	ldr	r3, [pc, #164]	; (e8 <init+0xe4>)
  44:	4a29      	ldr	r2, [pc, #164]	; (ec <init+0xe8>)
  46:	492a      	ldr	r1, [pc, #168]	; (f0 <init+0xec>)
  48:	482a      	ldr	r0, [pc, #168]	; (f4 <init+0xf0>)
  4a:	447b      	add	r3, pc
  4c:	e9c6 3400 	strd	r3, r4, [r6]
  50:	447a      	add	r2, pc
  52:	f8d5 32d8 	ldr.w	r3, [r5, #728]	; 0x2d8
  56:	4479      	add	r1, pc
  58:	4478      	add	r0, pc
  5a:	4798      	blx	r3
  5c:	4620      	mov	r0, r4
  5e:	f003 fd7d 	bl	3b5c <configure>
  62:	f894 30fc 	ldrb.w	r3, [r4, #252]	; 0xfc
  66:	b91b      	cbnz	r3, 70 <init+0x6c>
  68:	f894 30c2 	ldrb.w	r3, [r4, #194]	; 0xc2
  6c:	2b02      	cmp	r3, #2
  6e:	d001      	beq.n	74 <init+0x70>
  70:	f003 fb6e 	bl	3750 <buzzer_init>
  74:	f8d5 3324 	ldr.w	r3, [r5, #804]	; 0x324
  78:	f504 70b4 	add.w	r0, r4, #360	; 0x168
  7c:	4798      	blx	r3
  7e:	4b16      	ldr	r3, [pc, #88]	; (d8 <init+0xd4>)
  80:	481d      	ldr	r0, [pc, #116]	; (f8 <init+0xf4>)
  82:	f8c4 318c 	str.w	r3, [r4, #396]	; 0x18c
  86:	4b15      	ldr	r3, [pc, #84]	; (dc <init+0xd8>)
  88:	f8c4 3190 	str.w	r3, [r4, #400]	; 0x190
  8c:	4478      	add	r0, pc
  8e:	f8d5 3320 	ldr.w	r3, [r5, #800]	; 0x320
  92:	4798      	blx	r3
  94:	4a19      	ldr	r2, [pc, #100]	; (fc <init+0xf8>)
  96:	481a      	ldr	r0, [pc, #104]	; (100 <init+0xfc>)
  98:	f8d5 60c0 	ldr.w	r6, [r5, #192]	; 0xc0
  9c:	447a      	add	r2, pc
  9e:	4623      	mov	r3, r4
  a0:	f44f 6100 	mov.w	r1, #2048	; 0x800
  a4:	4478      	add	r0, pc
  a6:	47b0      	blx	r6
  a8:	6020      	str	r0, [r4, #0]
  aa:	4816      	ldr	r0, [pc, #88]	; (104 <init+0x100>)
  ac:	f8d5 3254 	ldr.w	r3, [r5, #596]	; 0x254
  b0:	4478      	add	r0, pc
  b2:	4798      	blx	r3
  b4:	4914      	ldr	r1, [pc, #80]	; (108 <init+0x104>)
  b6:	4815      	ldr	r0, [pc, #84]	; (10c <init+0x108>)
  b8:	682b      	ldr	r3, [r5, #0]
  ba:	4479      	add	r1, pc
  bc:	4478      	add	r0, pc
  be:	4798      	blx	r3
  c0:	4913      	ldr	r1, [pc, #76]	; (110 <init+0x10c>)
  c2:	4814      	ldr	r0, [pc, #80]	; (114 <init+0x110>)
  c4:	682b      	ldr	r3, [r5, #0]
  c6:	4479      	add	r1, pc
  c8:	4478      	add	r0, pc
  ca:	4798      	blx	r3
  cc:	2001      	movs	r0, #1
  ce:	bd70      	pop	{r4, r5, r6, pc}
  d0:	1000f800 	andne	pc, r0, r0, lsl #16
  d4:	3ff00000 	svccc	0x00f00000	; IMB
  d8:	3dcccccd 	stclcc	12, cr12, [ip, #820]	; 0x334
  dc:	3e4ccccd 	cdpcc	12, 4, cr12, cr12, cr13, {6}
  e0:	fffffff4 			; <UNDEFINED> instruction: 0xfffffff4
  e4:	00002eba 			; <UNDEFINED> instruction: 0x00002eba
  e8:	000034cf 	andeq	r3, r0, pc, asr #9
  ec:	000034a5 	andeq	r3, r0, r5, lsr #9
  f0:	00003d5f 	andeq	r3, r0, pc, asr sp
  f4:	000035e5 	andeq	r3, r0, r5, ror #11
  f8:	000033e5 	andeq	r3, r0, r5, ror #7
  fc:	00002e5b 	andeq	r2, r0, fp, asr lr
 100:	00003d85 	andeq	r3, r0, r5, lsl #27
 104:	00003789 	andeq	r3, r0, r9, lsl #15
 108:	000035d7 	ldrdeq	r3, [r0], -r7
 10c:	00002e46 	andeq	r2, r0, r6, asr #28
 110:	000033eb 	andeq	r3, r0, fp, ror #7
 114:	00002e46 	andeq	r2, r0, r6, asr #28

Disassembly of section .data.data_tnt_config_:

00000118 <data_tnt_config_>:
     118:	591c0200 	ldmdbpl	ip, {r9}
     11c:	5dedda78 			; <UNDEFINED> instruction: 0x5dedda78
     120:	38db72eb 	ldmcc	fp, {r0, r1, r3, r5, r6, r7, r9, ip, sp, lr}^
     124:	4f3ffe96 	svcmi	0x003ffe96
     128:	77557481 	ldrbvc	r7, [r5, -r1, lsl #9]
     12c:	aeb63ddb 	mrcge	13, 5, r3, cr6, cr11, {6}
     130:	71da4f76 	bicsvc	r4, sl, r6, ror pc
     134:	72cb25b2 	sbcvc	r2, fp, #746586112	; 0x2c800000
     138:	897c8aac 	ldmdbhi	ip!, {r2, r3, r5, r7, r9, fp, pc}^
     13c:	fe953b24 			; <UNDEFINED> instruction: 0xfe953b24
     140:	484482a3 	stmdami	r4, {r0, r1, r5, r7, r9, pc}^
     144:	d82298e2 	stmdale	r2!, {r1, r5, r6, r7, fp, ip, pc}
     148:	b65158bc 			; <UNDEFINED> instruction: 0xb65158bc
     14c:	beef7f76 	mcrlt	15, 7, r7, cr15, cr6, {3}
     150:	3cc33ccd 	stclcc	12, cr3, [r3], {205}	; 0xcd
     154:	9ec93eca 	cdpls	14, 12, cr3, cr9, cr10, {6}
     158:	75149003 	ldrvc	r9, [r4, #-3]
     15c:	92254521 	eorls	r4, r5, #138412032	; 0x8400000
     160:	7aa60975 	bvc	fe98273c <memset+0xfe97b3c8>
     164:	04122dba 	ldreq	r2, [r2], #-3514	; 0xfffff246
     168:	fbe0f241 	blx	ff83ca76 <memset+0xff835702>
     16c:	1c1c1c3e 	ldcne	12, cr1, [ip], {62}	; 0x3e
     170:	97c7ff9c 	bfils	pc, ip, (invalid: 31:7)	; <UNPREDICTABLE>
     174:	999e4181 	ldmibls	lr, {r0, r7, r8, lr}
     178:	7cdce8ed 	ldclvc	8, cr14, [ip], {237}	; 0xed
     17c:	933e53fb 	teqls	lr, #-335544317	; 0xec000003
     180:	b33089fb 	teqlt	r0, #4112384	; 0x3ec000
     184:	ecdd35c3 	cfldr64	mvdx3, [sp], {195}	; 0xc3
     188:	a1e9fdbd 	strhge	pc, [r9, #221]!	; 0xdd	; <UNPREDICTABLE>
     18c:	fafc7579 	blx	fff1d778 <memset+0xfff16404>
     190:	f778ffa7 			; <UNDEFINED> instruction: 0xf778ffa7
     194:	3732f3b7 			; <UNDEFINED> instruction: 0x3732f3b7
     198:	9eef7abb 			; <UNDEFINED> instruction: 0x9eef7abb
     19c:	bce074da 	cfstrdlt	mvd7, [r0], #872	; 0x368
     1a0:	ff811bfb 			; <UNDEFINED> instruction: 0xff811bfb
     1a4:	887f479d 	ldmdahi	pc!, {r0, r2, r3, r4, r7, r8, r9, sl, lr}^	; <UNPREDICTABLE>
     1a8:	a6511d03 	ldrbge	r1, [r1], -r3, lsl #26
     1ac:	1b01d265 	blne	74b48 <memset+0x6d7d4>
     1b0:	0c67151f 	cfstr64eq	mvdx1, [r7], #-124	; 0xffffff84
     1b4:	f16ef66e 			; <UNDEFINED> instruction: 0xf16ef66e
     1b8:	764dc9b0 			; <UNDEFINED> instruction: 0x764dc9b0
     1bc:	4e7f0d9e 	mrcmi	13, 3, r0, cr15, cr14, {4}
     1c0:	16477296 			; <UNDEFINED> instruction: 0x16477296
     1c4:	cf3c577b 	svcgt	0x003c577b
     1c8:	9d4eff8a 	stclls	15, cr15, [lr, #-552]	; 0xfffffdd8
     1cc:	0ce9a9b2 			; <UNDEFINED> instruction: 0x0ce9a9b2
     1d0:	6da5d774 	stcvs	7, cr13, [r5, #464]!	; 0x1d0
     1d4:	41cbbd83 	bicmi	fp, fp, r3, lsl #27
     1d8:	93038999 	movwls	r8, #14745	; 0x3999
     1dc:	74e63585 	strbtvc	r3, [r6], #1413	; 0x585
     1e0:	e172dd6c 	cmn	r2, ip, ror #26
     1e4:	62fdde89 	rscsvs	sp, sp, #2192	; 0x890
     1e8:	5d5e6fb8 	ldclpl	15, cr6, [lr, #-736]	; 0xfffffd20
     1ec:	9f9b95de 	svcls	0x009b95de
     1f0:	bae42bef 	blt	ff90b1b4 <memset+0xff903e40>
     1f4:	f7235379 			; <UNDEFINED> instruction: 0xf7235379
     1f8:	6ab5170f 	bvs	fed45e3c <memset+0xfed3eac8>
     1fc:	97f2fc99 			; <UNDEFINED> instruction: 0x97f2fc99
     200:	c737ddc7 	ldrgt	sp, [r7, -r7, asr #27]!
     204:	62a7ecd9 	adcvs	lr, r7, #55552	; 0xd900
     208:	6cbd9b39 	fldmiaxvs	sp!, {d9-d36}	;@ Deprecated
     20c:	27b3ca5e 	sbfxcs	ip, lr, #20, #20
     210:	5b365c99 	blpl	d9747c <memset+0xd90108>
     214:	fd6795b9 	stc2l	5, cr9, [r7, #-740]!	; 0xfffffd1c
     218:	b5d77d42 	ldrblt	r7, [r7, #3394]	; 0xd42
     21c:	e1d9b2ce 	bics	fp, r9, lr, asr #5
     220:	16199870 			; <UNDEFINED> instruction: 0x16199870
     224:	65eedc33 	strbvs	sp, [lr, #3123]!	; 0xc33
     228:	bd6cf59b 	cfstr64lt	mvdx15, [ip, #-620]!	; 0xfffffd94
     22c:	bbee3e52 	bllt	ffb8fb7c <memset+0xffb88808>
     230:	9724e303 	strls	lr, [r4, -r3, lsl #6]!
     234:	ef5b5c75 	svc	0x005b5c75
     238:	d5cd19b8 	strble	r1, [sp, #2488]	; 0x9b8
     23c:	7a5ff964 	bvc	17fe7d4 <memset+0x17f7460>
     240:	e1bf9bee 			; <UNDEFINED> instruction: 0xe1bf9bee
     244:	fe3cf18d 	cdp2	1, 3, cr15, cr12, cr13, {4}
     248:	aa337f10 	bge	cdfe90 <memset+0xcd8b1c>
     24c:	980f7f05 	stmdals	pc, {r0, r2, r8, r9, sl, fp, ip, sp, lr}	; <UNPREDICTABLE>
     250:	a6be094b 	ldrtge	r0, [lr], fp, asr #18
     254:	bf82f2b7 	svclt	0x0082f2b7
     258:	cbbefae0 	blgt	fefbede0 <memset+0xfefb7a6c>
     25c:	6dfeb8be 	ldclvs	8, cr11, [lr, #760]!	; 0x2f8
     260:	ccba45e1 	cfldr32gt	mvfx4, [sl], #900	; 0x384
     264:	79b3fd74 	ldmibvc	r3!, {r2, r4, r5, r6, r8, sl, fp, ip, sp, lr, pc}
     268:	b83668ff 	ldmdalt	r6!, {r0, r1, r2, r3, r4, r5, r6, r7, fp, sp, lr}
     26c:	064771dc 			; <UNDEFINED> instruction: 0x064771dc
     270:	fc96f823 	vcadd.f32	d15, d6, d19, #90
     274:	b6697812 			; <UNDEFINED> instruction: 0xb6697812
     278:	db9138e3 	blle	fe44e60c <memset+0xfe447298>
     27c:	d0c4475b 	sbcle	r4, r4, fp, asr r7
     280:	61927fc9 	orrsvs	r7, r2, r9, asr #31
     284:	b1d9775f 	bicslt	r7, r9, pc, asr r7
     288:	3b0ed163 	blcc	3b481c <memset+0x3ad4a8>
     28c:	8ecd9623 	cdphi	6, 12, cr9, cr13, cr3, {1}
     290:	deb53687 	cdple	6, 11, cr3, cr5, cr7, {4}
     294:	ed12ff90 	ldc	15, cr15, [r2, #-576]	; 0xfffffdc0
     298:	829a8acb 	addshi	r8, sl, #831488	; 0xcb000
     29c:	26d1b36a 	ldrbcs	fp, [r1], sl, ror #6
     2a0:	2236b9b6 	eorscs	fp, r6, #2981888	; 0x2d8000
     2a4:	0f7fb4e2 	svceq	0x007fb4e2
     2a8:	1d4685d2 	cfstr64ne	mvdx8, [r6, #-840]	; 0xfffffcb8
     2ac:	3740e977 	smlsldxcc	lr, r0, r7, r9
     2b0:	d6bf6746 	ldrtle	r6, [pc], r6, asr #14
     2b4:	fcbb9b79 	ldc2	11, cr9, [fp], #484	; 0x1e4	; <UNPREDICTABLE>
     2b8:	3fc437d7 	svccc	0x00c437d7
     2bc:	af7a643e 	svcge	0x007a643e
     2c0:	e49d9eef 	ldr	r9, [sp], #3823	; 0xeef
     2c4:	7101fe72 	tstvc	r1, r2, ror lr	; <UNPREDICTABLE>
     2c8:	edc999e9 	vstr.16	s19, [r9, #466]	; 0x1d2
     2cc:	4cde3501 	cfldr64mi	mvdx3, [lr], {1}
     2d0:	a26b16bd 	rsbge	r1, fp, #198180864	; 0xbd00000
     2d4:	dcbfe3e2 	ldcle	3, cr14, [pc], #904	; 664 <data_tnt_config_+0x54c>
     2d8:	a94c0b63 	stmdbge	ip, {r0, r1, r5, r6, r8, r9, fp}^
     2dc:	1feb0d07 	svcne	0x00eb0d07
     2e0:	b19d53e3 	orrslt	r5, sp, r3, ror #7
     2e4:	de8ee581 	cdple	5, 8, cr14, cr14, cr1, {4}
     2e8:	7bb50190 	blvc	fed40930 <memset+0xfed395bc>
     2ec:	72ec79ba 	rscvc	r7, ip, #3047424	; 0x2e8000
     2f0:	7d672ceb 	stclvc	12, cr2, [r7, #-940]!	; 0xfffffc54
     2f4:	9dc37f09 	stclls	15, cr7, [r3, #36]	; 0x24
     2f8:	38983e5d 	ldmcc	r8, {r0, r2, r3, r4, r6, r9, sl, fp, ip, sp}
     2fc:	3baeb064 	blcc	febac494 <memset+0xfeba5120>
     300:	cd16c071 	ldcgt	0, cr12, [r6, #-452]	; 0xfffffe3c
     304:	feb04711 	mrc2	7, 5, r4, cr0, cr1, {0}
     308:	4f3bc1b6 	svcmi	0x003bc1b6
     30c:	c1a9bac7 			; <UNDEFINED> instruction: 0xc1a9bac7
     310:	26833d5b 	pkhtbcs	r3, r3, fp, asr #26
     314:	7f0b0be2 	svcvc	0x000b0be2
     318:	0371a142 	cmneq	r1, #-2147483632	; 0x80000010
     31c:	e3dbb3c5 	bics	fp, fp, #335544323	; 0x14000003
     320:	c2b59d77 	adcsgt	r9, r5, #7616	; 0x1dc0
     324:	8c95f0bf 	ldchi	0, cr15, [r5], {191}	; 0xbf
     328:	69ff95df 	ldmibvs	pc!, {r0, r1, r2, r3, r4, r6, r7, r8, sl, ip, pc}^	; <UNPREDICTABLE>
     32c:	6b51b3cf 	blvs	146d270 <memset+0x1465efc>
     330:	cec3b49b 	mcrgt	4, 6, fp, cr3, cr11, {4}
     334:	26eaeb25 	strbtcs	lr, [sl], r5, lsr #22
     338:	0d9e777b 	ldceq	7, cr7, [lr, #492]	; 0x1ec
     33c:	ff3c9afe 			; <UNDEFINED> instruction: 0xff3c9afe
     340:	98068d4c 	stmdals	r6, {r2, r3, r6, r8, sl, fp, pc}
     344:	e77bd98e 	ldrb	sp, [fp, -lr, lsl #19]!
     348:	f64b6e9a 			; <UNDEFINED> instruction: 0xf64b6e9a
     34c:	f8ecf39e 			; <UNDEFINED> instruction: 0xf8ecf39e
     350:	01e964e8 	mvneq	r6, r8, ror #9
     354:	266352fd 			; <UNDEFINED> instruction: 0x266352fd
     358:	d7ffbeda 	ubfxle	fp, sl, #29, #32
     35c:	e765e3b8 			; <UNDEFINED> instruction: 0xe765e3b8
     360:	fef3bcf6 	mrc2	12, 7, fp, cr3, cr6, {7}
     364:	362fb130 			; <UNDEFINED> instruction: 0x362fb130
     368:	dca49b6f 	fstmiaxle	r4!, {d9-d63}	;@ Deprecated
     36c:	c77725ed 	ldrbgt	r2, [r7, -sp, ror #11]!
     370:	3f8eea9c 	svccc	0x008eea9c
     374:	48dc7756 	ldmmi	ip, {r1, r2, r4, r6, r8, r9, sl, ip, sp, lr}^
     378:	75f66baf 	ldrbvc	r6, [r6, #2991]!	; 0xbaf
     37c:	6e3fc087 	cdpvs	0, 3, cr12, cr15, cr7, {4}
     380:	4ac7919f 	bmi	ff1e4a04 <memset+0xff1dd690>
     384:	bc6a4ca3 	stcllt	12, cr4, [sl], #-652	; 0xfffffd74
     388:	08f61507 	ldmeq	r6!, {r0, r1, r2, r8, sl, ip}^
     38c:	e6523535 			; <UNDEFINED> instruction: 0xe6523535
     390:	ea678183 	b	19e09a4 <memset+0x19d9630>
     394:	44168a1d 	ldrmi	r8, [r6], #-2589	; 0xfffff5e3
     398:	19e6b86e 	stmibne	r6!, {r1, r2, r3, r5, r6, fp, ip, sp, pc}^
     39c:	bec6b32c 	cdplt	3, 12, cr11, cr6, cr12, {1}
     3a0:	e99d9e79 	ldmib	sp, {r0, r3, r4, r5, r6, r9, sl, fp, ip, pc}
     3a4:	564fe738 			; <UNDEFINED> instruction: 0x564fe738
     3a8:	d51bae2e 	ldrle	sl, [fp, #-3630]	; 0xfffff1d2
     3ac:	483333d8 	ldmdami	r3!, {r3, r4, r6, r7, r8, r9, ip, sp}
     3b0:	6eebdc8e 	cdpvs	12, 14, cr13, cr11, cr14, {4}
     3b4:	583e4fa7 	ldmdapl	lr!, {r0, r1, r2, r5, r7, r8, r9, sl, fp, lr}
     3b8:	9f29fdc9 	svcls	0x0029fdc9
     3bc:	55e53fa2 	strbpl	r3, [r5, #4002]!	; 0xfa2
     3c0:	e9fd527f 	ldmib	sp!, {r0, r1, r2, r3, r4, r5, r6, r9, ip, lr}^
     3c4:	5e0c59bb 			; <UNDEFINED> instruction: 0x5e0c59bb
     3c8:	11e7398a 	mvnne	r3, sl, lsl #19
     3cc:	3df947fd 	ldclcc	7, cr4, [r9, #1012]!	; 0x3f4
     3d0:	b1a05417 	lsllt	r5, r7, r4
     3d4:	df45b70e 	svcle	0x0045b70e
     3d8:	541e233a 	ldrpl	r2, [lr], #-826	; 0xfffffcc6
     3dc:	1bd01b66 	blne	ff40717c <memset+0xff3ffe08>
     3e0:	76057522 	strvc	r7, [r5], -r2, lsr #10
     3e4:	14af939d 	strtne	r9, [pc], #925	; 3ec <data_tnt_config_+0x2d4>
     3e8:	c6e49d6a 	strbtgt	r9, [r4], sl, ror #26
     3ec:	d966796d 	stmdble	r6!, {r0, r2, r3, r5, r6, r8, fp, ip, sp, lr}^
     3f0:	710b27ce 	smlabtvc	fp, lr, r7, r2
     3f4:	ae19e064 	cdpge	0, 1, cr14, cr9, cr4, {3}
     3f8:	d33a196e 	teqle	sl, #1802240	; 0x1b8000
     3fc:	da447b48 	ble	111f124 <memset+0x1117db0>
     400:	b11ada9c 			; <UNDEFINED> instruction: 0xb11ada9c
     404:	dd03f9c4 	vstrle.16	s30, [r3, #-392]	; 0xfffffe78	; <UNPREDICTABLE>
     408:	d9eb1a24 	stmible	fp!, {r2, r5, r9, fp, ip}^
     40c:	c487398c 	strgt	r3, [r7], #2444	; 0x98c
     410:	cbb7f0e5 	blgt	fedfc7ac <memset+0xfedf5438>
     414:	313c01ec 	teqcc	ip, ip, ror #3
     418:	0db678e9 	ldceq	8, cr7, [r6, #932]!	; 0x3a4
     41c:	0191c2b5 			; <UNDEFINED> instruction: 0x0191c2b5
     420:	34864ea0 	strcc	r4, [r6], #3744	; 0xea0
     424:	bedc8b01 	vfnmslt.f64	d24, d12, d1
     428:	c4364d0d 	ldrtgt	r4, [r6], #-3341	; 0xfffff2f3
     42c:	358667c9 	strcc	r6, [r6, #1993]	; 0x7c9
     430:	442c026b 	strtmi	r0, [ip], #-619	; 0xfffffd95
     434:	cc3894b5 	cfldrsgt	mvf9, [r8], #-724	; 0xfffffd2c
     438:	784399d6 	stmdavc	r3, {r1, r2, r4, r6, r7, r8, fp, ip, pc}^
     43c:	375c5897 			; <UNDEFINED> instruction: 0x375c5897
     440:	881c875d 	ldmdahi	ip, {r0, r2, r3, r4, r6, r8, r9, sl, pc}
     444:	2b411c9b 	blcs	10476b8 <memset+0x1040344>
     448:	c3888f0e 	orrgt	r8, r8, #14, 30	; 0x38
     44c:	150a7ae1 	strne	r7, [sl, #-2785]	; 0xfffff51f
     450:	132eddea 			; <UNDEFINED> instruction: 0x132eddea
     454:	80e34355 	rschi	r4, r3, r5, asr r3
     458:	a4b83ddd 	ldrtge	r3, [r8], #3549	; 0xddd
     45c:	cda6df03 	stcgt	15, cr13, [r6, #12]!
     460:	5540e788 	strbpl	lr, [r0, #-1928]	; 0xfffff878
     464:	6d224513 	cfstr32vs	mvfx4, [r2, #-76]!	; 0xffffffb4
     468:	dc864e65 	stcle	14, cr4, [r6], {101}	; 0x65
     46c:	b0e6f5fb 	strdlt	pc, [r6], #91	; 0x5b	; <UNPREDICTABLE>
     470:	7a541cce 	bvc	15077b0 <memset+0x150043c>
     474:	c19ecd40 	orrsgt	ip, lr, r0, asr #26
     478:	1f33f8f2 	svcne	0x0033f8f2
     47c:	cfe02cfe 	svcgt	0x00e02cfe
     480:	88b3f842 	ldmhi	r3!, {r1, r6, fp, ip, sp, lr, pc}
     484:	13f08b3f 	mvnsne	r8, #64512	; 0xfc00
     488:	3a1e53d1 	bcc	7953d4 <memset+0x78e060>
     48c:	872743c1 	strhi	r4, [r7, -r1, asr #7]!
     490:	bb0cda84 	bllt	336ea8 <memset+0x32fb34>
     494:	2e3ac99f 			; <UNDEFINED> instruction: 0x2e3ac99f
     498:	bba879dc 	bllt	fea1ec10 <memset+0xfea1789c>
     49c:	1bdd827d 	blne	ff760e98 <memset+0xff759b24>
     4a0:	cfc1395e 	svcgt	0x00c1395e
     4a4:	e92be0ee 	stmdb	fp!, {r1, r2, r3, r5, r6, r7, sp, lr, pc}
     4a8:	240b5582 	strcs	r5, [fp], #-1410	; 0xfffffa7e
     4ac:	499d0f16 	ldmibmi	sp, {r1, r2, r4, r8, r9, sl, fp}
     4b0:	20bbd2fc 	ldrshtcs	sp, [fp], ip
     4b4:	cd487ede 	stclgt	14, cr7, [r8, #-888]	; 0xfffffc88
     4b8:	2fbfba59 	svccs	0x00bfba59
     4bc:	b55edddf 	ldrblt	sp, [lr, #-3551]	; 0xfffff221
     4c0:	3eb5e440 	cdpcc	4, 11, cr14, cr5, cr0, {2}
     4c4:	24e2e7dc 	strbtcs	lr, [r2], #2012	; 0x7dc
     4c8:	9774d328 	ldrbls	sp, [r4, -r8, lsr #6]!
     4cc:	a3ac97db 			; <UNDEFINED> instruction: 0xa3ac97db
     4d0:	97399003 	ldrls	r9, [r9, -r3]!
     4d4:	67f9f3dc 	ubfxvs	pc, ip, #7, #26
     4d8:	9779f1ee 	ldrbls	pc, [r9, -lr, ror #3]!	; <UNPREDICTABLE>
     4dc:	7a343a36 	bvc	d0edbc <memset+0xd07a48>
     4e0:	5b39fc85 	blpl	e7f6fc <memset+0xe78388>
     4e4:	33dce4b0 	bicscc	lr, ip, #176, 8	; 0xb0000000
     4e8:	4e8f03bb 	mcrmi	3, 4, r0, cr15, cr11, {5}
     4ec:	ce2f427b 	mcrgt	2, 1, r4, cr15, cr11, {3}
     4f0:	bad19b1c 	blt	ff467168 <memset+0xff45fdf4>
     4f4:	52725b41 	rsbspl	r5, r2, #66560	; 0x10400
     4f8:	026dcef0 	rsbeq	ip, sp, #240, 28	; 0xf00
     4fc:	38ff5bf4 	ldmcc	pc!, {r2, r4, r5, r6, r7, r8, r9, fp, ip, lr}^	; <UNPREDICTABLE>
     500:	4c7f0a16 			; <UNDEFINED> instruction: 0x4c7f0a16
     504:	7cfa7216 	lfmvc	f7, 2, [sl], #88	; 0x58
     508:	963ba978 			; <UNDEFINED> instruction: 0x963ba978
     50c:	2c584741 	mrrccs	7, 4, r4, r8, cr1
     510:	a0aa73fa 	strdge	r7, [sl], sl	; <UNPREDICTABLE>
     514:	1bf1accb 	blne	ffc6b848 <memset+0xffc644d4>
     518:	519afc88 	orrspl	pc, sl, r8, lsl #25
     51c:	53f1feed 	mvnspl	pc, #3792	; 0xed0
     520:	17e7d621 	strbne	sp, [r7, r1, lsr #12]!
     524:	f62dfa6a 			; <UNDEFINED> instruction: 0xf62dfa6a
     528:	78dc0fdf 	ldmvc	ip, {r0, r1, r2, r3, r4, r6, r7, r8, r9, sl, fp}^
     52c:	bdd4d0ea 	ldcllt	0, cr13, [r4, #936]	; 0x3a8
     530:	ff576ebd 			; <UNDEFINED> instruction: 0xff576ebd
     534:	ffc46a02 			; <UNDEFINED> instruction: 0xffc46a02
     538:	77b6a663 	ldrvc	sl, [r6, r3, ror #12]!
     53c:	443510ff 	ldrtmi	r1, [r5], #-255	; 0xffffff01
     540:	2684ca55 	pkhtbcs	ip, r4, r5, asr #20
     544:	4f928501 	svcmi	0x00928501
     548:	a5792856 	ldrbge	r2, [r9, #-2134]!	; 0xfffff7aa
     54c:	d9429450 	stmdble	r2, {r4, r6, sl, ip, pc}^
     550:	04a2856b 	strteq	r8, [r2], #1387	; 0x56b
     554:	4a28128a 	bmi	a04f84 <memset+0x9fdc10>
     558:	40a4eca0 	adcmi	lr, r4, r0, lsr #25
     55c:	b2812bc9 	addlt	r2, r1, #205824	; 0x32400
     560:	c8528106 	ldmdagt	r2, {r1, r2, r8, pc}^
     564:	e4a15a6d 	strt	r5, [r1], #2669	; 0xa6d
     568:	214a1427 	cmpcs	sl, r7, lsr #8
     56c:	9414a159 	ldrls	sl, [r4], #-345	; 0xfffffea7
     570:	450a5142 	strmi	r5, [sl, #-322]	; 0xfffffebe
     574:	50a51429 	adcpl	r1, r5, r9, lsr #8
     578:	0a514294 	beq	1450fd0 <memset+0x1449c5c>
     57c:	4a14db65 	bmi	537318 <memset+0x52ffa4>
     580:	35942941 	ldrcc	r2, [r4, #2369]	; 0x941
     584:	0b8d9428 	bleq	fe36562c <memset+0xfe35e2b8>
     588:	4084c294 	umullmi	ip, r4, r4, r2
     58c:	940b2629 	strls	r2, [fp], #-1577	; 0xfffff9d7
     590:	4a2812a2 	bmi	a05020 <memset+0x9fdcac>
     594:	a28128a0 	addge	r2, r1, #160, 16	; 0xa00000
     598:	28128a04 	ldmdacs	r2, {r2, r9, fp, pc}
     59c:	9b6ca04a 	blls	1b286cc <memset+0x1b21358>
     5a0:	812a2940 			; <UNDEFINED> instruction: 0x812a2940
     5a4:	a5028fb2 	strge	r8, [r2, #-4018]	; 0xfffff04e
     5a8:	4e502138 	mrcmi	1, 2, r2, cr0, cr8, {1}
     5ac:	89ca0592 	stmibhi	sl, {r1, r4, r7, r8, sl}^
     5b0:	a04a2812 	subge	r2, sl, r2, lsl r8
     5b4:	04a28128 	strteq	r8, [r2], #296	; 0x128
     5b8:	4a28128a 	bmi	a04fe8 <memset+0x9fdc74>
     5bc:	409b6ca0 	addsmi	r6, fp, r0, lsr #25
     5c0:	65025139 	strvs	r5, [r2, #-313]	; 0xfffffec7
     5c4:	444a051f 	strbmi	r0, [sl], #-1311	; 0xfffffae1
     5c8:	c80b9c92 	stmdagt	fp, {r1, r4, r7, sl, fp, ip, pc}
     5cc:	42871d48 	addmi	r1, r7, #72, 26	; 0x1200
     5d0:	4a0a884a 	bmi	2a2700 <memset+0x29b38c>
     5d4:	b2a528a9 	adclt	r2, r5, #11075584	; 0xa90000
     5d8:	5a454a8f 	bpl	115301c <memset+0x114bca8>
     5dc:	3f2bd2b7 	svccc	0x002bd2b7
     5e0:	1d595eb8 	ldclne	14, cr5, [r9, #-736]	; 0xfffffd20
     5e4:	9b57de83 	blls	15f7ff8 <memset+0x15f0c84>
     5e8:	0dddebe5 	vldreq	d30, [sp, #916]	; 0x394
     5ec:	6e9c2894 	mrcvs	8, 4, r2, cr12, cr4, {4}
     5f0:	99734380 	ldmdbls	r3!, {r7, r8, r9, lr}^
     5f4:	5f9a2c74 	svcpl	0x009a2c74
     5f8:	7f928b39 	svcvc	0x00928b39
     5fc:	22296bff 	eorcs	r6, r9, #261120	; 0x3fc00
     600:	c94ea69d 	stmdbgt	lr, {r0, r2, r3, r4, r7, r9, sl, sp, pc}^
     604:	2623a9a5 	strtcs	sl, [r3], -r5, lsr #19
     608:	2e2a9714 	mcrcs	7, 1, r9, cr10, cr4, {0}
     60c:	b8aa5c55 	stmialt	sl!, {r0, r2, r4, r6, sl, fp, ip, lr}
     610:	7a697154 	bvc	1a5cb68 <memset+0x1a557f4>
     614:	2e282d2e 	cdpcs	13, 2, cr2, cr8, cr14, {1}
     618:	e697075d 			; <UNDEFINED> instruction: 0xe697075d
     61c:	0b4b83b6 	bleq	12e14fc <memset+0x12da188>
     620:	7a9a5cd3 	bvc	fe697974 <memset+0xfe690600>
     624:	a9715f72 	ldmdbge	r1!, {r1, r4, r5, r6, r8, r9, sl, fp, ip, lr}^
     628:	a5c552e2 	strbge	r5, [r5, #738]	; 0x2e2
     62c:	97154b8a 	ldrls	r4, [r5, -sl, lsl #23]
     630:	a2d2e7a6 	sbcsge	lr, r2, #43515904	; 0x2980000
     634:	e63dd2e2 	ldrt	sp, [sp], -r2, ror #5
     638:	9734e2d2 			; <UNDEFINED> instruction: 0x9734e2d2
     63c:	56879ea6 	strpl	r9, [r7], r6, lsr #29
     640:	54b8aa5c 	ldrtpl	sl, [r8], #2652	; 0xa5c
     644:	52e2a971 	rscpl	sl, r2, #1851392	; 0x1c4000
     648:	b9e9a5c5 	stmiblt	r9!, {r0, r2, r6, r7, r8, sl, sp, pc}^
     64c:	e97144f4 	ldmdb	r1!, {r2, r4, r5, r6, r7, sl, lr}^
     650:	7469731e 	strbtvc	r7, [r9], #-798	; 0xfffffce2
     654:	fb4074be 	blx	101d956 <memset+0x10165e2>
     658:	9eb51cdc 	mrcls	12, 5, r1, cr5, cr12, {6}
     65c:	bd3a38ac 	ldclt	8, cr3, [sl, #-688]!	; 0xfffffd50
     660:	87c80511 	bfihi	r0, r1, (invalid: 10:8)
     664:	8aa0c57b 	bhi	fe831c58 <memset+0xfe82a8e4>
     668:	4189f741 	orrmi	pc, r9, r1, asr #14
     66c:	c44bdc3f 	strbgt	sp, [fp], #-3135	; 0xfffff3c1
     670:	be255047 	cdplt	0, 2, cr5, cr5, cr7, {2}
     674:	1e6f5795 	mcrne	7, 3, r5, cr15, cr5, {4}
     678:	006e95c8 	rsbeq	r9, lr, r8, asr #11
     67c:	a3396cef 	teqge	r9, #61184	; 0xef00
     680:	7f42d222 	svcvc	0x0042d222
     684:	044e8021 	strbeq	r8, [lr], #-33	; 0xffffffdf
     688:	7c33ffbe 	ldcvc	15, cr15, [r3], #-760	; 0xfffffd08
     68c:	b40bc15d 	strlt	ip, [fp], #-349	; 0xfffffea3
     690:	b30661d3 	movwlt	r6, #25043	; 0x61d3
     694:	13b900f9 			; <UNDEFINED> instruction: 0x13b900f9
     698:	18d05149 	ldmne	r0, {r0, r3, r6, r8, ip, lr}^
     69c:	742feb10 	strtvc	lr, [pc], #-2832	; 6a4 <data_tnt_config_+0x58c>
     6a0:	9711bd60 	ldrls	fp, [r1, -r0, ror #26]
     6a4:	9005c733 	andls	ip, r5, r3, lsr r7
     6a8:	37b37576 			; <UNDEFINED> instruction: 0x37b37576
     6ac:	5c1e263e 	ldcpl	6, cr2, [lr], {62}	; 0x3e
     6b0:	90cd2ea3 	sbcls	r2, sp, r3, lsr #29
     6b4:	dc1b782b 	ldcle	8, cr7, [fp], {43}	; 0x2b
     6b8:	d9e589b3 	stmible	r5!, {r0, r1, r4, r5, r7, r8, fp, pc}^
     6bc:	11d87716 	bicsne	r7, r8, r6, lsl r7
     6c0:	74d50b54 	ldrbvc	r0, [r5], #2900	; 0xb54
     6c4:	0ac14bc5 	beq	ff0535e0 <memset+0xff04c26c>
     6c8:	2eeb6929 	vfmacs.f16	s13, s22, s19	; <UNPREDICTABLE>
     6cc:	62a0eda1 	adcvs	lr, r0, #10304	; 0x2840
     6d0:	45abc36e 	strmi	ip, [fp, #878]!	; 0x36e
     6d4:	be9da26e 	cdplt	2, 9, cr10, cr13, cr14, {3}
     6d8:	681bd20e 	ldmdavs	fp, {r1, r2, r3, r9, ip, lr, pc}
     6dc:	ec6dd1d8 	stfp	f5, [sp], #-864	; 0xfffffca0
     6e0:	2686c4de 	pkhtbcs	ip, r6, lr, asr #9
     6e4:	a1f69502 	mvnsge	r9, r2, lsl #10
     6e8:	cbdedc79 	blgt	ff7b78d4 <memset+0xff7b0560>
     6ec:	b48daa00 	strlt	sl, [sp], #2560	; 0xa00
     6f0:	22026aae 	andcs	r6, r2, #712704	; 0xae000
     6f4:	77ab8ed0 	sbfxvc	r8, r0, #29, #12
     6f8:	66e8ebe0 	strbtvs	lr, [r8], r0, ror #23
     6fc:	c1d466c7 	bicsgt	r6, r4, r7, asr #13
     700:	43e2754c 	mvnmi	r7, #76, 10	; 0x13000000
     704:	ea1e9349 	b	7a5430 <memset+0x79e0bc>
     708:	0e0c4186 	adfeq<illegal precision>	f4, f4, f6
     70c:	9e24cfdf 	mcrls	15, 1, ip, cr4, cr15, {6}
     710:	a8432c25 	stmdage	r3, {r0, r2, r5, sl, fp, sp}^
     714:	163e5017 			; <UNDEFINED> instruction: 0x163e5017
     718:	07574e58 			; <UNDEFINED> instruction: 0x07574e58
     71c:	818b0146 	orrhi	r0, fp, r6, asr #2
     720:	04c427cf 	strbeq	r2, [r4], #1999	; 0x7cf
     724:	21be03dc 			; <UNDEFINED> instruction: 0x21be03dc
     728:	a0b0a568 	adcsge	sl, r0, r8, ror #10
     72c:	1a7027d0 	bne	1c0a674 <memset+0x1c03300>
     730:	4f2febed 	svcmi	0x002febed
     734:	69613cef 	stmdbvs	r1!, {r0, r1, r2, r3, r5, r6, r7, sl, fp, ip, sp}^
     738:	cdacd897 	stcgt	8, cr13, [ip, #604]!	; 0x25c
     73c:	2d092fa1 	stccs	15, cr2, [r9, #-644]	; 0xfffffd7c
     740:	2b38e062 	blcs	e388d0 <memset+0xe3155c>
     744:	325daa43 	subscc	sl, sp, #274432	; 0x43000
     748:	52191ee2 	andspl	r1, r9, #3616	; 0xe20
     74c:	bb204850 	bllt	812894 <memset+0x80b520>
     750:	3a596a4c 	bcc	165b088 <memset+0x1653d14>
     754:	4edfe654 	mrcmi	6, 6, lr, cr15, cr4, {2}
     758:	1b25b9b3 	blne	96ee2c <memset+0x967ab8>
     75c:	29a1f1a6 	stmibcs	r1!, {r1, r2, r5, r7, r8, ip, sp, lr, pc}
     760:	1af2678d 	bne	ffc9a59c <memset+0xffc93228>
     764:	02f66938 	rscseq	r6, r6, #56, 18	; 0xe0000
     768:	b64d12b3 			; <UNDEFINED> instruction: 0xb64d12b3
     76c:	f1faa48f 			; <UNDEFINED> instruction: 0xf1faa48f
     770:	9d150d1f 	ldcls	13, cr0, [r5, #-124]	; 0xffffff84
     774:	219ea4df 			; <UNDEFINED> instruction: 0x219ea4df
     778:	736b9224 	cmnvc	fp, #36, 4	; 0x40000002
     77c:	bdb488e3 	ldclt	8, cr8, [r4, #908]!	; 0x38c
     780:	826d8581 	rsbhi	r8, sp, #541065216	; 0x20400000
     784:	e65403e7 	ldrb	r0, [r4], -r7, ror #7
     788:	74c120a8 	strbvc	r2, [r1], #168	; 0xa8
     78c:	965721dd 			; <UNDEFINED> instruction: 0x965721dd
     790:	2b7002f6 	blcs	1c01370 <memset+0x1bf9ffc>
     794:	a9774289 	ldmdbge	r7!, {r0, r3, r7, r9, lr}^
     798:	572277a1 	strpl	r7, [r2, -r1, lsr #15]!
     79c:	077401d4 			; <UNDEFINED> instruction: 0x077401d4
     7a0:	69950603 	ldmibvs	r5, {r0, r1, r9, sl}
     7a4:	e9e851e4 	stmib	r8!, {r2, r5, r6, r7, r8, ip, lr}^
     7a8:	9ccf9233 	sfmls	f1, 3, [pc], {51}	; 0x33
     7ac:	80526392 			; <UNDEFINED> instruction: 0x80526392
     7b0:	a9941f7f 	ldmibge	r4, {r0, r1, r2, r3, r4, r5, r6, r8, r9, sl, fp, ip}
     7b4:	8a285227 	bhi	a15058 <memset+0xa0dce4>
     7b8:	6687dbef 	strvs	sp, [r7], pc, ror #23
     7bc:	d948a581 	stmdble	r8, {r0, r7, r8, sl, sp, pc}^
     7c0:	61d5eafd 	ldrshvs	lr, [r5, #173]	; 0xad
     7c4:	86ddc87a 			; <UNDEFINED> instruction: 0x86ddc87a
     7c8:	1af8986f 	bne	ffe2698c <memset+0xffe1f618>
     7cc:	46b3f676 			; <UNDEFINED> instruction: 0x46b3f676
     7d0:	01e93459 	mvneq	r3, r9, asr r4
     7d4:	2ee5bb7f 			; <UNDEFINED> instruction: 0x2ee5bb7f
     7d8:	91d91328 	bicsls	r1, r9, r8, lsr #6
     7dc:	b96d186d 	stmdblt	sp!, {r0, r2, r3, r5, r6, fp, ip}^
     7e0:	938a1424 	orrls	r1, sl, #36, 8	; 0x24000000
     7e4:	2cb25374 	ldccs	3, cr5, [r2], #464	; 0x1d0
     7e8:	4f7abe52 	svcmi	0x007abe52
     7ec:	9ea1c58e 	cdpls	5, 10, cr12, cr1, cr14, {4}
     7f0:	f3089ae4 	vpmax.u8	<illegal reg q4.5>, q12, q10
     7f4:	0c681c68 	stcleq	12, cr1, [r8], #-416	; 0xfffffe60
     7f8:	153c2fba 	ldrne	r2, [ip, #-4026]!	; 0xfffff046
     7fc:	8831e176 	ldmdahi	r1!, {r1, r2, r4, r5, r6, r8, sp, lr, pc}
     800:	9a00cd1d 	bls	33c7c <memset+0x2c908>
     804:	40189f4b 	andsmi	r9, r8, fp, asr #30
     808:	ee89901f 	mcr	0, 4, r9, cr9, cr15, {0}
     80c:	0d42048e 	cfstrdeq	mvd0, [r2, #-568]	; 0xfffffdc8
     810:	7d092fe1 	stcvc	15, cr2, [r9, #-900]	; 0xfffffc7c
     814:	1c195c8c 	ldcne	12, cr5, [r9], {140}	; 0x8c
     818:	4b326b86 	blmi	c9b638 <memset+0xc942c4>
     81c:	9fcf2cb4 	svcls	0x00cf2cb4
     820:	58258d99 	stmdapl	r5!, {r0, r3, r4, r7, r8, sl, fp, pc}
     824:	b41826b4 	ldrlt	r2, [r8], #-1716	; 0xfffff94c
     828:	bf68d971 	svclt	0x0068d971
     82c:	bb189965 	bllt	626dc8 <memset+0x61fa54>
     830:	ea90dd5b 	b	fe437da4 <memset+0xfe430a30>
     834:	777d74a6 	ldrbvc	r7, [sp, -r6, lsr #9]!
     838:	1285b9fb 	addne	fp, r5, #4112384	; 0x3ec000
     83c:	5547477a 	strbpl	r4, [r7, #-1914]	; 0xfffff886
     840:	541e2dc5 	ldrpl	r2, [lr], #-3525	; 0xfffff23b
     844:	54189615 	ldrpl	r9, [r8], #-1557	; 0xfffff9eb
     848:	74fe23ad 	ldrbtvc	r2, [lr], #941	; 0x3ad
     84c:	fcea08ce 	vcmla.f16	q8, q13, q7, #90
     850:	f4816ac9 	vst3.32	{d6[1],d8[1],d10[1]}, [r1], r9
     854:	fc7bcd8c 	ldc2l	13, cr12, [fp], #-560	; 0xfffffdd0
     858:	387522c1 	ldmdacc	r5!, {r0, r6, r7, r9, sp}^
     85c:	6a5446ad 	bvs	1512318 <memset+0x150afa4>
     860:	2367b544 	cmncs	r7, #68, 10	; 0x11000000
     864:	b5eb342a 	strblt	r3, [fp, #1066]!	; 0x42a
     868:	fb87e9e3 	blx	fe1faffe <memset+0xfe1f3c8a>
     86c:	acd4bd56 	ldclge	13, cr11, [r4], {86}	; 0x56
     870:	ff306eec 			; <UNDEFINED> instruction: 0xff306eec
     874:	32a8bb36 	adccc	fp, r8, #55296	; 0xd800
     878:	d3c61ba7 	bicle	r1, r6, #171008	; 0x29c00
     87c:	ff3cec19 			; <UNDEFINED> instruction: 0xff3cec19
     880:	ffcf1b18 			; <UNDEFINED> instruction: 0xffcf1b18
     884:	b0031a81 	andlt	r1, r3, r1, lsl #21
     888:	0d182bdd 	vldreq	d2, [r8, #-884]	; 0xfffffc8c
     88c:	2bcff681 	blcs	ff3fe298 <memset+0xff3f6f24>
     890:	ba805540 	blt	fe015d98 <memset+0xfe00ea24>
     894:	cd2a8057 	stcgt	0, cr8, [sl, #-348]!	; 0xfffffea4
     898:	dbcc2bbb 	blle	ff30b78c <memset+0xff304418>
     89c:	adaa8e11 	stcge	14, cr8, [sl, #68]!	; 0x44
     8a0:	22587f5f 	subscs	r7, r8, #380	; 0x17c
     8a4:	2ec7ab41 			; <UNDEFINED> instruction: 0x2ec7ab41
     8a8:	f7ce4b23 			; <UNDEFINED> instruction: 0xf7ce4b23
     8ac:	75085cb8 	strvc	r5, [r8, #-3256]	; 0xfffff348
     8b0:	4723db39 			; <UNDEFINED> instruction: 0x4723db39
     8b4:	cfa870f3 	svcgt	0x00a870f3
     8b8:	3fc1180c 	svccc	0x00c1180c
     8bc:	e7183d73 			; <UNDEFINED> instruction: 0xe7183d73
     8c0:	f96deb3f 			; <UNDEFINED> instruction: 0xf96deb3f
     8c4:	01474252 	cmpeq	r7, r2, asr r2
     8c8:	2fb08d4e 	svccs	0x00b08d4e
     8cc:	98e94e16 	stmials	r9!, {r1, r2, r4, r9, sl, fp, lr}^
     8d0:	53fbd41d 	mvnspl	sp, #486539264	; 0x1d000000
     8d4:	fed50905 			; <UNDEFINED> instruction: 0xfed50905
     8d8:	48c139e9 	stmiami	r1, {r0, r3, r5, r6, r7, r8, fp, ip, sp}^
     8dc:	1be161c0 	blne	ff858fe4 <memset+0xff851c70>
     8e0:	d0cf70eb 	sbcle	r7, pc, fp, ror #1
     8e4:	085f25a0 	ldmdaeq	pc, {r5, r7, r8, sl, sp}^	; <UNPREDICTABLE>
     8e8:	182e1dba 	stmdane	lr!, {r1, r3, r4, r5, r7, r8, sl, fp, ip}
     8ec:	4bac43a1 	blmi	feb11778 <memset+0xfeb0a404>
     8f0:	67b0fdce 	ldrvs	pc, [r0, lr, asr #27]!
     8f4:	22f29a9d 	rscscs	r9, r2, #643072	; 0x9d000
     8f8:	9b12e1ce 	blls	4b9038 <memset+0x4b1cc4>
     8fc:	a72e6d74 			; <UNDEFINED> instruction: 0xa72e6d74
     900:	a5d63457 	ldrbge	r3, [r6, #1111]	; 0x457
     904:	b98ae19e 	stmiblt	sl, {r1, r2, r3, r4, r7, r8, sp, lr, pc}
     908:	a0f50ea0 	rscsge	r0, r5, r0, lsr #29
     90c:	00c70a46 	sbceq	r0, r7, r6, asr #20
     910:	84674360 	strbthi	r4, [r7], #-864	; 0xfffffca0
     914:	0303d0cd 	movweq	sp, #12493	; 0x30cd
     918:	c10b5c6d 	tstgt	fp, sp, ror #24
     91c:	a5376a95 	ldrge	r6, [r7, #-2709]!	; 0xfffff56b
     920:	e5c7d6db 	strb	sp, [r7, #1755]	; 0x6db
     924:	b74fed42 	strblt	lr, [pc, -r2, asr #26]
     928:	7ab6e288 	bvc	fedb9350 <memset+0xfedb1fdc>
     92c:	cb932616 	blgt	fe4ca18c <memset+0xfe4c2e18>
     930:	1963fc9d 	stmdbne	r3!, {r0, r2, r3, r4, r7, sl, fp, ip, sp, lr, pc}^
     934:	cf0b5b96 	svcgt	0x000b5b96
     938:	fced5945 	stc2l	9, cr5, [sp], #138	; 0x8a	; <UNPREDICTABLE>
     93c:	c51d2163 	ldrgt	r2, [sp, #-355]	; 0xfffffe9d
     940:	29c51415 	stmibcs	r5, {r0, r2, r4, sl, ip}^
     944:	a714538a 	ldrge	r5, [r4, -sl, lsl #7]
     948:	285f6e28 	ldmdacs	pc, {r3, r5, r9, sl, fp, sp, lr}^	; <UNPREDICTABLE>
     94c:	f808b96e 			; <UNDEFINED> instruction: 0xf808b96e
     950:	69714513 	ldmdbvs	r1!, {r0, r1, r4, r8, sl, lr}^
     954:	e6f5ee29 	ldrbt	lr, [r5], r9, lsr #28
     958:	ff1a2e09 			; <UNDEFINED> instruction: 0xff1a2e09
     95c:	d2e7260e 	rscle	r2, r7, #14680064	; 0xe00000
     960:	54571c74 	ldrbpl	r1, [r7], #-3188	; 0xfffff38c
     964:	4e38a71c 	mrcmi	7, 1, sl, cr8, cr12, {0}
     968:	b8e29c71 	stmialt	r2!, {r0, r4, r5, r6, sl, fp, ip, pc}^
     96c:	e6b8e13d 			; <UNDEFINED> instruction: 0xe6b8e13d
     970:	5a59a575 	bpl	1669f4c <memset+0x1662bd8>
     974:	8a8ae68a 	bhi	fe2ba3a4 <memset+0xfe2b3030>
     978:	dcd252e6 	lfmle	f5, 2, [r2], {230}	; 0xe6
     97c:	56761b1f 			; <UNDEFINED> instruction: 0x56761b1f
     980:	b9dad14e 	ldmiblt	sl, {r1, r2, r3, r6, r8, ip, lr, pc}^
     984:	95a30dcd 	strls	r0, [r3, #3533]!	; 0xdcd
     988:	3a9c2362 	bcc	fe709718 <memset+0xfe7023a4>
     98c:	d2395394 	eorsle	r5, r9, #148, 6	; 0x50000002
     990:	19edd314 	stmibne	sp!, {r2, r4, r8, r9, ip, lr, pc}^
     994:	bd66f9d3 			; <UNDEFINED> instruction: 0xbd66f9d3
     998:	d0d6dce5 	sbcsle	sp, r6, r5, ror #25
     99c:	7b51cbe1 	blvc	1473928 <memset+0x146c5b4>
     9a0:	ac9ec892 	ldcge	8, cr12, [lr], {146}	; 0x92
     9a4:	387290e9 	ldmdacc	r2!, {r0, r3, r5, r6, r7, ip, pc}^
     9a8:	f2193367 	vcgt.s16	<illegal reg q1.5>, <illegal reg q4.5>, <illegal reg q11.5>
     9ac:	b67add86 	ldrbtlt	sp, [sl], -r6, lsl #27
     9b0:	0f440c84 	svceq	0x00440c84
     9b4:	4ae105ce 	bmi	ff8420f4 <memset+0xff83ad80>
     9b8:	48a564ce 	stmiami	r5!, {r1, r2, r3, r6, r7, sl, sp, lr}
     9bc:	710ac46b 	tstvc	sl, fp, ror #8
     9c0:	a3a9b496 			; <UNDEFINED> instruction: 0xa3a9b496
     9c4:	a0a9f88b 	adcge	pc, r9, fp, lsl #17
     9c8:	3b7454fc 	blcc	1d15dc0 <memset+0x1d0ea4c>
     9cc:	23332998 	teqcs	r3, #152, 18	; 0x260000
     9d0:	d8585881 	ldmdale	r8, {r0, r7, fp, ip, lr}^
     9d4:	b7e04db3 			; <UNDEFINED> instruction: 0xb7e04db3
     9d8:	7934f90c 	ldmdbvc	r4!, {r2, r3, r8, fp, ip, sp, lr, pc}
     9dc:	1cecef0a 	stclne	15, cr14, [ip], #40	; 0x28
     9e0:	5c700d85 	ldclpl	13, cr0, [r0], #-532	; 0xfffffdec
     9e4:	dad0bb6a 	ble	ff42f794 <memset+0xff428420>
     9e8:	a043208e 	subge	r2, r3, lr, lsl #1
     9ec:	467103c6 	ldrbtmi	r0, [r1], -r6, asr #7
     9f0:	5c7e7432 	cfldrdpl	mvd7, [lr], #-200	; 0xffffff38
     9f4:	62287f2e 	eorvs	r7, r8, #46, 30	; 0xb8
     9f8:	e967b027 	stmdb	r7!, {r0, r1, r2, r5, ip, sp, pc}^
     9fc:	cb0327a6 	blgt	ca89c <memset+0xc3528>
     a00:	330b45a3 	movwcc	r4, #46499	; 0xb5a3
     a04:	8b67a345 	blhi	19e9720 <memset+0x19e23ac>
     a08:	c3c5b3e3 	bicgt	fp, r5, #-1946157053	; 0x8c000003
     a0c:	fd66d0b5 	stc2l	0, cr13, [r6, #-724]!	; 0xfffffd2c
     a10:	7a5b56ae 	bvc	16d64d0 <memset+0x16cf15c>
     a14:	a2829643 	addge	r9, r2, #70254592	; 0x4300000
     a18:	a08795cc 	addge	r9, r7, ip, asr #11
     a1c:	673083af 	ldrvs	r8, [r0, -pc, lsr #7]!
     a20:	cce03209 	sfmgt	f3, 2, [r0], #36	; 0x24
     a24:	14468985 	strbne	r8, [r6], #-2437	; 0xfffff67b
     a28:	54ce2a67 	strbpl	r2, [lr], #2663	; 0xa67
     a2c:	5338a99c 	teqpl	r8, #156, 18	; 0x270000
     a30:	672c6671 			; <UNDEFINED> instruction: 0x672c6671
     a34:	ae671416 	mcrge	4, 3, r1, cr7, cr6, {0}
     a38:	dc599865 	mrrcle	8, 6, r9, r9, cr5	; <UNPREDICTABLE>
     a3c:	cc2cd60e 	stcgt	6, cr13, [ip], #-56	; 0xffffffc8
     a40:	94c2e6b2 	strbls	lr, [r2], #1714	; 0x6b2
     a44:	15358a22 	ldrne	r8, [r5, #-2594]!	; 0xfffff5de
     a48:	54d62a6b 	ldrbpl	r2, [r6], #2667	; 0xa6b
     a4c:	3358a9ac 	cmpcc	r8, #172, 18	; 0x2b0000
     a50:	8a8b3596 	bhi	fe2ce0b0 <memset+0xfe2c6d3c>
     a54:	a477f735 	ldrbtge	pc, [r7], #-1845	; 0xfffff8cb	; <UNPREDICTABLE>
     a58:	cce29c59 	stclgt	12, cr9, [r2], #356	; 0x164
     a5c:	9559aeb4 	ldrbls	sl, [r9, #-3764]	; 0xfffff14c
     a60:	e6d14436 			; <UNDEFINED> instruction: 0xe6d14436
     a64:	4ee6d2de 	mcrmi	2, 7, sp, cr6, cr14, {6}
     a68:	e4510d64 	ldrb	r0, [r1], #-3428	; 0xfffff29c
     a6c:	b9e4f5b9 	stmiblt	r4!, {r0, r3, r4, r5, r7, r8, sl, ip, sp, lr, pc}^
     a70:	ffa0b9bb 			; <UNDEFINED> instruction: 0xffa0b9bb
     a74:	14fdded8 	ldrbtne	sp, [sp], #3800	; 0xed8
     a78:	6300b0d6 	movwvs	fp, #214	; 0xd6
     a7c:	532134d9 			; <UNDEFINED> instruction: 0x532134d9
     a80:	33882944 	orrcc	r2, r8, #68, 18	; 0x110000
     a84:	11567fad 	cmpne	r6, sp, lsr #31
     a88:	454e22a7 	strbmi	r2, [lr, #-679]	; 0xfffffd59
     a8c:	15388a9c 	ldrne	r8, [r8, #-2716]!	; 0xfffff564
     a90:	67102671 			; <UNDEFINED> instruction: 0x67102671
     a94:	eae71141 	b	ff9c4fa0 <memset+0xff9bdc2c>
     a98:	db9f3389 	blle	fe7cd8c4 <memset+0xfe7c6550>
     a9c:	769ce60e 	ldrvc	lr, [ip], lr, lsl #12
     aa0:	d1f5a6d3 	ldrsble	sl, [r5, #99]!	; 0x63
     aa4:	cc54e62a 	mrrcgt	6, 2, lr, r4, cr10
     aa8:	315398a9 	cmpcc	r3, r9, lsr #17
     aac:	04ce62a7 	strbeq	r6, [lr], #679	; 0x2a7
     ab0:	e62a2ce6 	strt	r2, [sl], -r6, ror #25
     ab4:	7e16ecdc 	mrcvc	12, 0, lr, cr6, cr12, {6}
     ab8:	a8ce246b 	stmiage	lr, {r0, r1, r3, r5, r6, sl, sp}^
     abc:	3f6db6af 	svccc	0x006db6af
     ac0:	4b4c192d 	blmi	1306f7c <memset+0x12ffc08>
     ac4:	04fa6c2e 	ldrbteq	r6, [sl], #3118	; 0xc2e
     ac8:	5408ae06 	strpl	sl, [r8], #-3590	; 0xfffff1fa
     acc:	ea9aa811 	b	fe6aab18 <memset+0xfe6a37a4>
     ad0:	a8a9d454 	stmiage	r9!, {r2, r4, r6, sl, ip, lr, pc}
     ad4:	179d4233 			; <UNDEFINED> instruction: 0x179d4233
     ad8:	ae2a0ff5 	mcrge	15, 1, r0, cr10, cr5, {7}
     adc:	3b678f76 	blcc	19e48bc <memset+0x19dd548>
     ae0:	8465d2e7 	strbthi	sp, [r5], #-743	; 0xfffffd19
     ae4:	6f7b5344 	svcvs	0x007b5344
     ae8:	122a8915 	eorne	r8, sl, #344064	; 0x54000
     aec:	48aa2455 	stmiami	sl!, {r0, r2, r4, r6, sl, sp}
     af0:	12689154 	rsbne	r9, r8, #84, 2
     af4:	db40aa89 	blle	102b520 <memset+0x10241ac>
     af8:	9db40cfd 	ldcls	12, cr0, [r4, #1012]!	; 0x3f4
     afc:	1a11984b 	bne	466c30 <memset+0x45f8bc>
     b00:	55caed4d 	strbpl	lr, [sl, #3405]	; 0xd4d
     b04:	5468aa34 	strbtpl	sl, [r8], #-2612	; 0xfffff5cc
     b08:	51a2a8d1 	ldrdpl	sl, [r2, r1]!
     b0c:	3449a345 	strbcc	sl, [r9], #-837	; 0xfffffcbb
     b10:	f76f22aa 			; <UNDEFINED> instruction: 0xf76f22aa
     b14:	c73a2c7b 			; <UNDEFINED> instruction: 0xc73a2c7b
     b18:	fc5cbba1 	mrrc2	11, 10, fp, ip, cr1
     b1c:	c551e2ad 	ldrbgt	lr, [r1, #-685]	; 0xfffffd53
     b20:	54526aa3 	ldrbpl	r6, [r2], #-2723	; 0xfffff55d
     b24:	d362a9b1 	cmnle	r2, #2899968	; 0x2c4000
     b28:	42aa6c45 	adcmi	r6, sl, #17664	; 0x4500
     b2c:	1433f771 	ldrtne	pc, [r3], #-1905	; 0xfffff88f	; <UNPREDICTABLE>
     b30:	03369677 	teqeq	r6, #124780544	; 0x7700000
     b34:	202e5d26 	eorcs	r5, lr, r6, lsr #26
     b38:	62a93157 	adcvs	r3, r9, #-1073741803	; 0xc0000015
     b3c:	8aa4c552 	bhi	fe93208c <memset+0xfe92ad18>
     b40:	2e931549 	cdpcs	5, 9, cr1, cr3, cr9, {2}
     b44:	9b155262 	blls	5554d4 <memset+0x54e160>
     b48:	b9b1a7bb 	ldmiblt	r1!, {r0, r1, r3, r4, r5, r7, r8, r9, sl, sp, pc}
     b4c:	5019bcb3 			; <UNDEFINED> instruction: 0x5019bcb3
     b50:	ba1172e9 	blt	45d6fc <memset+0x456388>
     b54:	95154a8a 	ldrls	r4, [r5, #-2698]	; 0xfffff576
     b58:	54552a2a 	ldrbpl	r2, [r5], #-2602	; 0xfffff5d6
     b5c:	1174a8aa 	cmnne	r4, sl, lsr #17
     b60:	dd60aa95 	vstmdble	r0!, {s21-s169}
     b64:	9dd60cfd 	ldclls	12, cr0, [r6, #1012]	; 0x3f4
     b68:	e873cda5 	ldmda	r3!, {r0, r2, r5, r7, r8, sl, fp, lr, pc}^
     b6c:	58d7ee68 	ldmpl	r7, {r3, r5, r6, r9, sl, fp, sp, lr, pc}^
     b70:	22dce51a 	sbcscs	lr, ip, #109051904	; 0x6800000
     b74:	992258d7 	stmdbls	r2!, {r0, r1, r2, r4, r6, r7, fp, ip, lr}
     b78:	338a0b33 	orrcc	r0, sl, #52224	; 0xcc00
     b7c:	14ee6715 	strbtne	r6, [lr], #1813	; 0x715
     b80:	ecd95e67 	ldcl	14, cr5, [r9], {103}	; 0x67
     b84:	9d998f2f 	ldcls	15, cr8, [r9, #188]	; 0xbc
     b88:	7d9f6e11 	ldcvc	14, cr6, [pc, #68]	; bd4 <data_tnt_config_+0xabc>
     b8c:	766a0d41 	strbtvc	r0, [sl], -r1, asr #26
     b90:	5ee61118 	mcrpl	1, 7, r1, cr6, cr8, {0}
     b94:	6196751e 	orrsvs	r7, r6, lr, lsl r5
     b98:	d3d9edd1 	bicsle	lr, r9, #13376	; 0x3440
     b9c:	b077e978 	rsbslt	lr, r7, r8, ror r9
     ba0:	9f589bf7 	svcls	0x00589bf7
     ba4:	57f40691 			; <UNDEFINED> instruction: 0x57f40691
     ba8:	e07c5edc 	ldrsbt	r5, [ip], #-236	; 0xffffff14
     bac:	416eae19 	cmnmi	lr, r9, lsl lr
     bb0:	5daf8407 	cfstrspl	mvf8, [pc, #28]!	; bd4 <data_tnt_config_+0xabc>
     bb4:	e3c079bd 	bic	r7, r0, #3096576	; 0x2f4000
     bb8:	db612bf8 	blle	184bba0 <memset+0x184482c>
     bbc:	3c1af14b 	ldfccd	f7, [sl], {75}	; 0x4b
     bc0:	91eee263 	mvnls	lr, r3, ror #4
     bc4:	bce640d7 	stcllt	0, cr4, [r6], #860	; 0x35c
     bc8:	22f33207 	rscscs	r3, r3, #1879048192	; 0x70000000
     bcc:	209becc8 	addscs	lr, fp, r8, asr #25
     bd0:	7430abe1 	ldrtvc	sl, [r0], #-3041	; 0xfffff41f
     bd4:	92747c27 	rsbsls	r7, r4, #9984	; 0x2700
     bd8:	c0727a9f 			; <UNDEFINED> instruction: 0xc0727a9f
     bdc:	bdcf5481 	cfstrdlt	mvd5, [pc, #516]	; de8 <data_tnt_config_+0xcd0>
     be0:	d354eff9 	cmple	r4, #996	; 0x3e4
     be4:	babb2a85 	blt	feecb600 <memset+0xfeec428c>
     be8:	e0a6e32b 	adc	lr, r6, fp, lsr #6
     bec:	1c9e4cc5 	ldcne	12, cr4, [lr], {197}	; 0xc5
     bf0:	bf371ad4 	svclt	0x00371ad4
     bf4:	878a365f 			; <UNDEFINED> instruction: 0x878a365f
     bf8:	b175e467 	cmnlt	r5, r7, ror #8
     bfc:	bc55fd70 	mrrclt	13, 7, pc, r5, cr0	; <UNPREDICTABLE>
     c00:	df0f4354 	svcle	0x000f4354
     c04:	1b3eceea 	blne	fb47b4 <memset+0xfad440>
     c08:	a9b8b839 	ldmibge	r8!, {r0, r3, r4, r5, fp, ip, sp, pc}
     c0c:	e1cf7fe6 	bic	r7, pc, r6, ror #31
     c10:	1372e583 	cmnne	r2, #549453824	; 0x20c00000
     c14:	f4fe260f 			; <UNDEFINED> instruction: 0xf4fe260f
     c18:	b1aad58c 			; <UNDEFINED> instruction: 0xb1aad58c
     c1c:	f9bd4aeb 			; <UNDEFINED> instruction: 0xf9bd4aeb
     c20:	5b14b267 	blpl	52d5c4 <memset+0x526250>
     c24:	9aaa9e9b 	bls	feaa8698 <memset+0xfeaa1324>
     c28:	b113bbee 	tstlt	r3, lr, ror #23
     c2c:	63ff8cc1 	mvnsvs	r8, #49408	; 0xc100
     c30:	c1e14b46 	mvngt	r4, r6, asr #22
     c34:	66a4a953 	ssatvs	sl, #5, r3, asr #18
     c38:	a3252fcf 			; <UNDEFINED> instruction: 0xa3252fcf
     c3c:	effcf2f0 	svc	0x00fcf2f0
     c40:	56cd4452 			; <UNDEFINED> instruction: 0x56cd4452
     c44:	0f09a205 	svceq	0x0009a205
     c48:	01092982 	smlabbeq	r9, r2, r9, r2
     c4c:	be5ee735 	mrclt	7, 2, lr, cr14, cr5, {1}
     c50:	9afeba18 	bls	fffaf4b8 <memset+0xfffa8144>
     c54:	338a8620 	orrcc	r8, sl, #32, 12	; 0x2000000
     c58:	f94a6862 			; <UNDEFINED> instruction: 0xf94a6862
     c5c:	273d8b9c 			; <UNDEFINED> instruction: 0x273d8b9c
     c60:	10f0625a 	rscsne	r6, r0, sl, asr r2
     c64:	c5ee87a7 	strbgt	r8, [lr, #1959]!	; 0x7a7
     c68:	05f4a2c8 	ldrbeq	sl, [r4, #712]!	; 0x2c8
     c6c:	62570606 	subsvs	r0, r7, #6291456	; 0x600000
     c70:	e7b28a87 	ldr	r8, [r2, r7, lsl #21]!
     c74:	39576ef2 	ldmdbcc	r7, {r1, r4, r5, r6, r7, r9, sl, fp, sp, lr}^
     c78:	da389414 	ble	e25cd0 <memset+0xe1e95c>
     c7c:	a6f95434 			; <UNDEFINED> instruction: 0xa6f95434
     c80:	3089c629 	addcc	ip, r9, r9, lsr #12
     c84:	84b784fe 	ldrthi	r8, [r7], #1278	; 0x4fe
     c88:	b910bcbb 	ldmdblt	r0, {r0, r1, r3, r4, r5, r7, sl, fp, ip, sp, pc}
     c8c:	640e0a91 	strvs	r0, [lr], #-2705	; 0xfffff56f
     c90:	0c1ee6a1 	ldceq	6, cr14, [lr], {161}	; 0xa1
     c94:	aa3135aa 	bge	c4e344 <memset+0xc46fd0>
     c98:	6ae3189c 	bvs	ff8c6f10 <memset+0xff8bfb9c>
     c9c:	1eccc3ba 	mcrne	3, 6, ip, cr12, cr10, {5}
     ca0:	219680a0 	orrscs	r8, r6, r0, lsr #1
     ca4:	b15c2065 	cmplt	ip, r5, rrx
     ca8:	f1c58c25 			; <UNDEFINED> instruction: 0xf1c58c25
     cac:	30d4e983 	sbcscc	lr, r4, r3, lsl #19
     cb0:	764a3046 	strbvc	r3, [sl], -r6, asr #32
     cb4:	71ccc18f 	bicvc	ip, ip, pc, lsl #3
     cb8:	7499ee30 	ldrvc	lr, [r9], #3632	; 0xe30
     cbc:	b5fe4748 	ldrblt	r4, [lr, #1864]!	; 0x748
     cc0:	7bc5dd43 	blvc	ff1781d4 <memset+0xff170e60>
     cc4:	79d7ae38 	ldmibvc	r7, {r3, r4, r5, r9, sl, fp, sp, pc}^
     cc8:	03875022 	orreq	r5, r7, #34	; 0x22
     ccc:	33407b4c 	movtcc	r7, #2892	; 0xb4c
     cd0:	7e4a194f 	vmlsvc.f16	s3, s20, s30	; <UNPREDICTABLE>
     cd4:	237d8201 	cmncs	sp, #268435456	; 0x10000000
     cd8:	cfbef71a 	svcgt	0x00bef71a
     cdc:	e330dec5 	teq	r0, #3152	; 0xc50
     ce0:	ba19eb23 	blt	67b974 <memset+0x674600>
     ce4:	6a1e955e 	bvs	7a6264 <memset+0x79eef0>
     ce8:	b57dd6cd 	ldrblt	sp, [sp, #-1741]!	; 0xfffff933
     cec:	dddebe59 	ldclle	14, cr11, [lr, #356]	; 0x164
     cf0:	a75fa61d 	smmlage	pc, sp, r6, sl	; <UNPREDICTABLE>
     cf4:	cb1ebe1a 	blgt	7b0564 <memset+0x7a91f0>
     cf8:	823e2f72 	eorshi	r2, lr, #456	; 0x1c8
     cfc:	219963fd 			; <UNDEFINED> instruction: 0x219963fd
     d00:	b0467aec 	sublt	r7, r6, ip, ror #21
     d04:	87da4173 			; <UNDEFINED> instruction: 0x87da4173
     d08:	c6da1c6e 	ldrbgt	r1, [sl], lr, ror #24
     d0c:	91f0b721 	mvnsls	fp, r1, lsr #14
     d10:	c056e029 	subsgt	lr, r6, r9, lsr #32
     d14:	2dc075bd 	cfstr64cs	mvdx7, [r0, #756]	; 0x2f4
     d18:	c747f32d 	strbgt	pc, [r7, -sp, lsr #6]	; <UNPREDICTABLE>
     d1c:	2a3af46d 	bcs	ebded8 <memset+0xeb6b64>
     d20:	d873ded8 	ldmdale	r3!, {r3, r4, r6, r7, r9, sl, fp, ip, lr, pc}^
     d24:	1f68049e 	svcne	0x0068049e
     d28:	89d6a9b5 	ldmibhi	r6, {r0, r2, r4, r5, r7, r8, fp, sp, pc}^
     d2c:	5d2d2d8d 	stcpl	13, cr2, [sp, #-564]!	; 0xfffffdcc
     d30:	31a4f396 			; <UNDEFINED> instruction: 0x31a4f396
     d34:	91e6d214 	mvnls	sp, r4, lsl r2
     d38:	1411f81b 	ldrne	pc, [r1], #-2075	; 0xfffff7e5
     d3c:	dec82b64 			; <UNDEFINED> instruction: 0xdec82b64
     d40:	a6fb6434 			; <UNDEFINED> instruction: 0xa6fb6434
     d44:	e0ccda48 	sbc	sp, ip, r8, asr #20
     d48:	c064c043 	rsbgt	ip, r4, r3, asr #32
     d4c:	37f467e2 	ldrbcc	r6, [r4, r2, ror #15]!
     d50:	9602b001 	strls	fp, [r2], -r1
     d54:	821d88fb 	andshi	r8, sp, #16449536	; 0xfb0000
     d58:	891bee38 	ldmdbhi	fp, {r3, r4, r5, r9, sl, fp, sp, lr, pc}
     d5c:	b6e1ddb8 			; <UNDEFINED> instruction: 0xb6e1ddb8
     d60:	9b8b1ccd 	blls	fe2c809c <memset+0xfe2c0d28>
     d64:	f911ce1a 			; <UNDEFINED> instruction: 0xf911ce1a
     d68:	9b95fbb0 	blls	fe57fc30 <memset+0xfe5788bc>
     d6c:	11c59738 	bicne	r9, r5, r8, lsr r7
     d70:	6518d1cc 	ldrvs	sp, [r8, #-460]	; 0xfffffe34
     d74:	f9308e6d 			; <UNDEFINED> instruction: 0xf9308e6d
     d78:	46e42823 	strbtmi	r2, [r4], r3, lsr #16
     d7c:	c93977ab 	ldmdbgt	r9!, {r0, r1, r3, r5, r7, r8, r9, sl, ip, sp, lr}
     d80:	1bdeb665 	blne	ff7ae71c <memset+0xff7a73a8>
     d84:	c60e6fb9 			; <UNDEFINED> instruction: 0xc60e6fb9
     d88:	6bd4ce74 	blvs	ff534760 <memset+0xff52d3ec>
     d8c:	e3306e1d 	teq	r0, #464	; 0x1d0
     d90:	81ce5c4b 	bichi	r5, lr, fp, asr #24
     d94:	3e6e1b89 	vmulcc.f64	d17, d30, d9
     d98:	3825b6fb 	stmdacc	r5!, {r0, r1, r3, r4, r5, r6, r7, r9, sl, ip, sp, pc}
     d9c:	4aa9c4da 	bmi	fea7210c <memset+0xfea6ad98>
     da0:	c68973cb 	strgt	r7, [r9], fp, asr #7
     da4:	5cbf0399 	ldcpl	3, cr0, [pc], #612	; 1010 <data_tnt_config_+0xef8>
     da8:	48f408b4 	ldmmi	r4!, {r2, r4, r5, r7, fp}^
     dac:	24da8c99 	ldrbcs	r8, [sl], #3225	; 0xc99
     db0:	dd7d8477 	cfldrdle	mvd8, [sp, #-476]!	; 0xfffffe24
     db4:	6c6135d1 	cfstr64vs	mvdx3, [r1], #-836	; 0xfffffcbc
     db8:	1a186796 	bne	61ac18 <memset+0x6138a4>
     dbc:	8c049a1f 			; <UNDEFINED> instruction: 0x8c049a1f
     dc0:	e790774c 	ldr	r7, [r0, ip, asr #14]
     dc4:	36b8c55e 	ssatcc	ip, #25, lr, asr #10
     dc8:	88ddcd57 	ldmhi	sp, {r0, r1, r2, r4, r6, r8, sl, fp, lr, pc}^
     dcc:	20bb3bd2 	ldrsbtcs	r3, [fp], r2
     dd0:	176b88a4 	strbne	r8, [fp, -r4, lsr #17]!
     dd4:	98633657 	stmdals	r3!, {r0, r1, r2, r4, r6, r9, sl, ip, sp}^
     dd8:	9092f15f 	addsls	pc, r2, pc, asr r1	; <UNPREDICTABLE>
     ddc:	a655d6a5 	ldrbge	sp, [r5], -r5, lsr #13
     de0:	6fc7eee5 	svcvs	0x00c7eee5
     de4:	9649eea0 	strbls	lr, [r9], -r0, lsr #29
     de8:	2177531e 	cmncs	r7, lr, lsl r3
     dec:	8a0bba81 	bhi	2ef7f8 <memset+0x2e8484>
     df0:	2b7515ba 	blcs	1d464e0 <memset+0x1d3f16c>
     df4:	add456ea 	ldclge	6, cr5, [r4, #936]	; 0x3a8
     df8:	a98b7ba8 	stmibge	fp, {r3, r5, r7, r8, r9, fp, ip, sp, lr}
     dfc:	7ba8a0bb 	blvc	fea290f0 <memset+0xfea21d7c>
     e00:	1a3ba9ef 	bne	eeb5c4 <memset+0xee4250>
     e04:	ad3bab3a 	vldmdbge	fp!, {d10-<overflow reg d38>}
     e08:	db6ee72e 	blle	1bbaac8 <memset+0x1bb3754>
     e0c:	c5b5fafb 	ldrgt	pc, [r5, #2811]!	; 0xafb
     e10:	2d2e044c 	cfstrscs	mvf0, [lr, #-304]!	; 0xfffffed0
     e14:	182fc38e 	stmdane	pc!, {r1, r2, r3, r7, r8, r9, lr, pc}	; <UNPREDICTABLE>
     e18:	0d744113 	ldfeqe	f4, [r4, #-76]!	; 0xffffffb4
     e1c:	73c27809 	bicvc	r7, r2, #589824	; 0x90000
     e20:	a7e24c9a 			; <UNDEFINED> instruction: 0xa7e24c9a
     e24:	8915c48a 	ldmdbhi	r5, {r1, r3, r7, sl, lr, pc}
     e28:	85fe1daf 	ldrbhi	r1, [lr, #3503]!	; 0xdaf
     e2c:	4d588a5d 	vldrmi	s17, [r8, #-372]	; 0xfffffe8c
     e30:	e7df4db8 			; <UNDEFINED> instruction: 0xe7df4db8
     e34:	49ab1963 	stmibmi	fp!, {r0, r1, r5, r6, r8, fp, ip}
     e38:	cdb3bf84 	ldcgt	15, cr11, [r3, #528]!	; 0x210
     e3c:	4029199f 	mlami	r9, pc, r9, r1	; <UNPREDICTABLE>
     e40:	35b662b7 	ldrcc	r6, [r6, #695]!	; 0x2b7
     e44:	286d0720 	stmdacs	sp!, {r5, r8, r9, sl}^
     e48:	a73208ef 	ldrge	r0, [r2, -pc, ror #17]!
     e4c:	c5f3410e 	ldrbgt	r4, [r3, #270]!	; 0x10e
     e50:	fbaf22ff 	blx	febc9a56 <memset+0xfebc26e2>
     e54:	01b36e4c 			; <UNDEFINED> instruction: 0x01b36e4c
     e58:	af074dd5 	svcge	0x00074dd5
     e5c:	d6075c3d 			; <UNDEFINED> instruction: 0xd6075c3d
     e60:	abad1b56 	blge	feb47bc0 <memset+0xfeb4084c>
     e64:	c5e6bbbb 	strbgt	fp, [r6, #3003]!	; 0xbbb
     e68:	b67f9fc3 	ldrbtlt	r9, [pc], -r3, asr #31
     e6c:	8ba5b72a 	blhi	fe96eb1c <memset+0xfe9677a8>
     e70:	0e32e55a 	mrceq	5, 1, lr, cr2, cr10, {2}
     e74:	ee09fd74 	mcr	13, 0, pc, cr9, cr4, {3}	; <UNPREDICTABLE>
     e78:	f754ecfc 			; <UNDEFINED> instruction: 0xf754ecfc
     e7c:	e7b13679 			; <UNDEFINED> instruction: 0xe7b13679
     e80:	635c92fa 	cmpvs	ip, #-1610612721	; 0xa000000f
     e84:	26695e00 	strbtcs	r5, [r9], -r0, lsl #28
     e88:	c834e5b1 	ldmdagt	r4!, {r0, r4, r5, r7, r8, sl, sp, lr, pc}
     e8c:	b1571625 	cmplt	r7, r5, lsr #12
     e90:	6f4baa7d 	svcvs	0x004baa7d
     e94:	430b4bba 	movwmi	r4, #48058	; 0xbbba
     e98:	9d0e5504 	cfstr32ls	mvfx5, [lr, #-16]
     e9c:	71b2a314 			; <UNDEFINED> instruction: 0x71b2a314
     ea0:	0408ee72 	streq	lr, [r8], #-3698	; 0xfffff18e
     ea4:	33a78114 			; <UNDEFINED> instruction: 0x33a78114
     ea8:	9c040774 	stcls	7, cr0, [r4], {116}	; 0x74
     eac:	c04739a9 	subgt	r3, r7, r9, lsr #19
     eb0:	7a061d45 	bvc	1883cc <memset+0x181058>
     eb4:	030c2669 	movweq	r2, #50793	; 0xc669
     eb8:	cb984327 	blgt	fe611b5c <memset+0xfe60a7e8>
     ebc:	d6d32e3a 			; <UNDEFINED> instruction: 0xd6d32e3a
     ec0:	59714738 	ldmdbpl	r1!, {r3, r4, r5, r8, r9, sl, lr}^
     ec4:	a73e95a9 	ldrge	r9, [lr, -r9, lsr #11]!
     ec8:	6b5e6199 	blvs	1799534 <memset+0x17921c0>
     ecc:	85aa0e50 	strhi	r0, [sl, #3664]!	; 0xe50
     ed0:	2b395105 	blcs	e552ec <memset+0xe4df78>
     ed4:	f0c1ca0b 			; <UNDEFINED> instruction: 0xf0c1ca0b
     ed8:	1ca0c49e 	cfstrsne	mvf12, [r0], #632	; 0x278
     edc:	4524ba5f 	strmi	fp, [r4, #-2655]!	; 0xfffff5a1
     ee0:	a59c0ce5 	ldrge	r0, [ip, #3301]	; 0xce5
     ee4:	601272a2 	andsvs	r7, r2, r2, lsr #5
     ee8:	16e2026c 	strbtne	r0, [r2], ip, ror #4
     eec:	802af64e 	eorhi	pc, sl, lr, asr #12
     ef0:	abb70053 	blge	fedc1044 <memset+0xfedb9cd0>
     ef4:	ad1d3700 	ldcge	7, cr3, [sp, #-0]
     ef8:	b6f892f0 			; <UNDEFINED> instruction: 0xb6f892f0
     efc:	c1562678 	cmpgt	r6, r8, ror r6
     f00:	6de06adb 			; <UNDEFINED> instruction: 0x6de06adb
     f04:	3ca874ee 	cfstrscc	mvf7, [r8], #952	; 0x3b8
     f08:	ad48bd25 	stclge	13, cr11, [r8, #-148]	; 0xffffff6c
     f0c:	71ba353e 			; <UNDEFINED> instruction: 0x71ba353e
     f10:	e70d7720 	str	r7, [sp, -r0, lsr #14]
     f14:	c2ab0702 	adcgt	r0, fp, #524288	; 0x80000
     f18:	bb75853a 	bllt	1d62408 <memset+0x1d5b094>
     f1c:	76b3758a 	ldrtvc	r7, [r3], sl, lsl #11
     f20:	d76892fc 			; <UNDEFINED> instruction: 0xd76892fc
     f24:	ae7284f8 	mrcge	4, 3, r8, cr2, cr8, {7}
     f28:	5daa5d75 	stcpl	13, cr5, [sl, #468]!	; 0x1d4
     f2c:	3893d029 	ldmcc	r3, {r0, r3, r5, ip, lr, pc}
     f30:	235d3857 	cmpcs	sp, #5701632	; 0x570000
     f34:	b605cde6 	strlt	ip, [r5], -r6, ror #27
     f38:	f5d7d079 			; <UNDEFINED> instruction: 0xf5d7d079
     f3c:	15ddf5e2 	ldrbne	pc, [sp, #1506]	; 0x5e2	; <UNPREDICTABLE>
     f40:	a7d0539c 	bfige	r5, ip, #7, #10
     f44:	a1d76fa0 	bicsge	r6, r7, r0, lsr #31
     f48:	378ed66f 	strcc	sp, [lr, pc, ror #12]
     f4c:	0f577d00 	svceq	0x00577d00
     f50:	24bdef4a 	ldrtcs	lr, [sp], #3914	; 0xf4a
     f54:	db024df4 	blle	9472c <memset+0x8d3b8>
     f58:	605d2678 	subsvs	r2, sp, r8, ror r6
     f5c:	961d0b62 	ldrls	r0, [sp], -r2, ror #22
     f60:	3eea5309 	cdpcc	3, 14, cr5, cr10, cr9, {0}
     f64:	65d4ba5b 	ldrbvs	fp, [r4, #2651]	; 0xa5b
     f68:	ea54c5be 	b	1532668 <memset+0x152b2f4>
     f6c:	f80a37f7 			; <UNDEFINED> instruction: 0xf80a37f7
     f70:	1a6df014 	bne	1b7cfc8 <memset+0x1b75c54>
     f74:	c90ed0f8 	stmdbgt	lr, {r3, r4, r5, r6, r7, ip, lr, pc}
     f78:	1c3b6d01 	ldcne	13, cr6, [fp], #-4
     f7c:	59c992ac 	stmibpl	r9, {r2, r3, r5, r7, r9, ip, pc}^
     f80:	9a7f43ef 	bls	1fd1f44 <memset+0x1fcabd0>
     f84:	8e6a083d 	mcrhi	8, 3, r0, cr10, cr13, {1}
     f88:	c9972f18 	ldmibgt	r7, {r3, r4, r8, r9, sl, fp, sp}
     f8c:	65a4d014 	strvs	sp, [r4, #20]!
     f90:	390e60bf 	stmdbcc	lr, {r0, r1, r2, r3, r4, r5, r7, sp, lr}
     f94:	3bac4c88 	blcc	feb141bc <memset+0xfeb0ce48>
     f98:	be467287 	cdplt	2, 4, cr7, cr6, cr7, {4}
     f9c:	5289c2cd 	addpl	ip, r9, #-805306356	; 0xd000000c
     fa0:	4696810c 	ldrmi	r8, [r6], ip, lsl #2
     fa4:	5fd226af 	svcpl	0x00d226af
     fa8:	d2754978 	rsbsle	r4, r5, #120, 18	; 0x1e0000
     fac:	b76ff7cc 	strblt	pc, [pc, -ip, asr #15]!	; <UNPREDICTABLE>
     fb0:	209e85dc 			; <UNDEFINED> instruction: 0x209e85dc
     fb4:	825bffbe 	subshi	pc, fp, #760	; 0x2f8
     fb8:	1c8dfeff 	stcne	14, cr15, [sp], {255}	; 0xff
     fbc:	db2d80dc 	blle	b61334 <memset+0xb59fc0>
     fc0:	f01b9ee4 			; <UNDEFINED> instruction: 0xf01b9ee4
     fc4:	70a4b359 	adcvc	fp, r4, r9, asr r3
     fc8:	570b7d18 	smladpl	fp, r8, sp, r7
     fcc:	92630f38 	rsbls	r0, r3, #56, 30	; 0xe0
     fd0:	591c7e7c 	ldmdbpl	ip, {r2, r3, r4, r5, r6, r9, sl, fp, ip, sp, lr}
     fd4:	cdba9a4e 			; <UNDEFINED> instruction: 0xcdba9a4e
     fd8:	eb8eba64 	bl	fe3af970 <memset+0xfe3a85fc>
     fdc:	40ec2611 	rscmi	r2, ip, r1, lsl r6
     fe0:	1c7594f6 	cfldrdne	mvd9, [r5], #-984	; 0xfffffc28
     fe4:	9eb27314 	mrcls	3, 5, r7, cr2, cr4, {0}
     fe8:	2568b3c3 	strbcs	fp, [r8, #-963]!	; 0xfffffc3d
     fec:	9ef21b48 	vcvtbls.f64.f16	d17, s16
     ff0:	ffbff7ff 			; <UNDEFINED> instruction: 0xffbff7ff
     ff4:	02990a43 	addseq	r0, r9, #274432	; 0x43000
     ff8:	f17d5819 			; <UNDEFINED> instruction: 0xf17d5819
     ffc:	4a733177 	bmi	1ccd5e0 <memset+0x1cc626c>
    1000:	fed9069e 	mrc2	6, 6, r0, cr9, cr14, {4}
    1004:	8ba0cdcb 	blhi	fe834738 <memset+0xfe82d3c4>
    1008:	024b43d1 	subeq	r4, fp, #1140850691	; 0x44000003
    100c:	747966f1 	ldrbtvc	r6, [r9], #-1777	; 0xfffff90f
    1010:	b8b4886b 	ldmlt	r4!, {r0, r1, r3, r5, r6, fp, pc}
    1014:	5f226fd0 	svcpl	0x00226fd0
    1018:	1a54d2d7 	bne	1535b7c <memset+0x152e808>
    101c:	8d3e9443 	cfldrshi	mvf9, [lr, #-268]!	; 0xfffffef4
    1020:	f34b4eea 	vcge.f32	q10, <illegal reg q13.5>, q13
    1024:	6d53e1a8 	ldfvsp	f6, [r3, #-672]	; 0xfffffd60
    1028:	6d368f1c 	ldcvs	15, cr8, [r6, #-112]!	; 0xffffff90
    102c:	81725d46 	cmnhi	r2, r6, asr #26
    1030:	7f0d8753 	svcvc	0x000d8753
    1034:	e43a90ea 	ldrt	r9, [sl], #-234	; 0xffffff16
    1038:	e0e464ce 	rsc	r6, r4, lr, asr #9
    103c:	a1fa3b9e 			; <UNDEFINED> instruction: 0xa1fa3b9e
    1040:	7456e29a 	ldrbvc	lr, [r6], #-666	; 0xfffffd66
    1044:	166069ba 			; <UNDEFINED> instruction: 0x166069ba
    1048:	ce4cea36 			; <UNDEFINED> instruction: 0xce4cea36
    104c:	0291836f 	addseq	r8, r1, #-1140850687	; 0xbc000001
    1050:	c7471233 	smlaldxgt	r1, r7, r3, r2
    1054:	5fc742c5 	svcpl	0x00c742c5
    1058:	c5d1dfc5 	ldrbgt	sp, [r1, #4037]	; 0xfc5
    105c:	e682193b 			; <UNDEFINED> instruction: 0xe682193b
    1060:	61f4dbeb 	mvnsvs	sp, fp, ror #23
    1064:	cf504d64 	svcgt	0x00504d64
    1068:	2f843a03 	svccs	0x00843a03
    106c:	43c4c2c6 	bicmi	ip, r4, #1610612748	; 0x6000000c
    1070:	5ca5705a 	stcpl	0, cr7, [r5], #360	; 0x168
    1074:	06803440 	streq	r3, [r0], r0, asr #8
    1078:	58e6111c 	stmiapl	r6!, {r2, r3, r4, r8, ip}^
    107c:	0e5723ac 	cdpeq	3, 5, cr2, cr7, cr12, {5}
    1080:	e240ff41 	sub	pc, r0, #260	; 0x104
    1084:	3b4c0386 	blcc	1301ea4 <memset+0x12fab30>
    1088:	630c6d22 	movwvs	r6, #52514	; 0xcd22
    108c:	726e4192 	rsbvc	r4, lr, #-2147483612	; 0x80000024
    1090:	67d67cde 			; <UNDEFINED> instruction: 0x67d67cde
    1094:	98cd7073 	stmials	sp, {r0, r1, r4, r5, r6, ip, sp, lr}^
    1098:	577a6a41 	ldrbpl	r6, [sl, -r1, asr #20]!
    109c:	cf701c94 	svcgt	0x00701c94
    10a0:	4754fd74 			; <UNDEFINED> instruction: 0x4754fd74
    10a4:	acf808d0 	ldclge	8, cr0, [r8], #832	; 0x340
    10a8:	8259660e 	subshi	r6, r9, #14680064	; 0xe00000
    10ac:	e929b5a7 	stmdb	r9!, {r0, r1, r2, r5, r7, r8, sl, ip, sp, pc}
    10b0:	888b0bf9 	stmhi	fp, {r0, r3, r4, r5, r6, r7, r8, r9, fp}
    10b4:	444f3bad 	strbmi	r3, [pc], #-2989	; 10bc <data_tnt_config_+0xfa4>
    10b8:	7e49e5c7 	cdpvc	5, 4, cr14, cr9, cr7, {6}
    10bc:	0e7c3063 	cdpeq	0, 7, cr3, cr12, cr3, {3}
    10c0:	7e2924d7 	mcrvc	4, 1, r2, cr9, cr7, {6}
    10c4:	477e3edf 			; <UNDEFINED> instruction: 0x477e3edf
    10c8:	cf692ed6 	svcgt	0x00692ed6
    10cc:	23452798 	movtcs	r2, #22424	; 0x5798
    10d0:	6863d475 	stmdavs	r3!, {r0, r2, r4, r5, r6, sl, ip, lr, pc}^
    10d4:	a5e8c68d 	strbge	ip, [r8, #1677]!	; 0x68d
    10d8:	8daad522 	cfstr32hi	mvfx13, [sl, #136]!	; 0x88
    10dc:	a943e5d6 	stmdbge	r3, {r1, r2, r4, r6, r7, r8, sl, sp, lr, pc}^
    10e0:	175a8fe6 	ldrbne	r8, [sl, -r6, ror #31]
    10e4:	e6e44f84 	strbt	r4, [r4], r4, lsl #31
    10e8:	53244f85 			; <UNDEFINED> instruction: 0x53244f85
    10ec:	0320cf84 			; <UNDEFINED> instruction: 0x0320cf84
    10f0:	d9a60cfe 	stmible	r6!, {r1, r2, r3, r4, r5, r6, r7, sl, fp}
    10f4:	d26dc7f2 	rsble	ip, sp, #63438848	; 0x3c80000
    10f8:	a3e363e6 	mvnge	r6, #-1744830461	; 0x98000003
    10fc:	cfc0fd2e 	svcgt	0x00c0fd2e
    1100:	ec91711b 	ldfs	f7, [r1], {27}
    1104:	0f628e09 	svceq	0x00628e09
    1108:	f71b1ec5 			; <UNDEFINED> instruction: 0xf71b1ec5
    110c:	8d600542 	cfstr64hi	mvdx0, [r0, #-264]!	; 0xfffffef8
    1110:	96692be3 	strbtls	r2, [r9], -r3, ror #23
    1114:	e531d6f0 	ldr	sp, [r1, #-1776]!	; 0xfffff910
    1118:	dd10cb8d 	vldrle	d12, [r0, #-564]	; 0xfffffdcc
    111c:	425051c7 	subsmi	r5, r0, #-1073741775	; 0xc0000031
    1120:	5aee0342 	bpl	ffb81e30 <memset+0xffb7aabc>
    1124:	feae1cc0 	cdp2	12, 10, cr1, cr14, cr0, {6}
    1128:	f648120c 			; <UNDEFINED> instruction: 0xf648120c
    112c:	1a968c00 	bne	fe5a4134 <memset+0xfe59cdc0>
    1130:	20935b52 	addscs	r5, r3, r2, asr fp
    1134:	c6aa032e 	strtgt	r0, [sl], lr, lsr #6
    1138:	7fe53fc8 	svcvc	0x00e53fc8
    113c:	470a5f20 	strmi	r5, [sl, -r0, lsr #30]
    1140:	6190d958 	orrsvs	sp, r0, r8, asr r9
    1144:	11493aaa 	smlaltbne	r3, r9, sl, sl
    1148:	bada71f5 	blt	ff69d924 <memset+0xff6965b0>
    114c:	310ac336 	tstcc	sl, r6, lsr r3
    1150:	c937562a 	ldmdbgt	r7!, {r1, r3, r5, r9, sl, ip, lr}
    1154:	ffdfee49 			; <UNDEFINED> instruction: 0xffdfee49
    1158:	063c2cc2 	ldrteq	r2, [ip], -r2, asr #25
    115c:	90cce866 	sbcls	lr, ip, r6, ror #16
    1160:	c1c5cf3b 	bicgt	ip, r5, fp, lsr pc
    1164:	abc11e1d 	blge	ff0489e0 <memset+0xff04166c>
    1168:	45503edc 	ldrbmi	r3, [r0, #-3804]	; 0xfffff124
    116c:	3a401b9f 	bcc	1007ff0 <memset+0x1000c7c>
    1170:	62aea5e3 	adcvs	sl, lr, #952107008	; 0x38c00000
    1174:	b4118820 	ldrlt	r8, [r1], #-2080	; 0xfffff7e0
    1178:	1c5782e1 	lfmne	f0, 3, [r7], {225}	; 0xe1
    117c:	4cf0e82a 	ldclmi	8, cr14, [r0], #168	; 0xa8
    1180:	764a687c 			; <UNDEFINED> instruction: 0x764a687c
    1184:	0c6629b2 			; <UNDEFINED> instruction: 0x0c6629b2
    1188:	1cf4ff24 	ldclne	15, cr15, [r4], #144	; 0x90
    118c:	8327e5cc 			; <UNDEFINED> instruction: 0x8327e5cc
    1190:	804e5db7 	strhhi	r5, [lr], #-215	; 0xffffff29
    1194:	6f10f8cb 	svcvs	0x0010f8cb
    1198:	2e0f791e 			; <UNDEFINED> instruction: 0x2e0f791e
    119c:	de13d48f 	cdple	4, 1, cr13, cr3, cr15, {4}
    11a0:	cbce5144 	blgt	ff3956b8 <memset+0xff38e344>
    11a4:	5f844e52 	svcpl	0x00844e52
    11a8:	728dab2e 	addvc	sl, sp, #47104	; 0xb800
    11ac:	a9bd54ad 	ldmibge	sp!, {r0, r2, r3, r5, r7, sl, ip, lr}
    11b0:	9d48cfd4 	stclls	15, cr12, [r8, #-848]	; 0xfffffcb0
    11b4:	50c1e5fd 	strdpl	lr, [r1], #93	; 0x5d
    11b8:	f71191d0 			; <UNDEFINED> instruction: 0xf71191d0
    11bc:	102a571d 	eorne	r5, sl, sp, lsl r7
    11c0:	de861110 	mcrle	1, 4, r1, cr6, cr0, {0}
    11c4:	c2dc2196 	sbcsgt	r2, ip, #-2147483611	; 0x80000025
    11c8:	37549b1e 	smmlacc	r4, lr, fp, r9
    11cc:	cfa335c8 	svcgt	0x00a335c8
    11d0:	f0f19023 			; <UNDEFINED> instruction: 0xf0f19023
    11d4:	12bd5ef5 	adcsne	r5, sp, #3920	; 0xf50
    11d8:	b9a520e9 	stmiblt	r5!, {r0, r3, r5, r6, r7, sp}
    11dc:	4ee48da4 	cdpmi	13, 14, cr8, cr4, cr4, {5}
    11e0:	aa9f804b 	bge	fe7e1314 <memset+0xfe7d9fa0>
    11e4:	d437dab5 	ldrtle	sp, [r7], #-2741	; 0xfffff54b
    11e8:	170d8919 	smladne	sp, r9, r9, r8
    11ec:	1fc4478a 	svcne	0x00c4478a
    11f0:	b5a61e3a 	strlt	r1, [r6, #3642]!	; 0xe3a
    11f4:	f71192ec 			; <UNDEFINED> instruction: 0xf71192ec
    11f8:	43e1226c 	mvnmi	r2, #108, 4	; 0xc0000006
    11fc:	4043a23e 	submi	sl, r3, lr, lsr r2
    1200:	79d869f0 	ldmibvc	r8, {r4, r5, r6, r7, r8, fp, sp, lr}^
    1204:	a2a3d64c 	adcge	sp, r3, #76, 12	; 0x4c00000
    1208:	f220a227 	vhsub.s32	d10, d0, d23
    120c:	be4b864b 	cdplt	6, 4, cr8, cr11, cr11, {2}
    1210:	d030ee4d 	eorsle	lr, r0, sp, asr #28
    1214:	afe0f074 	svcge	0x00e0f074
    1218:	6f788a5e 	svcvs	0x00788a5e
    121c:	b7ab1eee 	strlt	r1, [fp, lr, ror #29]!
    1220:	71cf03ef 	bicvc	r0, pc, pc, ror #7
    1224:	7c2691b5 	stfvcd	f1, [r6], #-724	; 0xfffffd2c
    1228:	177f8131 			; <UNDEFINED> instruction: 0x177f8131
    122c:	abb9ec10 	blge	fee7c274 <memset+0xfee74f00>
    1230:	769b6e1b 			; <UNDEFINED> instruction: 0x769b6e1b
    1234:	dda5809e 	stcle	0, cr8, [r5, #632]!	; 0x278
    1238:	48004b51 	stmdami	r0, {r0, r4, r6, r8, r9, fp, lr}
    123c:	4f143fac 	svcmi	0x00143fac
    1240:	8a4545aa 	bhi	11528f0 <memset+0x114b57c>
    1244:	e93f376e 	ldmdb	pc!, {r1, r2, r3, r5, r6, r8, r9, sl, ip, sp}	; <UNPREDICTABLE>
    1248:	18b6e8e3 	ldmne	r6!, {r0, r1, r5, r6, r7, fp, sp, lr, pc}
    124c:	d716b953 			; <UNDEFINED> instruction: 0xd716b953
    1250:	7923a061 	stmdbvc	r3!, {r0, r5, r6, sp, pc}
    1254:	25fc3b0f 	ldrbcs	r3, [ip, #2831]!	; 0xb0f
    1258:	294cb158 	stmdbcs	ip, {r3, r4, r6, r8, ip, sp, pc}^
    125c:	65be9a48 	ldrvs	r9, [lr, #2632]!	; 0xa48
    1260:	a76265af 	strbge	r6, [r2, -pc, lsr #11]!
    1264:	2f35ad59 	svccs	0x0035ad59
    1268:	200fe54a 	andcs	lr, pc, sl, asr #10
    126c:	5b9f9b92 	blpl	fe7e80bc <memset+0xfe7e0d48>
    1270:	b5f7dba5 	ldrblt	sp, [r7, #2981]!	; 0xba5
    1274:	53a6ceca 			; <UNDEFINED> instruction: 0x53a6ceca
    1278:	458daa28 	strmi	sl, [sp, #2600]	; 0xa28
    127c:	24751612 	ldrbtcs	r1, [r5], #-1554	; 0xfffff9ee
    1280:	7c14e402 	cfldrsvc	mvf14, [r4], {2}
    1284:	83896a0a 	orrhi	r6, r9, #40960	; 0xa000
    1288:	549e06cf 	ldrpl	r0, [lr], #1743	; 0x6cf
    128c:	73e0a9f0 	mvnvc	sl, #240, 18	; 0x3c0000
    1290:	707019e3 	rsbsvc	r1, r0, r3, ror #19
    1294:	bee61134 	mcrlt	1, 7, r1, cr6, cr4, {1}
    1298:	13071211 	movwne	r1, #29201	; 0x7211
    129c:	032580df 			; <UNDEFINED> instruction: 0x032580df
    12a0:	cb31a2a6 	blgt	c69d40 <memset+0xc629cc>
    12a4:	4bec1eb5 	blmi	ffb08d80 <memset+0xffb01a0c>
    12a8:	d5160c07 	ldrle	r0, [r6, #-3079]	; 0xfffff3f9
    12ac:	0d54047c 	cfldrdeq	mvd0, [r4, #-496]	; 0xfffffe10
    12b0:	1c8eec1d 	stcne	12, cr14, [lr], {29}
    12b4:	ac082974 			; <UNDEFINED> instruction: 0xac082974
    12b8:	cf85f6c0 	svcgt	0x0085f6c0
    12bc:	0688cda9 	streq	ip, [r8], r9, lsr #27
    12c0:	dcd9839d 	ldclle	3, cr8, [r9], {157}	; 0x9d
    12c4:	be1d5e73 	mrclt	14, 0, r5, cr13, cr3, {3}
    12c8:	ee36e600 	cfmsuba32	mvax0, mvax14, mvfx6, mvfx0
    12cc:	48baf12b 	ldmmi	sl!, {r0, r1, r3, r5, r8, ip, sp, lr, pc}
    12d0:	a5fcee61 	ldrbge	lr, [ip, #3681]!	; 0xe61
    12d4:	5faba774 	svcpl	0x00aba774
    12d8:	751a974a 	ldrvc	r9, [sl, #-1866]	; 0xfffff8b6
    12dc:	e077ceb3 	ldrht	ip, [r7], #-227	; 0xffffff1d
    12e0:	4eb214ee 	cdpmi	4, 11, cr1, cr2, cr14, {7}
    12e4:	bfac6ee2 	svclt	0x00ac6ee2
    12e8:	055bb428 	ldrbeq	fp, [fp, #-1064]	; 0xfffffbd8
    12ec:	37760abb 			; <UNDEFINED> instruction: 0x37760abb
    12f0:	28c75aae 	stmiacs	r7, {r1, r2, r3, r5, r7, r9, fp, ip, lr}^
    12f4:	c45dba1a 	ldrbgt	fp, [sp], #-2586	; 0xfffff5e6
    12f8:	22e10cbe 	rsccs	r0, r1, #48640	; 0xbe00
    12fc:	19768778 	ldmdbne	r6!, {r3, r4, r5, r6, r8, r9, sl, pc}^
    1300:	f5710994 			; <UNDEFINED> instruction: 0xf5710994
    1304:	c4b09020 	ldrtgt	r9, [r0], #32
    1308:	dbb07aa6 	blle	fec1fda8 <memset+0xfec18a34>
    130c:	df6bc082 	svcle	0x006bc082
    1310:	a9c6237d 	stmibge	r6, {r0, r2, r3, r4, r5, r6, r8, r9, sp}^
    1314:	d204ef18 	andle	lr, r4, #24, 30	; 0x60
    1318:	0d488077 	stcleq	0, cr8, [r8, #-476]	; 0xfffffe24
    131c:	d2ac57a3 	adcle	r5, ip, #42729472	; 0x28c0000
    1320:	5c04c9c1 			; <UNDEFINED> instruction: 0x5c04c9c1
    1324:	fca87ce1 	vusmmla.s8	<illegal reg q3.5>, q12, <illegal reg q8.5>
    1328:	dae7db2c 	ble	ff9f7fe0 <memset+0xff9f0c6c>
    132c:	e974fb2f 	ldmdb	r4!, {r0, r1, r2, r3, r5, r8, r9, fp, ip, sp, lr, pc}^
    1330:	7b49c60f 	blvc	1272b74 <memset+0x126b800>
    1334:	e3aad624 			; <UNDEFINED> instruction: 0xe3aad624
    1338:	076f83f7 			; <UNDEFINED> instruction: 0x076f83f7
    133c:	6ef3fa90 	mrcvs	10, 7, APSR_nzcv, cr3, cr0, {4}
    1340:	91ff43a5 	mvnsls	r4, r5, lsr #7
    1344:	3977e0be 	ldmdbcc	r7!, {r1, r2, r3, r4, r5, r7, sp, lr, pc}^
    1348:	b79ec6a6 	ldrlt	ip, [lr, r6, lsr #13]
    134c:	ceccfb55 			; <UNDEFINED> instruction: 0xceccfb55
    1350:	12fd0dc8 	rscsne	r0, sp, #200, 26	; 0x3200
    1354:	b62269d5 			; <UNDEFINED> instruction: 0xb62269d5
    1358:	28d2b1e3 	ldmcs	r2, {r0, r1, r5, r6, r7, r8, ip, sp, pc}^
    135c:	aefbb4a3 	cdpge	4, 15, cr11, cr11, cr3, {5}
    1360:	fa71ff46 	blx	1c81080 <memset+0x1c79d0c>
    1364:	7b5baaf3 	blvc	16ebf38 <memset+0x16e4bc4>
    1368:	ba2d7df4 	blt	b60b40 <memset+0xb597cc>
    136c:	5e8a6bbd 	vduppl.16	d26, r6
    1370:	aee56af2 			; <UNDEFINED> instruction: 0xaee56af2
    1374:	9da33ac7 			; <UNDEFINED> instruction: 0x9da33ac7
    1378:	7843f63e 	stmdavc	r3, {r1, r2, r3, r4, r5, r9, sl, ip, sp, lr, pc}^
    137c:	44dbe8e8 	ldrbmi	lr, [fp], #2280	; 0x8e8
    1380:	39e5a81f 	stmibcc	r5!, {r0, r1, r2, r3, r4, fp, sp, pc}^
    1384:	8d9b54e2 	cfldrshi	mvf5, [fp, #904]	; 0x388
    1388:	df7da9b8 	svcle	0x007da9b8
    138c:	738ba013 	orrvc	sl, fp, #19
    1390:	4a078de5 	bmi	1e4b2c <memset+0x1dd7b8>
    1394:	f8ad2111 			; <UNDEFINED> instruction: 0xf8ad2111
    1398:	342491e5 	strtcc	r9, [r4], #-485	; 0xfffffe1b
    139c:	79edb71d 	stmibvc	sp!, {r0, r2, r3, r4, r8, r9, sl, ip, sp, pc}^
    13a0:	2944fc70 	stmdbcs	r4, {r4, r5, r6, sl, fp, ip, sp, lr, pc}^
    13a4:	021f264f 	andseq	r2, pc, #82837504	; 0x4f00000
    13a8:	6e44f4da 	mcrvs	4, 2, pc, cr4, cr10, {6}	; <UNPREDICTABLE>
    13ac:	67d18314 	bfivs	r8, r4, #6, #12
    13b0:	0e9d7c26 	cdpeq	12, 9, cr7, cr13, cr6, {1}
    13b4:	20972433 	addscs	r2, r7, r3, lsr r4
    13b8:	0f9cdb13 	svceq	0x009cdb13
    13bc:	c2688704 	rsbgt	r8, r8, #4, 14	; 0x100000
    13c0:	bb5992c3 	bllt	1665ed4 <memset+0x165eb60>
    13c4:	d24273cb 	suble	r7, r2, #738197507	; 0x2c000003
    13c8:	8c62556f 	cfstr64hi	mvdx5, [r2], #-444	; 0xfffffe44
    13cc:	28f932fc 	ldmcs	r9!, {r2, r3, r4, r5, r6, r7, r9, ip, sp}^
    13d0:	73e5a237 	mvnvc	sl, #1879048195	; 0x70000003
    13d4:	c9c1b729 	stmibgt	r1, {r0, r3, r5, r8, r9, sl, ip, sp, pc}^
    13d8:	66435ebc 			; <UNDEFINED> instruction: 0x66435ebc
    13dc:	f2976f8c 			; <UNDEFINED> instruction: 0xf2976f8c
    13e0:	f031a993 			; <UNDEFINED> instruction: 0xf031a993
    13e4:	31a932c8 			; <UNDEFINED> instruction: 0x31a932c8
    13e8:	640ca744 	strvs	sl, [ip], #-1860	; 0xfffff8bc
    13ec:	fdfa9a91 	ldc2l	10, cr9, [sl, #580]!	; 0x244	; <UNPREDICTABLE>
    13f0:	603d55e1 	eorsvs	r5, sp, r1, ror #11
    13f4:	2bf4cf60 	blcs	ffd3517c <memset+0xffd2de08>
    13f8:	bd48d9c6 	vstrlt.16	s27, [r8, #-396]	; 0xfffffe74	; <UNPREDICTABLE>
    13fc:	cd96da3b 	vldrgt	s26, [r6, #236]	; 0xec
    1400:	6ac9842c 	bvs	ff2624b8 <memset+0xff25b144>
    1404:	81a48d9e 			; <UNDEFINED> instruction: 0x81a48d9e
    1408:	523a4e66 	eorspl	r4, sl, #1632	; 0x660
    140c:	696e07fb 	stmdbvs	lr!, {r0, r1, r3, r4, r5, r6, r7, r8, r9, sl}^
    1410:	0feb1552 	svceq	0x00eb1552
    1414:	2a2ec8ec 	bcs	bb37cc <memset+0xbac458>
    1418:	ab7254ee 	blge	1c967d8 <memset+0x1c8f464>
    141c:	43789876 	cmnmi	r8, #7733248	; 0x760000
    1420:	10a10f74 	adcne	r0, r1, r4, ror pc
    1424:	67868d31 			; <UNDEFINED> instruction: 0x67868d31
    1428:	d85a948b 	ldmdale	sl, {r0, r1, r3, r7, sl, ip, pc}^
    142c:	0cc26c25 	stcleq	12, cr6, [r2], {37}	; 0x25
    1430:	61b8e074 			; <UNDEFINED> instruction: 0x61b8e074
    1434:	b03eaefc 	ldrshtlt	sl, [lr], -ip
    1438:	a2e8e3b8 	rscge	lr, r8, #184, 6	; 0xe0000002
    143c:	efaa2e12 	svc	0x00aa2e12
    1440:	3657fa99 			; <UNDEFINED> instruction: 0x3657fa99
    1444:	c0ece575 	rscgt	lr, ip, r5, ror r5
    1448:	dcabdd20 	stcle	13, cr13, [fp], #128	; 0x80
    144c:	c5b9c121 	ldrgt	ip, [r9, #289]!	; 0x121
    1450:	60b4b1b6 	ldrhtvs	fp, [r4], r6
    1454:	bc5b62a0 	lfmlt	f6, 2, [fp], {160}	; 0xa0
    1458:	09588233 	ldmdbeq	r8, {r0, r1, r4, r5, r9, pc}^
    145c:	1d01c563 	cfstr32ne	mvfx12, [r1, #-396]	; 0xfffffe74
    1460:	f87a1989 			; <UNDEFINED> instruction: 0xf87a1989
    1464:	3a3a8cdc 	bcc	ea47dc <memset+0xe9d468>
    1468:	9a7818c6 	bls	1e07788 <memset+0x1e00414>
    146c:	25d4e4f8 	ldrbcs	lr, [r4, #1272]	; 0x4f8
    1470:	9fc0a87d 	svcls	0x00c0a87d
    1474:	a4ff5ce5 	ldrbtge	r5, [pc], #3301	; 147c <data_tnt_config_+0x1364>
    1478:	6a1388a5 	bvs	4e3714 <memset+0x4dc3a0>
    147c:	d7225e7e 			; <UNDEFINED> instruction: 0xd7225e7e
    1480:	d7262e4a 	strle	r2, [r6, -sl, asr #28]!
    1484:	8c153c4a 	ldchi	12, cr3, [r5], {74}	; 0x4a
    1488:	67fd3dbd 			; <UNDEFINED> instruction: 0x67fd3dbd
    148c:	68a94535 	stmiavs	r9!, {r0, r2, r4, r5, r8, sl, lr}
    1490:	28a7b761 	stmiacs	r7!, {r0, r5, r6, r8, r9, sl, ip, sp, pc}
    1494:	067bb1af 	ldrbteq	fp, [fp], -pc, lsr #3
    1498:	665f1179 			; <UNDEFINED> instruction: 0x665f1179
    149c:	51faf292 			; <UNDEFINED> instruction: 0x51faf292
    14a0:	6bae514d 	blvs	feb959dc <memset+0xfeb8e668>
    14a4:	16f5f28a 	ldrbtne	pc, [r5], sl, lsl #5	; <UNPREDICTABLE>
    14a8:	c2ce514d 	sbcgt	r5, lr, #1073741843	; 0x40000013
    14ac:	aa7404e3 	bge	1d02840 <memset+0x1cfb4cc>
    14b0:	9d0549e9 	vstrls.16	s8, [r5, #-466]	; 0xfffffe2e	; <UNPREDICTABLE>
    14b4:	393d387b 	ldmdbcc	sp!, {r0, r1, r3, r4, r5, r6, fp, ip, sp}
    14b8:	315ba801 	cmpcc	fp, r1, lsl #16
    14bc:	ab780941 	blge	1e039c8 <memset+0x1dfc654>
    14c0:	36d727a6 	ldrbcc	r2, [r7], r6, lsr #15
    14c4:	aadf993d 	bge	ff7e79c0 <memset+0xff7e064c>
    14c8:	5c59c9e9 	mrrcpl	9, 14, ip, r9, cr9	; <UNPREDICTABLE>
    14cc:	6c6e628d 	sfmvs	f6, 2, [lr], #-564	; 0xfffffdcc
    14d0:	11099936 	tstne	r9, r6, lsr r9
    14d4:	29074c10 	stmdbcs	r7, {r4, sl, fp, lr}
    14d8:	bbf055f8 	bllt	ffc16cc0 <memset+0xffc0f94c>
    14dc:	b09df869 	addslt	pc, sp, r9, ror #16
    14e0:	544d55cc 	strbpl	r5, [sp], #-1484	; 0xfffffa34
    14e4:	7300333e 	movwvc	r3, #830	; 0x33e
    14e8:	3e8090e9 	cdpcc	0, 8, cr9, cr0, cr9, {7}
    14ec:	64e8bb68 	strbtvs	fp, [r8], #2920	; 0xb68
    14f0:	e448cc3e 	strb	ip, [r8], #-3134	; 0xfffff3c2
    14f4:	8738d20e 	ldrhi	sp, [r8, -lr, lsl #4]!
    14f8:	0fda01b5 	svceq	0x00da01b5
    14fc:	d0d78030 	sbcsle	r8, r7, r0, lsr r0
    1500:	1e7a309f 	mrcne	0, 3, r3, cr10, cr15, {4}
    1504:	1eec01ae 	cdpne	1, 14, cr0, cr12, cr14, {5}
    1508:	1324cbef 			; <UNDEFINED> instruction: 0x1324cbef
    150c:	09f4da91 	ldmibeq	r4!, {r0, r4, r7, r9, fp, ip, lr, pc}^
    1510:	74f41fb1 	ldrbtvc	r1, [r4], #4017	; 0xfb1
    1514:	0b0f0b8f 	bleq	3c4358 <memset+0x3bcfe4>
    1518:	f47d9a1f 			; <UNDEFINED> instruction: 0xf47d9a1f
    151c:	0f998880 	svceq	0x00998880
    1520:	5c0ff45c 	cfstrspl	mvf15, [pc], {92}	; 0x5c
    1524:	1eccbae1 			; <UNDEFINED> instruction: 0x1eccbae1
    1528:	8387111d 	orrhi	r1, r7, #1073741831	; 0x40000007
    152c:	8603e959 			; <UNDEFINED> instruction: 0x8603e959
    1530:	91f416ce 	mvnsls	r1, lr, asr #13
    1534:	26e17963 	strbtcs	r7, [r1], r3, ror #18
    1538:	59ae3177 	stmibpl	lr!, {r0, r1, r2, r4, r5, r6, r8, ip, sp}
    153c:	1c8f69b3 			; <UNDEFINED> instruction: 0x1c8f69b3
    1540:	0189f4b8 			; <UNDEFINED> instruction: 0x0189f4b8
    1544:	35d8784f 	ldrbcc	r7, [r8, #2127]	; 0x84f
    1548:	d369a95e 	cmnle	r9, #1540096	; 0x178000
    154c:	f856daed 			; <UNDEFINED> instruction: 0xf856daed
    1550:	247c5324 	ldrbtcs	r5, [ip], #-804	; 0xfffffcdc
    1554:	ae3291bf 	mrcge	1, 1, r9, cr2, cr15, {5}
    1558:	5ae32877 	bpl	ff8cb73c <memset+0xff8c43c8>
    155c:	67a07237 			; <UNDEFINED> instruction: 0x67a07237
    1560:	98a64658 	stmials	r6!, {r3, r4, r6, r9, sl, lr}
    1564:	6753f925 	ldrbvs	pc, [r3, -r5, lsr #18]	; <UNPREDICTABLE>
    1568:	a2fdadfc 	rscsge	sl, sp, #252, 26	; 0x3f00
    156c:	96f253f9 			; <UNDEFINED> instruction: 0x96f253f9
    1570:	39927efc 	ldmibcc	r2, {r2, r3, r4, r5, r6, r7, r9, sl, fp, ip, sp, lr}
    1574:	b97c3c7d 	ldmdblt	ip!, {r0, r2, r3, r4, r5, r6, sl, fp, ip, sp}^
    1578:	c7eb8c49 	strbgt	r8, [fp, r9, asr #24]!
    157c:	eb52dddd 	bl	14b8cf8 <memset+0x14b1984>
    1580:	1f199b74 	svcne	0x00199b74
    1584:	f7eae43f 			; <UNDEFINED> instruction: 0xf7eae43f
    1588:	56fc7ad4 	usatpl	r7, #28, r4, asr #21
    158c:	f5479fc2 			; <UNDEFINED> instruction: 0xf5479fc2
    1590:	294cf286 	stmdbcs	ip, {r1, r2, r7, r9, ip, sp, lr, pc}^
    1594:	cf71df7e 	svcgt	0x0071df7e
    1598:	5f0f8d54 	svcpl	0x000f8d54
    159c:	535531d8 	cmppl	r5, #216, 2	; 0x36
    15a0:	39b5a98e 	ldmibcc	r5!, {r1, r2, r3, r7, r8, fp, sp, pc}
    15a4:	2db9f2a6 	lfmcs	f7, 1, [r9, #664]!	; 0x298
    15a8:	09194cf2 	ldmdbeq	r9, {r1, r4, r5, r6, r7, sl, fp, lr}
    15ac:	7943299e 	stmdbvc	r3, {r1, r2, r3, r4, r7, r8, fp, sp}^
    15b0:	ee7414a6 	cdp	4, 7, cr1, cr4, cr6, {5}
    15b4:	0a2a67a5 	beq	a9b450 <memset+0xa940dc>
    15b8:	d4a1e3a8 	strtle	lr, [r1], #936	; 0x3a8
    15bc:	35539d86 	ldrbcc	r9, [r3, #-3462]	; 0xfffff27a
    15c0:	61fa9ce5 	mvnsvs	r9, r5, ror #25
    15c4:	8246539c 	subhi	r5, r6, #156, 6	; 0x70000002
    15c8:	7588ca73 	strvc	ip, [r8, #2675]	; 0xa73
    15cc:	00e84d4e 	rsceq	r4, r8, lr, asr #26
    15d0:	00529be5 	subseq	r9, r2, r5, ror #23
    15d4:	3c002dbc 	stccc	13, cr2, [r0], {188}	; 0xbc
    15d8:	e3574f1f 	cmp	r7, #31, 30	; 0x7c
    15dc:	f441529a 	vst1.32	{d21-d24}, [r1 :64], sl
    15e0:	2a0de2bb 	bcs	37a0d4 <memset+0x372d60>
    15e4:	bd697266 	sfmlt	f7, 2, [r9, #-408]!	; 0xfffffe68
    15e8:	e1517e41 	cmp	r1, r1, asr #28
    15ec:	f7893a0d 			; <UNDEFINED> instruction: 0xf7893a0d
    15f0:	57e96d05 	strbpl	r6, [r9, r5, lsl #26]!
    15f4:	7b317c4d 	blvc	c60730 <memset+0xc593bc>
    15f8:	06e2959c 	usateq	r9, #2, ip, lsl #11
    15fc:	7522b17d 	strvc	fp, [r2, #-381]!	; 0xfffffe83
    1600:	10c6c883 	sbcne	ip, r6, r3, lsl #17
    1604:	48b2f8f4 	ldmmi	r2!, {r2, r4, r5, r6, r7, fp, ip, sp, lr, pc}
    1608:	50d98bef 	sbcspl	r8, r9, pc, ror #23
    160c:	6484576c 	strvs	r5, [r4], #1900	; 0x76c
    1610:	7effe057 	mrcvc	0, 7, lr, cr15, cr7, {2}
    1614:	d5f2c3ea 	ldrble	ip, [r2, #1002]!	; 0x3ea
    1618:	122c727b 	eorne	r7, ip, #-1342177273	; 0xb0000007
    161c:	8802621c 	stmdahi	r2, {r2, r3, r4, r9, sp, lr}
    1620:	3664ccf7 			; <UNDEFINED> instruction: 0x3664ccf7
    1624:	fc472235 	mcrr2	2, 3, r2, r7, cr5
    1628:	b5090e3a 	strlt	r0, [r9, #-3642]	; 0xfffff1c6
    162c:	0ca33627 	stceq	6, cr3, [r3], #156	; 0x9c
    1630:	a915e451 	ldmdbge	r5, {r0, r4, r6, sl, sp, lr, pc}
    1634:	5e83863d 	mcrpl	6, 4, r8, cr3, cr13, {1}
    1638:	403c8702 	eorsmi	r8, ip, r2, lsl #14
    163c:	9e659016 	mcrls	0, 3, r9, cr5, cr6, {0}
    1640:	089a44c3 	ldmeq	sl, {r0, r1, r6, r7, sl, lr}
    1644:	f576a98c 			; <UNDEFINED> instruction: 0xf576a98c
    1648:	3b61708e 	blcc	185d888 <memset+0x1856514>
    164c:	ad892af0 	vstrge	s4, [r9, #960]	; 0x3c0
    1650:	83a7890b 			; <UNDEFINED> instruction: 0x83a7890b
    1654:	c53a6a71 	ldrgt	r6, [sl, #-2673]!	; 0xfffff58f
    1658:	08472f3c 	stmdaeq	r7, {r2, r3, r4, r5, r8, r9, sl, fp, sp}^
    165c:	b40c86db 	strlt	r8, [ip], #-1755	; 0xfffff925
    1660:	33b36c9b 			; <UNDEFINED> instruction: 0x33b36c9b
    1664:	650342b7 	strvs	r4, [r3, #-695]	; 0xfffffd49
    1668:	c39edc20 	orrsgt	sp, lr, #32, 24	; 0x2000
    166c:	15180ce3 	ldrne	r0, [r8, #-3299]	; 0xfffff31d
    1670:	5bb50c0f 	blpl	fed446b4 <memset+0xfed3d340>
    1674:	c48cc736 	strgt	ip, [ip], #1846	; 0x736
    1678:	348f8172 	strcc	r8, [pc], #370	; 1680 <data_tnt_config_+0x1568>
    167c:	da2ecce4 	ble	bb4a14 <memset+0xbad6a0>
    1680:	bcefdced 	stcllt	12, cr13, [pc], #948	; 1a3c <data_tnt_config_+0x1924>
    1684:	aa5b565f 	bge	16d7008 <memset+0x16cfc94>
    1688:	6e7d2a7d 			; <UNDEFINED> instruction: 0x6e7d2a7d
    168c:	04057a90 	streq	r7, [r5], #-2704	; 0xfffff570
    1690:	6a49b975 	bvs	126fc6c <memset+0x12688f8>
    1694:	e3c89f77 	bic	r9, r8, #476	; 0x1dc
    1698:	7a59ad5d 	bvc	166cc14 <memset+0x16658a0>
    169c:	dc81215f 	stfles	f2, [r1], {95}	; 0x5f
    16a0:	ee72f57e 	mrc	5, 3, APSR_nzcv, cr2, cr14, {3}
    16a4:	3f729ae7 	svccc	0x00729ae7
    16a8:	9fd347af 	svcls	0x00d347af
    16ac:	d9f38f6c 	ldmible	r3!, {r2, r3, r5, r6, r8, r9, sl, fp, pc}^
    16b0:	b67ceb98 			; <UNDEFINED> instruction: 0xb67ceb98
    16b4:	97c5ee19 	bfils	lr, r9, (invalid: 28:5)
    16b8:	8ba945ec 	blhi	fea52e70 <memset+0xfea4bafc>
    16bc:	6e7fb832 	mrcvs	8, 3, fp, cr15, cr2, {1}
    16c0:	1141530d 	cmpne	r1, sp, lsl #6
    16c4:	a25155e5 	subsge	r5, r1, #960495616	; 0x39400000
    16c8:	57402b7e 	smlsldxpl	r2, r0, lr, fp
    16cc:	5bace218 	blpl	feb39f34 <memset+0xfeb32bc0>
    16d0:	e074da45 	rsbs	sp, r4, r5, asr #20
    16d4:	f45e0158 			; <UNDEFINED> instruction: 0xf45e0158
    16d8:	aed137d3 	mrcge	7, 6, r3, cr1, cr3, {6}
    16dc:	d8fe842b 	ldmle	lr!, {r0, r1, r3, r5, sl, pc}^
    16e0:	44db827f 	ldrbmi	r8, [fp], #639	; 0x27f
    16e4:	7d55548b 	cfldrdvc	mvd5, [r5, #-556]	; 0xfffffdd4
    16e8:	4de6422a 	sfmmi	f4, 2, [r6, #168]!	; 0xa8
    16ec:	781e7a02 	ldmdavc	lr, {r1, r9, fp, ip, sp, lr}
    16f0:	1faf5b5e 	svcne	0x00af5b5e
    16f4:	3e695ea5 	cdpcc	14, 6, cr5, cr9, cr5, {5}
    16f8:	dc776fd4 	ldclle	15, cr6, [r7], #-848	; 0xfffffcb0
    16fc:	6dcf9297 	sfmvs	f1, 3, [pc, #604]	; 1960 <data_tnt_config_+0x1848>
    1700:	6e9ef033 	mrcvs	0, 4, APSR_nzcv, cr14, cr3, {1}
    1704:	3e653395 	mcrcc	3, 3, r3, cr5, cr5, {4}
    1708:	18518eca 	ldmdane	r1, {r1, r3, r6, r7, r9, sl, fp, pc}^
    170c:	74bba713 	ldrtvc	sl, [fp], #1811	; 0x713
    1710:	88730326 	ldmdahi	r3!, {r1, r2, r5, r8, r9}^
    1714:	7cff65b0 	cfldr64vc	mvdx6, [pc], #704	; 19dc <data_tnt_config_+0x18c4>
    1718:	0a4bf5ca 	beq	12fee48 <memset+0x12f7ad4>
    171c:	befa157d 	mrclt	5, 7, r1, cr10, cr13, {3}
    1720:	00e3e240 	rsceq	lr, r3, r0, asr #4
    1724:	1d3edd46 	ldcne	13, cr13, [lr, #-280]!	; 0xfffffee8
    1728:	96a221af 	strtls	r2, [r2], pc, lsr #3
    172c:	482ce865 	stmdami	ip!, {r0, r2, r5, r6, fp, sp, lr, pc}
    1730:	3bf14944 	blcc	ffc53c48 <memset+0xffc4c8d4>
    1734:	679ef574 			; <UNDEFINED> instruction: 0x679ef574
    1738:	8049a58b 	subhi	sl, r9, fp, lsl #11
    173c:	1bc0fa04 	blne	ff03ff54 <memset+0xff038be0>
    1740:	19945488 	ldmibne	r4, {r3, r7, sl, ip, lr}
    1744:	2250fa52 	subscs	pc, r0, #335872	; 0x52000
    1748:	62d988b7 	sbcsvs	r8, r9, #11993088	; 0xb70000
    174c:	0d509b86 	vldreq	d25, [r0, #-536]	; 0xfffffde8
    1750:	04c8da97 	strbeq	sp, [r8], #2711	; 0xa97
    1754:	9b6781c7 	blls	19e1e78 <memset+0x19dab04>
    1758:	6dcc4d0f 	stclvs	13, cr4, [ip, #60]	; 0x3c
    175c:	208390e9 	addcs	r9, r3, r9, ror #1
    1760:	0021ded9 	ldrdeq	sp, [r1], -r9	; <UNPREDICTABLE>
    1764:	956e573a 	strbls	r5, [lr, #-1850]!	; 0xfffff8c6
    1768:	d04dcbed 	suble	ip, sp, sp, ror #23
    176c:	7f54e390 	svcvc	0x0054e390
    1770:	ab18916d 	blge	625d2c <memset+0x61e9b8>
    1774:	a756cc62 	ldrbge	ip, [r6, -r2, ror #24]
    1778:	c35c07c3 	cmpgt	ip, #51118080	; 0x30c0000
    177c:	b67f0fe9 	ldrbtlt	r0, [pc], -r9, ror #31
    1780:	29c8c6c3 	stmibcs	r8, {r0, r1, r6, r7, r9, sl, lr, pc}^
    1784:	8af7a331 	bhi	ffdea450 <memset+0xffde30dc>
    1788:	a0d60154 	sbcsge	r0, r6, r4, asr r1
    178c:	a214c8c3 	andsge	ip, r4, #12779520	; 0xc30000
    1790:	89879bd5 	stmibhi	r7, {r0, r2, r4, r6, r7, r8, r9, fp, ip, pc}
    1794:	81e391f4 	strdhi	r9, [r3, #20]!
    1798:	340cb4af 	strcc	fp, [ip], #-1199	; 0xfffffb51
    179c:	c6cda82a 	strbgt	sl, [sp], sl, lsr #16
    17a0:	990e33c1 	stmdbls	lr, {r0, r6, r7, r8, r9, ip, sp}
    17a4:	89322e99 	ldmdbhi	r2!, {r0, r3, r4, r7, r9, sl, fp, sp}
    17a8:	89e9a80e 	stmibhi	r9!, {r1, r2, r3, fp, sp, pc}^
    17ac:	9630d84c 	ldrtls	sp, [r0], -ip, asr #16
    17b0:	a1609cf7 	strdge	r9, [r0, #-199]!	; 0xffffff39
    17b4:	49f6561b 	ldmibmi	r6!, {r0, r1, r3, r4, r9, sl, ip, lr}^
    17b8:	42f98aff 	rscsmi	r8, r9, #1044480	; 0xff000
    17bc:	1b961dc9 	blne	fe588ee8 <memset+0xfe581b74>
    17c0:	123b0eea 	eorsne	r0, fp, #3744	; 0xea0
    17c4:	a9613a0e 	stmdbge	r1!, {r1, r2, r3, r9, fp, ip, sp}^
    17c8:	6cc58bec 	vstmiavs	r5, {d24-<overflow reg d77>}
    17cc:	3eeee19d 	mcrcc	1, 7, lr, cr14, cr13, {4}
    17d0:	225b9c58 	subscs	r9, fp, #88, 24	; 0x5800
    17d4:	dae86aad 	ble	ffa1c290 <memset+0xffa14f1c>
    17d8:	6ea9fcd3 	mcrvs	12, 5, pc, cr9, cr3, {6}	; <UNPREDICTABLE>
    17dc:	80e2edd6 	ldrdhi	lr, [r2], #214	; 0xd6	; <UNPREDICTABLE>
    17e0:	fdce8e5a 	stc2l	14, cr8, [lr, #360]	; 0x168
    17e4:	bcda3b71 	fldmiaxlt	sl, {d19-d74}	;@ Deprecated
    17e8:	5c17ca30 			; <UNDEFINED> instruction: 0x5c17ca30
    17ec:	1a470ce4 	bne	11c4b84 <memset+0x11bd810>
    17f0:	736dd2cd 	cmnvc	sp, #-805306356	; 0xd000000c
    17f4:	8e5e67cf 	cdphi	7, 5, cr6, cr14, cr15, {6}
    17f8:	2e486f5f 	mcrcs	15, 2, r6, cr8, cr15, {2}
    17fc:	d0b0d6e4 	adcsle	sp, r0, r4, ror #13
    1800:	bc679bf9 			; <UNDEFINED> instruction: 0xbc679bf9
    1804:	acc0d567 	cfstr64ge	mvdx13, [r0], {103}	; 0x67
    1808:	7edc4852 	mrcvc	8, 6, r4, cr12, cr2, {2}
    180c:	a82e4668 	stmdage	lr!, {r3, r5, r6, r9, sl, lr}
    1810:	669487bd 			; <UNDEFINED> instruction: 0x669487bd
    1814:	f26e9258 	vqsub.s32	<illegal reg q12.5>, q7, q4
    1818:	3e6f3585 	cdpcc	5, 6, cr3, cr15, cr5, {4}
    181c:	cde37864 	stclgt	8, cr7, [r3, #400]!	; 0x190
    1820:	9058a487 	subsls	sl, r8, r7, lsl #9
    1824:	e359b8a3 	cmp	r9, #10682368	; 0xa30000
    1828:	9916929d 	ldmdbls	r6, {r0, r2, r3, r4, r7, r9, ip, pc}
    182c:	fe8d4669 	cdp2	6, 8, cr4, cr13, cr9, {3}
    1830:	59c8b6ad 	stmibpl	r8, {r0, r2, r3, r5, r7, r9, sl, ip, sp, pc}^
    1834:	c2ecd311 	rscgt	sp, ip, #1140850688	; 0x44000000
    1838:	dc85392e 			; <UNDEFINED> instruction: 0xdc85392e
    183c:	7393edcb 	orrsvc	lr, r3, #12992	; 0x32c0
    1840:	727dfaba 	rsbsvc	pc, sp, #761856	; 0xba000
    1844:	39fa8116 	ldmibcc	sl!, {r1, r2, r4, r8, pc}^
    1848:	2950343a 	ldmdbcs	r0, {r1, r3, r4, r5, sl, ip, sp}^
    184c:	44e61a61 	strbtmi	r1, [r6], #2657	; 0xa61
    1850:	a2a85d0f 	adcge	r5, r8, #960	; 0x3c0
    1854:	f7289f51 			; <UNDEFINED> instruction: 0xf7289f51
    1858:	adfb029c 	lfmge	f0, 2, [fp, #624]!	; 0x270
    185c:	d0dc5b18 	sbcsle	r5, ip, r8, lsl fp
    1860:	37b4622f 	ldrcc	r6, [r4, pc, lsr #4]!
    1864:	4049f827 	submi	pc, r9, r7, lsr #16
    1868:	98bfda3a 	ldmls	pc!, {r1, r3, r4, r5, r9, fp, ip, lr, pc}	; <UNPREDICTABLE>
    186c:	6e088f82 	cdpvs	15, 0, cr8, cr8, cr2, {4}
    1870:	e7ea5219 			; <UNDEFINED> instruction: 0xe7ea5219
    1874:	80a908be 	strhthi	r0, [r9], lr
    1878:	e0165a9a 	muls	r6, sl, sl
    187c:	bada91f3 	blt	ff6a6050 <memset+0xff69ecdc>
    1880:	35ae4718 	strcc	r4, [lr, #1816]!	; 0x718
    1884:	aef6f4c4 	cdpge	4, 15, cr15, cr6, cr4, {6}
    1888:	52d0c151 	sbcspl	ip, r0, #1073741844	; 0x40000014
    188c:	5caea5cc 	cfstr32pl	mvfx10, [lr], #816	; 0x330
    1890:	a2ee7b74 	rscge	r7, lr, #116, 22	; 0x1d000
    1894:	73d8804b 	bicsvc	r8, r8, #75	; 0x4b
    1898:	173cb4dd 			; <UNDEFINED> instruction: 0x173cb4dd
    189c:	b365b48d 	cmnlt	r5, #-1929379840	; 0x8d000000
    18a0:	d682e801 	strle	lr, [r2], r1, lsl #16
    18a4:	4c8ccc1c 	stcmi	12, cr12, [ip], {28}
    18a8:	d2116092 	andsle	r6, r1, #146	; 0x92
    18ac:	d8c92284 	stmiale	r9, {r2, r7, r9, sp}^
    18b0:	57b0a27b 			; <UNDEFINED> instruction: 0x57b0a27b
    18b4:	a7faef61 	ldrbge	lr, [sl, r1, ror #30]!
    18b8:	8e819846 	cdphi	8, 8, cr9, cr1, cr6, {2}
    18bc:	5688be8b 	strpl	fp, [r8], fp, lsl #29
    18c0:	f01a4460 			; <UNDEFINED> instruction: 0xf01a4460
    18c4:	906722af 	rsbls	r2, r7, pc, lsr #5
    18c8:	8d999ece 	ldchi	14, cr9, [r9, #824]	; 0x338
    18cc:	3c0ccc9b 	stccc	12, cr12, [ip], {155}	; 0x9b
    18d0:	3600ef53 			; <UNDEFINED> instruction: 0x3600ef53
    18d4:	17c7623b 			; <UNDEFINED> instruction: 0x17c7623b
    18d8:	e0eff399 	smlal	pc, pc, r9, r3	; <UNPREDICTABLE>
    18dc:	4028541e 	eormi	r5, r8, lr, lsl r4
    18e0:	dea943ed 	cdple	3, 10, cr4, cr9, cr13, {7}
    18e4:	db4bd154 	blle	12f5e3c <memset+0x12eeac8>
    18e8:	239366e4 	orrscs	r6, r3, #228, 12	; 0xe400000
    18ec:	c2660093 	rsbgt	r0, r6, #147	; 0x93
    18f0:	1b60b4d0 	blne	182ec38 <memset+0x18278c4>
    18f4:	e05ba816 	subs	sl, fp, r6, lsl r8
    18f8:	33e93015 	mvncc	r3, #21
    18fc:	381c9b06 	ldmdacc	ip, {r1, r2, r8, r9, fp, ip, pc}
    1900:	8ae4ee1e 	bhi	ff93d180 <memset+0xff935e0c>
    1904:	2df822d1 	lfmcs	f2, 2, [r8, #836]!	; 0x344
    1908:	2b5df8b3 	blcs	177fbdc <memset+0x1778868>
    190c:	b15213ce 	cmplt	r2, lr, asr #7
    1910:	57c38634 			; <UNDEFINED> instruction: 0x57c38634
    1914:	ee15daa4 	vnmls.f32	s26, s11, s9
    1918:	eaae313a 	b	feb8de08 <memset+0xfeb86a94>
    191c:	4748ce20 	strbmi	ip, [r8, -r0, lsr #28]
    1920:	c0ca7e1c 	sbcgt	r7, sl, ip, lsl lr
    1924:	296506fb 	stmdbcs	r5!, {r0, r1, r3, r4, r5, r6, r7, r9, sl}^
    1928:	c874782e 	ldmdagt	r4!, {r1, r2, r3, r5, fp, ip, sp, lr}^
    192c:	7df38078 	ldclvc	0, cr8, [r3, #480]!	; 0x1e0
    1930:	39b91829 	ldmibcc	r9!, {r0, r3, r5, fp, ip}
    1934:	77e03b27 	strbvc	r3, [r0, r7, lsr #22]!
    1938:	b6849bbe 			; <UNDEFINED> instruction: 0xb6849bbe
    193c:	cbb856ed 	blgt	fee174f8 <memset+0xfee10184>
    1940:	a56dc7de 	strbge	ip, [sp, #-2014]!	; 0xfffff822
    1944:	521c7130 	andspl	r7, ip, #48, 2
    1948:	411eb583 	tstmi	lr, r3, lsl #11
    194c:	2e60828b 	cdpcs	2, 6, cr8, cr0, cr11, {4}
    1950:	984f8910 	stmdals	pc, {r4, r8, fp, pc}^	; <UNPREDICTABLE>
    1954:	f3ad0cb3 			; <UNDEFINED> instruction: 0xf3ad0cb3
    1958:	fab1e642 	blx	fec7b268 <memset+0xfec73ef4>
    195c:	22aa74de 	adccs	r7, sl, #-570425344	; 0xde000000
    1960:	33cad4df 	biccc	sp, sl, #-553648128	; 0xdf000000
    1964:	f0781e69 			; <UNDEFINED> instruction: 0xf0781e69
    1968:	5f48ec6a 	svcpl	0x0048ec6a
    196c:	c758c181 	ldrbgt	ip, [r8, -r1, lsl #3]
    1970:	8006f889 	andhi	pc, r6, r9, lsl #17
    1974:	6fbf0fce 	svcvs	0x00bf0fce
    1978:	3755a28b 	ldrbcc	sl, [r5, -fp, lsl #5]
    197c:	2d1f6319 	ldccs	3, cr6, [pc, #-100]	; 1920 <data_tnt_config_+0x1808>
    1980:	ecd05b9b 	fldmiax	r0, {d21-d97}	;@ Deprecated
    1984:	507667ae 	rsbspl	r6, r6, lr, lsr #15
    1988:	77094054 	smlsdvc	r9, r4, r0, r4
    198c:	e8252194 	stmda	r5!, {r2, r4, r7, r8, sp}
    1990:	000e6dfd 	strdeq	r6, [lr], -sp
    1994:	dac33981 	ble	ff0cffa0 <memset+0xff0c8c2c>
    1998:	0d1ac02c 	ldceq	0, cr12, [sl, #-176]	; 0xffffff50
    199c:	eb760baa 	bl	1d8484c <memset+0x1d7d4d8>
    19a0:	c4e19912 	strbtgt	r9, [r1], #2322	; 0x912
    19a4:	77eb7cfe 			; <UNDEFINED> instruction: 0x77eb7cfe
    19a8:	ef6f5786 	svc	0x006f5786
    19ac:	a7e89a1f 			; <UNDEFINED> instruction: 0xa7e89a1f
    19b0:	372bd568 	strcc	sp, [fp, -r8, ror #10]!
    19b4:	0b4acd77 	bleq	12b4f98 <memset+0x12adc24>
    19b8:	19f2cf25 	ldmibne	r2!, {r0, r2, r5, r8, r9, sl, fp, lr, pc}^
    19bc:	36aca4c3 	strtcc	sl, [ip], r3, asr #9
    19c0:	340a01bd 	strcc	r0, [sl], #-445	; 0xfffffe43
    19c4:	11e21de7 	mvnne	r1, r7, ror #27
    19c8:	77f0ea48 	ldrbvc	lr, [r0, r8, asr #20]!
    19cc:	d104395c 	tstle	r4, ip, asr r9
    19d0:	d1eee534 	mvnle	lr, r4, lsr r5
    19d4:	d8a73009 	stmiale	r7!, {r0, r3, ip, sp}
    19d8:	9c817679 	stcls	6, cr7, [r1], {121}	; 0x79
    19dc:	314dc88c 	smlalbbcc	ip, sp, ip, r8
    19e0:	7c896a08 	vstmiavc	r9, {s12-s19}
    19e4:	e33bb124 	teq	fp, #36, 2
    19e8:	e7200406 	str	r0, [r0, -r6, lsl #8]!
    19ec:	56586ace 	ldrbpl	r6, [r8], -lr, asr #21
    19f0:	ee95f98d 	vfnms.f16	s30, s11, s26
    19f4:	bf3196dc 	svclt	0x003196dc
    19f8:	6e03c71c 	mcrvs	7, 0, ip, cr3, cr12, {0}
    19fc:	b4ff41cb 	ldrbtlt	r4, [pc], #459	; 1a04 <data_tnt_config_+0x18ec>
    1a00:	ffc7096c 			; <UNDEFINED> instruction: 0xffc7096c
    1a04:	5cc97219 	sfmpl	f7, 2, [r9], {25}
    1a08:	7ef3d186 	nrmvcd	f5, f6
    1a0c:	5383bd80 	orrpl	fp, r3, #128, 26	; 0x2000
    1a10:	019e9880 	orrseq	r9, lr, r0, lsl #17
    1a14:	686ce227 	stmdavs	ip!, {r0, r1, r2, r5, r9, sp, lr, pc}^
    1a18:	09e0c1aa 	stmibeq	r0!, {r1, r3, r5, r7, r8, lr, pc}^
    1a1c:	327d658e 	rsbscc	r6, sp, #595591168	; 0x23800000
    1a20:	56131b5a 			; <UNDEFINED> instruction: 0x56131b5a
    1a24:	4287b34b 	addmi	fp, r7, #738197505	; 0x2c000001
    1a28:	f0a5dc79 			; <UNDEFINED> instruction: 0xf0a5dc79
    1a2c:	f734e4ef 			; <UNDEFINED> instruction: 0xf734e4ef
    1a30:	11382e33 	teqne	r8, r3, lsr lr
    1a34:	725bc9e5 	subsvc	ip, fp, #3751936	; 0x394000
    1a38:	66f1070a 	ldrbtvs	r0, [r1], sl, lsl #14
    1a3c:	b2129cb2 	andslt	r9, r2, #45568	; 0xb200
    1a40:	f7f2c7db 			; <UNDEFINED> instruction: 0xf7f2c7db
    1a44:	d2e24b62 	rscle	r4, r2, #100352	; 0x18800
    1a48:	b609dd17 			; <UNDEFINED> instruction: 0xb609dd17
    1a4c:	ecb8c47b 	cfldrs	mvf12, [r8], #492	; 0x1ec
    1a50:	79de9e8f 	ldmibvc	lr, {r0, r1, r2, r3, r7, r9, sl, fp, ip, pc}^
    1a54:	81d24112 	bicshi	r4, r2, r2, lsl r1
    1a58:	75cc3fd3 	strbvc	r3, [ip, #4051]	; 0xfd3
    1a5c:	45c8162f 	strbmi	r1, [r8, #1583]	; 0x62f
    1a60:	823488ec 	eorshi	r8, r4, #236, 16	; 0xec0000
    1a64:	dd22c865 	stcle	8, cr12, [r2, #-404]!	; 0xfffffe6c
    1a68:	5dad48a9 	stcpl	8, cr4, [sp, #676]!	; 0x2a4
    1a6c:	ba106304 	blt	41a684 <memset+0x413310>
    1a70:	bb57c441 	bllt	15f2b7c <memset+0x15eb808>
    1a74:	1a074962 	bne	1d4004 <memset+0x1ccc90>
    1a78:	65c8e7a1 	strbvs	lr, [r8, #1953]	; 0x7a1
    1a7c:	76cc8fca 	strbvc	r8, [ip], sl, asr #31
    1a80:	fe452a33 	mcr2	10, 2, r2, cr5, cr3, {1}	; <UNPREDICTABLE>
    1a84:	a7c61a96 	bfige	r1, r6, (invalid: 21:6)
    1a88:	7ab6fd52 	bvc	fedc0fd8 <memset+0xfedb9c64>
    1a8c:	7c4cfefb 	mcrrvc	14, 15, pc, ip, cr11	; <UNPREDICTABLE>
    1a90:	045d50de 	ldrbeq	r5, [sp], #-222	; 0xffffff22
    1a94:	c4ffd95f 	ldrbtgt	sp, [pc], #2399	; 1a9c <data_tnt_config_+0x1984>
    1a98:	e01e4c78 	ands	r4, lr, r8, ror ip
    1a9c:	cc4be15d 	stfgtp	f6, [fp], {93}	; 0x5d
    1aa0:	7a58a986 	bvc	162c0c0 <memset+0x1624d4c>
    1aa4:	b052f372 	subslt	pc, r2, r2, ror r3	; <UNPREDICTABLE>
    1aa8:	9cf50e9b 	ldclls	14, cr0, [r5], #620	; 0x26c
    1aac:	7ea196c8 	cdpvc	6, 10, cr9, cr1, cr8, {6}
    1ab0:	890c0220 	stmdbhi	ip, {r5, r9}
    1ab4:	8cff1c6d 	ldclhi	12, cr1, [pc], #436	; 1c70 <data_tnt_config_+0x1b58>
    1ab8:	e4c524b7 	strb	r2, [r5], #1207	; 0x4b7
    1abc:	838bd12d 	orrhi	sp, fp, #1073741835	; 0x4000000b
    1ac0:	fb4154ad 	blx	1056d7e <memset+0x104fa0a>
    1ac4:	10323268 	eorsne	r3, r2, r8, ror #4
    1ac8:	608e0b23 	addvs	r0, lr, r3, lsr #22
    1acc:	a332250c 	teqge	r2, #12, 10	; 0x3000000
    1ad0:	13707c0e 	cmnne	r0, #3584	; 0xe00
    1ad4:	48894b8e 	stmmi	r9, {r1, r2, r3, r7, r8, r9, fp, lr}
    1ad8:	4e32a818 	mrcmi	8, 1, sl, cr2, cr8, {0}
    1adc:	6a030e9f 	bvs	c5560 <memset+0xbe1ec>
    1ae0:	715c1824 	cmpvc	ip, r4, lsr #16
    1ae4:	2e9a6912 			; <UNDEFINED> instruction: 0x2e9a6912
    1ae8:	c1a569b6 			; <UNDEFINED> instruction: 0xc1a569b6
    1aec:	90c29916 	sbcls	r9, r2, r6, lsl r9
    1af0:	6225dc71 	eorvs	sp, r5, #28928	; 0x7100
    1af4:	66d43a24 	ldrbvs	r3, [r4], r4, lsr #20
    1af8:	f4067398 	vst2.32	{d7-d10}, [r6 :64], r8
    1afc:	948545d6 	strls	r4, [r5], #1494	; 0x5d6
    1b00:	eacd0f4b 	b	ff345834 <memset+0xff33e4c0>
    1b04:	164343dd 			; <UNDEFINED> instruction: 0x164343dd
    1b08:	830ce192 	movwhi	lr, #49554	; 0xc192
    1b0c:	a686a428 	strge	sl, [r6], r8, lsr #8
    1b10:	d84dc85e 	stmdale	sp, {r1, r2, r3, r4, r6, fp, lr, pc}^
    1b14:	f5ffbff1 			; <UNDEFINED> instruction: 0xf5ffbff1
    1b18:	4b9abd6a 	blmi	fe6b10c8 <memset+0xfe6a9d54>
    1b1c:	d56fb62c 	strble	fp, [pc, #-1580]!	; 14f8 <data_tnt_config_+0x13e0>
    1b20:	ddd537aa 	ldclle	7, cr3, [r5, #680]	; 0x2a8
    1b24:	43f8420d 	mvnsmi	r4, #-805306368	; 0xd0000000
    1b28:	f24fb92d 	vmla.i8	d27, d15, d29
    1b2c:	a0102e85 	andsge	r2, r0, r5, lsl #29
    1b30:	389a8111 	ldmcc	sl, {r0, r4, r8, pc}
    1b34:	bc921519 	cfldr32lt	mvfx1, [r2], {25}
    1b38:	a252889a 	subsge	r8, r2, #10092544	; 0x9a0000
    1b3c:	df570b74 	svcle	0x00570b74
    1b40:	b9d16ac7 	ldmiblt	r1, {r0, r1, r2, r6, r7, r9, fp, sp, lr}^
    1b44:	f5995173 			; <UNDEFINED> instruction: 0xf5995173
    1b48:	13f2eac2 	mvnsne	lr, #794624	; 0xc2000
    1b4c:	7e1fb94c 	vnmlavc.f16	s22, s30, s24	; <UNPREDICTABLE>
    1b50:	15214df1 	strne	r4, [r1, #-3569]!	; 0xfffff20f
    1b54:	62b616a2 	adcsvs	r1, r6, #169869312	; 0xa200000
    1b58:	3316297e 	tstcc	r6, #2064384	; 0x1f8000
    1b5c:	e03a68a3 	eors	r6, sl, r3, lsr #17
    1b60:	c75c771c 	smmlagt	ip, ip, r7, r7
    1b64:	f03b96bd 			; <UNDEFINED> instruction: 0xf03b96bd
    1b68:	6b031699 	blvs	c75d4 <memset+0xc0260>
    1b6c:	67480170 	smlsldxvs	r0, r8, r0, r1
    1b70:	764540bc 			; <UNDEFINED> instruction: 0x764540bc
    1b74:	7cdd8c29 	ldclvc	12, cr8, [sp], {41}	; 0x29
    1b78:	1870a872 	ldmdane	r0!, {r1, r4, r5, r6, fp, sp, pc}^
    1b7c:	034e938f 	movteq	r9, #58255	; 0xe38f
    1b80:	0d087d9c 	stceq	13, cr7, [r8, #-624]	; 0xfffffd90
    1b84:	5468871b 	strbtpl	r8, [r8], #-1819	; 0xfffff8e5
    1b88:	88a9f7f3 	stmiahi	r9!, {r0, r1, r4, r5, r6, r7, r8, r9, sl, ip, sp, lr, pc}
    1b8c:	0911efe0 	ldmdbeq	r1, {r5, r6, r7, r8, r9, sl, fp, sp, lr, pc}
    1b90:	de842966 			; <UNDEFINED> instruction: 0xde842966
    1b94:	475ce8c5 	ldrbmi	lr, [ip, -r5, asr #17]
    1b98:	fd75d1ac 	ldc2l	1, cr13, [r5, #-688]!	; 0xfffffd50
    1b9c:	098e0011 	stmibeq	lr, {r0, r4}
    1ba0:	a09e2ce1 	addsge	r2, lr, r1, ror #25
    1ba4:	0a736596 	beq	1cdb204 <memset+0x1cd3e90>
    1ba8:	0514c5a5 	ldreq	ip, [r4, #-1445]	; 0xfffffa5b
    1bac:	33b996b4 			; <UNDEFINED> instruction: 0x33b996b4
    1bb0:	70c6ad08 	sbcvc	sl, r6, r8, lsl #26
    1bb4:	1cbad5df 	cfldr32ne	mvfx13, [sl], #892	; 0x37c
    1bb8:	f96e4b79 			; <UNDEFINED> instruction: 0xf96e4b79
    1bbc:	afb65e18 	svcge	0x00b65e18
    1bc0:	61684585 	cmnvs	r8, r5, lsl #11
    1bc4:	d74a62e0 	strble	r6, [sl, -r0, ror #5]
    1bc8:	5ffdf54c 	svcpl	0x00fdf54c
    1bcc:	7382c734 	orrvc	ip, r2, #52, 14	; 0xd00000
    1bd0:	85c7f246 	strbhi	pc, [r7, #582]	; 0x246	; <UNPREDICTABLE>
    1bd4:	680b9c17 	stmdavs	fp, {r0, r1, r2, r4, sl, fp, ip, pc}
    1bd8:	35dddcdc 	ldrbcc	sp, [sp, #3292]	; 0xcdc
    1bdc:	e75631af 	ldrb	r3, [r6, -pc, lsr #3]
    1be0:	de6e54aa 	cdple	4, 6, cr5, cr14, cr10, {5}
    1be4:	b21837d5 	andslt	r3, r8, #55836672	; 0x3540000
    1be8:	568e4c58 	pkhtbpl	r4, lr, r8, asr #24
    1bec:	98ab134c 	stmials	fp!, {r2, r3, r6, r8, r9, ip}
    1bf0:	98ab134f 	stmials	fp!, {r0, r1, r2, r3, r6, r8, r9, ip}
    1bf4:	98aa105f 	stmials	sl!, {r0, r1, r2, r3, r4, r6, ip}
    1bf8:	4c540e4f 	mrrcmi	14, 4, r0, r4, cr15
    1bfc:	24f92fd0 	ldrbtcs	r2, [r9], #4048	; 0xfd0
    1c00:	52ab12fd 	adcpl	r1, fp, #-805306353	; 0xd000000f
    1c04:	37465222 	strbcc	r5, [r6, -r2, lsr #4]
    1c08:	b6ed999f 	usatlt	r9, #13, pc, lsl #19	; <UNPREDICTABLE>
    1c0c:	9c6dcf02 	stclls	15, cr12, [sp], #-8
    1c10:	628aa992 	addvs	sl, sl, #2392064	; 0x248000
    1c14:	ed56c3a1 	ldcl	3, cr12, [r6, #-644]	; 0xfffffd7c
    1c18:	cbf4a5c6 	blgt	ffd2b338 <memset+0xffd23fc4>
    1c1c:	452ff88e 	strmi	pc, [pc, #-2190]!	; 1396 <data_tnt_config_+0x127e>
    1c20:	9ea01a05 	vfmals.f32	s2, s0, s10
    1c24:	4674a45c 			; <UNDEFINED> instruction: 0x4674a45c
    1c28:	01af84c4 			; <UNDEFINED> instruction: 0x01af84c4
    1c2c:	eba91378 	bl	fea46a14 <memset+0xfea3f6a0>
    1c30:	ec65460a 	stcl	6, cr4, [r5], #-40	; 0xffffffd8
    1c34:	eccfc92c 			; <UNDEFINED> instruction: 0xeccfc92c
    1c38:	89f71319 	ldmibhi	r7!, {r0, r3, r4, r8, r9, ip}^
    1c3c:	f399303c 	vshr.u16	d3, d28, #7
    1c40:	91e664c4 	mvnls	r6, r4, asr #9
    1c44:	9333ecc9 	teqls	r3, #51456	; 0xc900
    1c48:	dd0da1f0 	stfled	f2, [sp, #-960]	; 0xfffffc40
    1c4c:	e4921f09 	ldr	r1, [r2], #3849	; 0xf09
    1c50:	6c119ea7 	ldcvs	14, cr9, [r1], {167}	; 0xa7
    1c54:	f34cc520 	vrshl.u8	d28, d16, d12
    1c58:	938f7c2e 	orrls	r7, pc, #11776	; 0x2e00
    1c5c:	70f17989 	rscsvc	r7, r1, r9, lsl #19
    1c60:	fa4ae7f2 	blx	12bbc30 <memset+0x12b48bc>
    1c64:	71948570 	orrsvc	r8, r4, r0, ror r5
    1c68:	ebb46670 	bl	fed1b630 <memset+0xfed142bc>
    1c6c:	43097ece 	movwmi	r7, #40654	; 0x9ece
    1c70:	d4c53f0f 	strble	r3, [r5], #3855	; 0xf0f
    1c74:	e796d90b 	ldr	sp, [r6, fp, lsl #18]
    1c78:	c2e79f0f 	rscgt	r9, r7, #15, 30	; 0x3c
    1c7c:	3e166e5f 	mrccc	14, 0, r6, cr6, cr15, {2}
    1c80:	3b321f10 	blcc	c898c8 <memset+0xc82554>
    1c84:	4fe210f2 	svcmi	0x00e210f2
    1c88:	67f250cf 	ldrbvs	r5, [r2, pc, asr #1]!
    1c8c:	69a020ab 	stmibvs	r0!, {r0, r1, r3, r5, r7, sp}
    1c90:	a1456c7b 	hvcge	22219	; 0x56cb
    1c94:	786ee91a 	stmdavc	lr!, {r1, r3, r4, r8, fp, sp, lr, pc}^
    1c98:	e707aa00 	str	sl, [r7, -r0, lsl #20]
    1c9c:	ba25bed1 	blt	9717e8 <memset+0x96a474>
    1ca0:	141ddd24 	ldrne	sp, [sp], #-3364	; 0xfffff2dc
    1ca4:	a0076da0 	andge	r6, r7, r0, lsr #27
    1ca8:	6f7ffd85 	svcvs	0x007ffd85
    1cac:	e8802d10 	stm	r0, {r4, r8, sl, fp, sp}
    1cb0:	c75b4019 	smmlagt	fp, r9, r0, r4
    1cb4:	fb7aa180 	blx	1eaa2be <memset+0x1ea2f4a>
    1cb8:	5b37a958 	blpl	dec220 <memset+0xde4eac>
    1cbc:	5dfaebcd 			; <UNDEFINED> instruction: 0x5dfaebcd
    1cc0:	145b59b3 	ldrbne	r5, [fp], #-2483	; 0xfffff64d
    1cc4:	bb9f9440 	bllt	fe7e6dcc <memset+0xfe7dfa58>
    1cc8:	bd62e0e5 	stcllt	0, cr14, [r2, #-916]!	; 0xfffffc6c
    1ccc:	1ac4d11b 	bne	ff136140 <memset+0xff12edcc>
    1cd0:	3536a888 	ldrcc	sl, [r6, #-2184]!	; 0xfffff778
    1cd4:	8c3178b5 	ldchi	8, cr7, [r1], #-724	; 0xfffffd2c
    1cd8:	7e979b61 	vfnmavc.f64	d9, d7, d17
    1cdc:	a25f3529 	subsge	r3, pc, #171966464	; 0xa400000
    1ce0:	7de6f0b4 	stclvc	0, cr15, [r6, #720]!	; 0x2d0
    1ce4:	8916d279 	ldmdbhi	r6, {r0, r3, r4, r5, r6, r9, ip, lr, pc}
    1ce8:	12b87acd 	adcsne	r7, r8, #839680	; 0xcd000
    1cec:	d027431f 	eorle	r4, r7, pc, lsl r3
    1cf0:	5fa386eb 	svcpl	0x00a386eb
    1cf4:	e46b0766 	strbt	r0, [fp], #-1894	; 0xfffff89a
    1cf8:	6071b865 	rsbsvs	fp, r1, r5, ror #16
    1cfc:	a65219fa 			; <UNDEFINED> instruction: 0xa65219fa
    1d00:	00ec2718 	rsceq	r2, ip, r8, lsl r7
    1d04:	7278cb56 	rsbsvc	ip, r8, #88064	; 0x15800
    1d08:	c8e6e519 	stmiagt	r6!, {r0, r3, r4, r8, sl, sp, lr, pc}^
    1d0c:	171a10f4 			; <UNDEFINED> instruction: 0x171a10f4
    1d10:	a662de53 			; <UNDEFINED> instruction: 0xa662de53
    1d14:	83d04fdb 	bicshi	r4, r0, #876	; 0x36c
    1d18:	a35940be 	cmpge	r9, #190	; 0xbe
    1d1c:	aaade0f2 	bge	feb7a0ec <memset+0xfeb72d78>
    1d20:	cb3b1875 	blgt	ec7efc <memset+0xec0b88>
    1d24:	8581d0be 	strhi	sp, [r1, #190]	; 0xbe
    1d28:	0434dcb1 	ldrteq	sp, [r4], #-3249	; 0xfffff34f
    1d2c:	f5281915 			; <UNDEFINED> instruction: 0xf5281915
    1d30:	e2ea9cb3 	rsc	r9, sl, #45824	; 0xb300
    1d34:	9ce181a6 	stflsp	f0, [r1], #664	; 0x298
    1d38:	16eb0c3d 			; <UNDEFINED> instruction: 0x16eb0c3d
    1d3c:	d1d01589 	bicsle	r1, r0, r9, lsl #11
    1d40:	f059861a 			; <UNDEFINED> instruction: 0xf059861a
    1d44:	f0422520 			; <UNDEFINED> instruction: 0xf0422520
    1d48:	d16be161 	cmnle	fp, r1, ror #2
    1d4c:	cc231f4e 	stcgt	15, cr1, [r3], #-312	; 0xfffffec8
    1d50:	ac5d6ae5 	mrrcge	10, 14, r6, sp, cr5
    1d54:	63d9efeb 	bicsvs	lr, r9, #940	; 0x3ac
    1d58:	ae432fac 	cdpge	15, 4, cr2, cr3, cr12, {5}
    1d5c:	d2c03e6c 	sbcle	r3, r0, #108, 28	; 0x6c0
    1d60:	d82edc36 	stmdale	lr!, {r1, r2, r4, r5, sl, fp, ip, lr, pc}
    1d64:	b8231848 	stmdalt	r3!, {r3, r6, fp, ip}
    1d68:	756d7a18 	strbvc	r7, [sp, #-2584]!	; 0xfffff5e8
    1d6c:	a2b0d379 	adcsge	sp, r0, #-469762047	; 0xe4000001
    1d70:	66a27521 	strtvs	r7, [r2], r1, lsr #10
    1d74:	9077ef24 	rsbsls	lr, r7, r4, lsr #30
    1d78:	cd70f9fb 			; <UNDEFINED> instruction: 0xcd70f9fb
    1d7c:	95976c73 	ldrls	r6, [r7, #3187]	; 0xc73
    1d80:	e945e5d2 	stmdb	r5, {r1, r4, r6, r7, r8, sl, sp, lr, pc}^
    1d84:	12ed52f6 	rscne	r5, sp, #1610612751	; 0x6000000f
    1d88:	85b0f2bf 	ldrhi	pc, [r0, #703]!	; 0x2bf
    1d8c:	aca9665c 	stcge	6, cr6, [r9], #368	; 0x170
    1d90:	d9e7a9d5 	stmible	r7!, {r0, r2, r4, r6, r7, r8, fp, sp, pc}^
    1d94:	49c6fe7e 	stmibmi	r6, {r1, r2, r3, r4, r5, r6, r9, sl, fp, ip, sp, lr, pc}^
    1d98:	85ae59b6 	strhi	r5, [lr, #2486]!	; 0x9b6
    1d9c:	4f3bd267 	svcmi	0x003bd267
    1da0:	ed0b3c23 	stc	12, cr3, [fp, #-140]	; 0xffffff74
    1da4:	14eec7cc 	strbtne	ip, [lr], #1996	; 0x7cc
    1da8:	62454a20 	subvs	r4, r5, #32, 20	; 0x20000
    1dac:	315e4906 	cmpcc	lr, r6, lsl #18
    1db0:	7de262b1 	sfmvc	f6, 2, [r2, #708]!	; 0x2c4
    1db4:	4c46921a 	sfmmi	f1, 3, [r6], {26}
    1db8:	e4087d3c 	str	r7, [r8], #-3388	; 0xfffff2c4
    1dbc:	c9af1666 	stmibgt	pc!, {r1, r2, r5, r6, r9, sl, ip}	; <UNPREDICTABLE>
    1dc0:	3b30ca96 	blcc	c34820 <memset+0xc2d4ac>
    1dc4:	c35898c3 	cmpgt	r8, #12779520	; 0xc30000
    1dc8:	e2e8b226 	rsc	fp, r8, #1610612738	; 0x60000002
    1dcc:	98b11fd4 	ldmls	r1!, {r2, r4, r6, r7, r8, r9, sl, fp, ip}
    1dd0:	8a83628d 	bhi	fe0da80c <memset+0xfe0d3498>
    1dd4:	1c2ec050 	stcne	0, cr12, [lr], #-320	; 0xfffffec0
    1dd8:	348d0b5b 	strcc	r0, [sp], #2907	; 0xb5b
    1ddc:	87f2d59a 			; <UNDEFINED> instruction: 0x87f2d59a
    1de0:	1e4782cf 	cdpne	2, 4, cr8, cr7, cr15, {6}
    1de4:	cefcb54b 	cdpgt	5, 15, cr11, cr12, cr11, {2}
    1de8:	3861bec6 	stmdacc	r1!, {r1, r2, r6, r7, r9, sl, fp, ip, sp, pc}^
    1dec:	489296c4 	ldmmi	r2, {r2, r6, r7, r9, sl, ip, pc}
    1df0:	5239f571 	eorspl	pc, r9, #473956352	; 0x1c400000
    1df4:	8b7c8c97 	blhi	1f25058 <memset+0x1f1dce4>
    1df8:	f24988e3 	vadd.i8	q12, <illegal reg q12.5>, <illegal reg q9.5>
    1dfc:	8f27a428 	svchi	0x0027a428
    1e00:	450f2282 	strmi	r2, [pc, #-642]	; 1b86 <data_tnt_config_+0x1a6e>
    1e04:	143c8a1e 	ldrtne	r8, [ip], #-2590	; 0xfffff5e2
    1e08:	a3c94479 	bicge	r4, r9, #2030043136	; 0x79000000
    1e0c:	f563c8a0 			; <UNDEFINED> instruction: 0xf563c8a0
    1e10:	76fbf1e4 	ldrbtvc	pc, [fp], r4, ror #3	; <UNPREDICTABLE>
    1e14:	ea214791 	b	853c60 <memset+0x84c8ec>
    1e18:	e35a7402 	cmp	sl, #33554432	; 0x2000000
    1e1c:	8a662d73 	bhi	198d3f0 <memset+0x198607c>
    1e20:	1c712c75 	ldclne	12, cr2, [r1], #-468	; 0xfffffe2c
    1e24:	49a71152 	stmibmi	r7!, {r1, r4, r6, r8, ip}
    1e28:	4d40bc23 	stclmi	12, cr11, [r0, #-140]	; 0xffffff74
    1e2c:	51062b8a 	smlabbpl	r6, sl, fp, r2
    1e30:	33a3f20c 			; <UNDEFINED> instruction: 0x33a3f20c
    1e34:	2511b548 	ldrcs	fp, [r1, #-1352]	; 0xfffffab8
    1e38:	58adca91 	stmiapl	sp!, {r0, r4, r7, r9, fp, lr, pc}
    1e3c:	734dfeb6 	movtvc	pc, #57014	; 0xdeb6	; <UNPREDICTABLE>
    1e40:	7460c916 	strbtvc	ip, [r0], #-2326	; 0xfffff6ea
    1e44:	3d2ee22e 	sfmcc	f6, 1, [lr, #-184]!	; 0xffffff48
    1e48:	bae165ab 	blt	ff85b4fc <memset+0xff854188>
    1e4c:	71cb96bc 	strhvc	r9, [fp, #108]	; 0x6c
    1e50:	61d994ad 	bicsvs	r9, r9, sp, lsr #9
    1e54:	145792f1 	ldrbne	r9, [r7], #-753	; 0xfffffd0f
    1e58:	93e32e8f 	mvnls	r2, #2288	; 0x8f0
    1e5c:	5c19b7ca 	ldcpl	7, cr11, [r9], {202}	; 0xca
    1e60:	c2b014a9 	adcsgt	r1, r0, #-1459617792	; 0xa9000000
    1e64:	64f74daf 	ldrbtvs	r4, [r7], #3503	; 0xdaf
    1e68:	61853adf 	ldrdvs	r3, [r5, pc]
    1e6c:	224bb8da 	subcs	fp, fp, #14286848	; 0xda0000
    1e70:	7ac3a2e9 	bvc	ff0eaa1c <memset+0xff0e36a8>
    1e74:	6c418f9c 	mcrrvs	15, 9, r8, r1, cr12
    1e78:	cf491168 	svcgt	0x00491168
    1e7c:	19122e10 	ldmdbne	r2, {r4, r9, sl, fp, sp}
    1e80:	d0c41daf 	sbcle	r1, r4, pc, lsr #27
    1e84:	19010465 	stmdbne	r1, {r0, r2, r5, r6, sl}
    1e88:	1eccccbc 	mcrne	12, 6, ip, cr12, cr12, {5}
    1e8c:	b90ca508 	stmdblt	ip, {r3, r8, sl, sp, pc}
    1e90:	68eebb91 	stmiavs	lr!, {r0, r4, r7, r8, r9, fp, ip, sp, pc}^
    1e94:	634feab8 	movtvs	lr, #64184	; 0xfab8
    1e98:	47319b3d 			; <UNDEFINED> instruction: 0x47319b3d
    1e9c:	c8b72dd6 	ldmgt	r7!, {r1, r2, r4, r6, r7, r8, sl, fp, sp}
    1ea0:	c955c038 	ldmdbgt	r5, {r3, r4, r5, lr, pc}^
    1ea4:	6b87eee2 	blvs	fe1fda34 <memset+0xfe1f66c0>
    1ea8:	7aa59612 	bvc	fe9676f8 <memset+0xfe960384>
    1eac:	75bee1f3 	ldrvc	lr, [lr, #499]!	; 0x1f3
    1eb0:	af966d5f 	svcge	0x00966d5f
    1eb4:	5abbcd5b 	bpl	feef5428 <memset+0xfeeee0b4>
    1eb8:	2dba5ea5 	ldccs	14, cr5, [sl, #660]!	; 0x294
    1ebc:	b866eeef 	stmdalt	r6!, {r0, r1, r2, r3, r5, r6, r7, r9, sl, fp, sp, lr, pc}^
    1ec0:	44bc7faf 	ldrtmi	r7, [ip], #4015	; 0xfaf
    1ec4:	cc6a4b65 			; <UNDEFINED> instruction: 0xcc6a4b65
    1ec8:	e21ce805 	ands	lr, ip, #327680	; 0x50000
    1ecc:	230dcdb7 	movwcs	ip, #56759	; 0xddb7
    1ed0:	a1d77c3d 	bicsge	r7, r7, sp, lsr ip
    1ed4:	856f42b4 	strbhi	r4, [pc, #-692]!	; 1c28 <data_tnt_config_+0x1b10>
    1ed8:	6cb9dbde 	vldmiavs	r9!, {d13-<overflow reg d59>}
    1edc:	4ca7184f 	stcmi	8, cr1, [r7], #316	; 0x13c
    1ee0:	98cd70fc 	stmials	sp, {r2, r3, r4, r5, r6, r7, ip, sp, lr}^
    1ee4:	9a207981 	bls	8204f0 <memset+0x81917c>
    1ee8:	87ce1d9c 	bfihi	r1, ip, (invalid: 27:14)
    1eec:	ba832bf2 	blt	fe0ccebc <memset+0xfe0c5b48>
    1ef0:	ac72452b 	cfldr64ge	mvdx4, [r2], #-172	; 0xffffff54
    1ef4:	36390250 			; <UNDEFINED> instruction: 0x36390250
    1ef8:	5e38bd64 	cdppl	13, 3, cr11, cr8, cr4, {3}
    1efc:	14d5abbf 	ldrbne	sl, [r5], #3007	; 0xbbf
    1f00:	5ed16f8c 	cdppl	15, 13, cr6, cr1, cr12, {4}
    1f04:	f1c66b5c 			; <UNDEFINED> instruction: 0xf1c66b5c
    1f08:	610e9438 	tstvs	lr, r8, lsr r4
    1f0c:	735b793c 	cmpvc	fp, #60, 18	; 0xf0000
    1f10:	62cbbd1f 	sbcvs	fp, fp, #1984	; 0x7c0
    1f14:	fce55d22 	vusdot.s8	d21, d5, d18
    1f18:	a5bd9855 	ldrge	r9, [sp, #2133]!	; 0x855
    1f1c:	d8c7ad4b 	stmiale	r7, {r0, r1, r3, r6, r8, sl, fp, sp, pc}^
    1f20:	0c43222b 	sfmeq	f2, 2, [r3], {43}	; 0x2b
    1f24:	d7758da1 	ldrble	r8, [r5, -r1, lsr #27]!
    1f28:	b3174661 	tstlt	r7, #101711872	; 0x6100000
    1f2c:	bec6f870 	mcrlt	8, 6, pc, cr6, cr0, {3}	; <UNPREDICTABLE>
    1f30:	19556456 	ldmdbne	r5, {r1, r2, r4, r6, sl, sp, lr}^
    1f34:	d447977c 	strble	r9, [r7], #-1916	; 0xfffff884
    1f38:	7bfa7874 	blvc	ffea0110 <memset+0xffe98d9c>
    1f3c:	58161b6e 	ldmdapl	r6, {r1, r2, r3, r5, r6, r8, r9, fp, ip}
    1f40:	086600c7 	stmdaeq	r6!, {r0, r1, r2, r6, r7}^
    1f44:	c7431da4 	strbgt	r1, [r3, -r4, lsr #27]
    1f48:	6d9eeb0c 	vldrvs	d14, [lr, #48]	; 0x30
    1f4c:	b5fdf8b3 	ldrblt	pc, [sp, #2227]!	; 0x8b3	; <UNPREDICTABLE>
    1f50:	c2c54042 	sbcgt	r4, r5, #66	; 0x42
    1f54:	ab0b2ca4 	blge	2cd1ec <memset+0x2c5e78>
    1f58:	4e0ad555 	cfrshl32mi	mvfx10, mvfx5, sp
    1f5c:	048aef37 	streq	lr, [sl], #3895	; 0xf37
    1f60:	fdb9ec4b 	ldc2	12, cr14, [r9, #300]!	; 0x12c
    1f64:	ee52e620 	cdp	6, 5, cr14, cr2, cr0, {1}
    1f68:	0a662c24 	beq	198d000 <memset+0x1985c8c>
    1f6c:	98575ac6 	ldmdals	r7, {r1, r2, r6, r7, r9, fp, ip, lr}^
    1f70:	8afa4478 	bhi	ffe93158 <memset+0xffe8bde4>
    1f74:	de42d4b5 	mcrle	4, 2, sp, cr2, cr5, {5}
    1f78:	6cc83482 	cfstrdvs	mvd3, [r8], {130}	; 0x82
    1f7c:	12e332e1 	rscne	r3, r3, #268435470	; 0x1000000e
    1f80:	2e1a4b79 	vmovcs.s16	r4, d10[1]
    1f84:	1fdb86a3 	svcne	0x00db86a3
    1f88:	bed81249 	cdplt	2, 13, cr1, cr8, cr9, {2}
    1f8c:	2b441646 	blcs	11078ac <memset+0x1100538>
    1f90:	8a3d991f 	bhi	f68414 <memset+0xf610a0>
    1f94:	aaf974be 	bge	ffe5f294 <memset+0xffe57f20>
    1f98:	655748d7 	ldrbvs	r4, [r7, #-2263]	; 0xfffff729
    1f9c:	5a1ff3e8 	bpl	7fef44 <memset+0x7f7bd0>
    1fa0:	bd7a87e5 	ldcllt	7, cr8, [sl, #-916]!	; 0xfffffc6c
    1fa4:	a7b768b2 			; <UNDEFINED> instruction: 0xa7b768b2
    1fa8:	2d65aeb5 	stclcs	14, cr10, [r5, #-724]!	; 0xfffffd2c
    1fac:	31685ee4 	cmncc	r8, r4, ror #29
    1fb0:	c582e9eb 	strgt	lr, [r2, #2539]	; 0x9eb
    1fb4:	dd768bac 	vldmdble	r6!, {d24-<overflow reg d45>}
    1fb8:	9cb52d28 	ldcls	13, cr2, [r5], #160	; 0xa0
    1fbc:	8c2b0175 	stfhis	f0, [fp], #-468	; 0xfffffe2c
    1fc0:	218eb7e5 	orrcs	fp, lr, r5, ror #15
    1fc4:	da57e2b4 	ble	15faa9c <memset+0x15f3728>
    1fc8:	85713b89 	ldrbhi	r3, [r1, #-2953]!	; 0xfffff477
    1fcc:	4d5c62dc 	lfmmi	f6, 2, [ip, #-880]	; 0xfffffc90
    1fd0:	d8e629dd 	stmiale	r6!, {r0, r2, r3, r4, r6, r7, r8, fp, sp}^
    1fd4:	c4957e34 	ldrgt	r7, [r5], #3636	; 0xe34
    1fd8:	60b095c4 	adcsvs	r9, r0, r4, asr #11
    1fdc:	480f1699 	stmdami	pc, {r0, r3, r4, r7, r9, sl, ip}	; <UNPREDICTABLE>
    1fe0:	284c1284 	stmdacs	ip, {r2, r7, r9, ip}^
    1fe4:	3d526067 	ldclcc	0, cr6, [r2, #-412]	; 0xfffffe64
    1fe8:	b076e1d3 	ldrsbtlt	lr, [r6], #-19	; 0xffffffed
    1fec:	a2e3bceb 	rscge	fp, r3, #60160	; 0xeb00
    1ff0:	4e41a738 	mcrmi	7, 2, sl, cr1, cr8, {1}
    1ff4:	5aba3edf 	bpl	fee91b78 <memset+0xfee8a804>
    1ff8:	62ebbd0c 	rscvs	fp, fp, #12, 26	; 0x300
    1ffc:	f701c5ee 			; <UNDEFINED> instruction: 0xf701c5ee
    2000:	e0c9d74c 	sbc	sp, r9, ip, asr #14
    2004:	99f4cfe6 	ldmibls	r4!, {r1, r2, r5, r6, r7, r8, r9, sl, fp, lr, pc}^
    2008:	3e0b62eb 	cdpcc	2, 0, cr6, cr11, cr11, {7}
    200c:	0d476f1d 	stcleq	15, cr6, [r7, #-116]	; 0xffffff8c
    2010:	3a5aef02 	bcc	16bdc20 <memset+0x16b68ac>
    2014:	46cf7051 			; <UNDEFINED> instruction: 0x46cf7051
    2018:	d7b33ac9 	ldrle	r3, [r3, r9, asr #21]!
    201c:	55988d42 	ldrpl	r8, [r8, #3394]	; 0xd42
    2020:	9748775c 	smlsldls	r7, r8, ip, r7
    2024:	39931751 	ldmibcc	r3, {r0, r4, r6, r8, r9, sl, ip}
    2028:	52619fc3 	rsbpl	r9, r1, #780	; 0x30c
    202c:	70595c47 	subsvc	r5, r9, r7, asr #24
    2030:	9dc1cd0a 	stclls	13, cr12, [r1, #40]	; 0x28
    2034:	0bb77d78 	bleq	fede161c <memset+0xfedda2a8>
    2038:	dfd89cd2 	svcle	0x00d89cd2
    203c:	ab8d0a1e 	blge	fe3448bc <memset+0xfe33d548>
    2040:	a118f95f 	tstge	r8, pc, asr r9	; <UNPREDICTABLE>
    2044:	afb9bd51 	svcge	0x00b9bd51
    2048:	a6ec0455 	usatge	r0, #12, r5, asr #8
    204c:	cdcb569c 	stclgt	6, cr5, [fp, #624]	; 0x270
    2050:	054b569b 	strbeq	r5, [fp, #-1691]	; 0xfffff965
    2054:	35c9e318 	strbcc	lr, [r9, #792]	; 0x318
    2058:	032fe9cf 			; <UNDEFINED> instruction: 0x032fe9cf
    205c:	5e50f72a 	cdppl	7, 5, cr15, cr0, cr10, {1}
    2060:	94828a41 	strls	r8, [r2], #2625	; 0xa41
    2064:	f19484ad 			; <UNDEFINED> instruction: 0xf19484ad
    2068:	223dbee0 	eorscs	fp, sp, #224, 28	; 0xe00
    206c:	9606f4ff 			; <UNDEFINED> instruction: 0x9606f4ff
    2070:	ba6bdb48 	blt	1af8d98 <memset+0x1af1a24>
    2074:	47f8461c 			; <UNDEFINED> instruction: 0x47f8461c
    2078:	4e0874b8 	mcrmi	4, 0, r7, cr8, cr8, {5}
    207c:	50709741 	rsbspl	r9, r0, r1, asr #14
    2080:	0b798abb 	bleq	1e64b74 <memset+0x1e5d800>
    2084:	08e7ae99 	stmiaeq	r7!, {r0, r3, r4, r7, r9, sl, fp, sp, pc}^
    2088:	31a08697 	lslcc	r8, r7	; <illegal shifter operand>
    208c:	88397f13 	ldmdahi	r9!, {r0, r1, r4, r8, r9, sl, fp, ip, sp, lr}
    2090:	a8098acc 	stmdage	r9, {r2, r3, r6, r7, r9, fp, pc}
    2094:	ed06de30 	stc	14, cr13, [r6, #-192]	; 0xffffff40
    2098:	16c5bfe0 	strbne	fp, [r5], r0, ror #31
    209c:	13b88768 			; <UNDEFINED> instruction: 0x13b88768
    20a0:	64de6605 	ldrbvs	r6, [lr], #1541	; 0x605
    20a4:	1aac8676 	bne	feb23a84 <memset+0xfeb1c710>
    20a8:	1a1fee00 	bne	7fd8b0 <memset+0x7f653c>
    20ac:	feeb2bd7 	mcr2	11, 7, r2, cr11, cr7, {6}	; <UNPREDICTABLE>
    20b0:	ec3b1d09 	ldc	13, cr1, [fp], #-36	; 0xffffffdc
    20b4:	c36e9afc 	cmngt	lr, #252, 20	; 0xfc000
    20b8:	6e26a417 	mcrvs	4, 1, sl, cr6, cr7, {0}
    20bc:	04a4ea22 	strteq	lr, [r4], #2594	; 0xa22
    20c0:	86bc4b80 	ldrthi	r4, [ip], r0, lsl #23
    20c4:	148bfcd4 	strne	pc, [fp], #3284	; 0xcd4
    20c8:	d8102808 	ldmdale	r0, {r3, fp, sp}
    20cc:	cdf0100e 	ldclgt	0, cr1, [r0, #56]!	; 0x38
    20d0:	301597d8 			; <UNDEFINED> instruction: 0x301597d8
    20d4:	6602fcda 			; <UNDEFINED> instruction: 0x6602fcda
    20d8:	9c381d05 	ldcls	13, cr1, [r8], #-20	; 0xffffffec
    20dc:	5e1d9141 	mnfplem	f1, f1
    20e0:	1960d084 	stmdbne	r0!, {r2, r7, ip, lr, pc}^
    20e4:	9f7924dd 	svcls	0x007924dd
    20e8:	020e11e6 	andeq	r1, lr, #-2147483591	; 0x80000039
    20ec:	e9db176a 	ldmib	fp, {r1, r3, r5, r6, r8, r9, sl, ip}^
    20f0:	0a42a872 	beq	10ac2c0 <memset+0x10a4f4c>
    20f4:	19e6dc12 	stmibne	r6!, {r1, r4, sl, fp, ip, lr, pc}^
    20f8:	e0e923f7 	strd	r2, [r9], #55	; 0x37	; <UNPREDICTABLE>
    20fc:	7684cf46 	strvc	ip, [r4], r6, asr #30
    2100:	acd89571 	cfldr64ge	mvdx9, [r8], {113}	; 0x71
    2104:	4cfd58a2 	ldclmi	8, cr5, [sp], #648	; 0x288
    2108:	deb565cc 	cdple	5, 11, cr6, cr5, cr12, {6}
    210c:	dd2b5cfc 	stcle	12, cr5, [fp, #-1008]!	; 0xfffffc10
    2110:	df6f565e 	svcle	0x006f565e
    2114:	07015637 	smladxeq	r1, r7, r6, r5
    2118:	79faba0b 	ldmibvc	sl!, {r0, r1, r3, r9, fp, ip, sp, pc}^
    211c:	6c4fa6db 	mcrrvs	6, 13, sl, pc, cr11
    2120:	02ea5391 	rsceq	r5, sl, #1140850690	; 0x44000002
    2124:	4673a50b 	ldrbtmi	sl, [r3], -fp, lsl #10
    2128:	eabedf29 	b	fefb9dd4 <memset+0xfefb2a60>
    212c:	faefebfa 	blx	ffbfd11c <memset+0xffbf5da8>
    2130:	ab7d20d2 	blge	1f4a480 <memset+0x1f4310c>
    2134:	c8d429c5 	ldmgt	r4, {r0, r2, r6, r7, r8, fp, sp}^
    2138:	fd42ef76 	stc2l	15, cr14, [r2, #-472]	; 0xfffffe28
    213c:	e3acd387 			; <UNDEFINED> instruction: 0xe3acd387
    2140:	fc8c6c5e 	stc2	12, cr6, [ip], {94}	; 0x5e
    2144:	1c8d5689 	stcne	6, cr5, [sp], {137}	; 0x89
    2148:	13a78588 			; <UNDEFINED> instruction: 0x13a78588
    214c:	70720017 	rsbsvc	r0, r2, r7, lsl r0
    2150:	406075cf 	rsbmi	r7, r0, pc, asr #11
    2154:	0e812381 	cdpeq	3, 8, cr2, cr1, cr1, {4}
    2158:	1dbb8993 			; <UNDEFINED> instruction: 0x1dbb8993
    215c:	a5bb1032 	ldrge	r1, [fp, #50]!	; 0x32
    2160:	fc061dc2 	vdot.bf16	<illegal reg q0.5>, q11, q1
    2164:	e667ad99 			; <UNDEFINED> instruction: 0xe667ad99
    2168:	fa5ea2f5 	blx	17aad44 <memset+0x17a39d0>
    216c:	68e74950 	stmiavs	r7!, {r4, r6, r8, fp, lr}^
    2170:	a195e179 	orrsge	lr, r5, r9, ror r1
    2174:	503f3fdb 	ldrsbtpl	r3, [pc], -fp
    2178:	76647958 			; <UNDEFINED> instruction: 0x76647958
    217c:	d281e9da 	addle	lr, r1, #3571712	; 0x368000
    2180:	31037352 	tstcc	r3, r2, asr r3
    2184:	d9818b30 	stmible	r1, {r4, r5, r8, r9, fp, pc}
    2188:	508bb16d 	addpl	fp, fp, sp, ror #2
    218c:	6fe6154a 	svcvs	0x00e6154a
    2190:	d24dc439 	suble	ip, sp, #956301312	; 0x39000000
    2194:	cf33f660 	svcgt	0x0033f660
    2198:	4cda2fde 	ldclmi	15, cr2, [sl], {222}	; 0xde
    219c:	8531495b 	ldrhi	r4, [r1, #-2395]!	; 0xfffff6a5
    21a0:	63c7ebc7 	bicvs	lr, r7, #203776	; 0x31c00
    21a4:	df599d69 	svcle	0x00599d69
    21a8:	49a44299 	stmibmi	r4!, {r0, r3, r4, r7, r9, lr}
    21ac:	056b0267 	strbeq	r0, [fp, #-615]!	; 0xfffffd99
    21b0:	804fc618 	subhi	ip, pc, r8, lsl r6	; <UNPREDICTABLE>
    21b4:	0c4c0691 	mcrreq	6, 9, r0, ip, cr1
    21b8:	cddb42d1 	lfmgt	f4, 2, [fp, #836]	; 0x344
    21bc:	58549290 	ldmdapl	r4, {r4, r7, r9, ip, pc}^
    21c0:	5f708af2 	svcpl	0x00708af2
    21c4:	845223a7 	ldrbhi	r2, [r2], #-935	; 0xfffffc59
    21c8:	c6791c31 			; <UNDEFINED> instruction: 0xc6791c31
    21cc:	db8e66c0 	blle	fe39bcd4 <memset+0xfe394960>
    21d0:	1db9841a 	cfldrsne	mvf8, [r9, #104]!	; 0x68
    21d4:	7cda15d7 	cfldr64vc	mvdx1, [sl], {215}	; 0xd7
    21d8:	9fe7f0f1 	svcls	0x00e7f0f1
    21dc:	28f7fa95 	ldmcs	r7!, {r0, r2, r4, r7, r9, fp, ip, sp, lr, pc}^
    21e0:	7cae84ae 	cfstrsvc	mvf8, [lr], #696	; 0x2b8
    21e4:	9698bfee 	ldrls	fp, [r8], lr, ror #31
    21e8:	eb8bd4f5 	bl	fe2f75c4 <memset+0xfe2f0250>
    21ec:	bbfe97e0 	bllt	fffa8174 <memset+0xfffa0e00>
    21f0:	279da7bb 			; <UNDEFINED> instruction: 0x279da7bb
    21f4:	abd559c0 	blge	ff5588fc <memset+0xff551588>
    21f8:	8ddeaf55 	ldclhi	15, cr10, [lr, #340]	; 0x154
    21fc:	29931735 	ldmibcs	r3, {r0, r2, r4, r5, r8, r9, sl, ip}
    2200:	eea6aa3f 			; <UNDEFINED> instruction: 0xeea6aa3f
    2204:	2dc0d4ea 	cfstrdcs	mvd13, [r0, #936]	; 0x3a8
    2208:	dc8b3c71 	stcle	12, cr3, [fp], {113}	; 0x71
    220c:	b57ace81 	ldrblt	ip, [sl, #-3713]!	; 0xfffff17f
    2210:	1e2c6be5 	vnmulne.f64	d6, d28, d21
    2214:	802cfec4 	eorhi	pc, ip, r4, asr #29
    2218:	86745c51 			; <UNDEFINED> instruction: 0x86745c51
    221c:	9367fe71 	msrls	SPSR_sxc, #1808	; 0x710
    2220:	db3cf0c9 	blle	f3e54c <memset+0xf371d8>
    2224:	48778533 	ldmdami	r7!, {r0, r1, r4, r5, r8, sl, pc}^
    2228:	fea1c14a 	cdp2	1, 10, cr12, cr1, cr10, {2}
    222c:	fc25a515 	stc2	5, cr10, [r5], #-84	; 0xffffffac
    2230:	54866585 	strpl	r6, [r6], #1413	; 0x585
    2234:	37004fea 	strcc	r4, [r0, -sl, ror #31]
    2238:	59a00c14 	stmibpl	r0!, {r2, r4, sl, fp}
    223c:	09c26f40 	stmibeq	r2, {r6, r8, r9, sl, fp, sp, lr}^
    2240:	522d2fdb 	eorpl	r2, sp, #876	; 0x36c
    2244:	22f5e0d7 	rscscs	lr, r5, #215	; 0xd7
    2248:	17bc3523 	ldrne	r3, [ip, r3, lsr #10]!
    224c:	e8383204 	ldmda	r8!, {r2, r9, ip, sp}
    2250:	975d4864 	ldrbls	r4, [sp, -r4, ror #16]
    2254:	fe6e56e3 	cdp2	6, 6, cr5, cr14, cr3, {7}
    2258:	10ca5b8a 	sbcne	r5, sl, sl, lsl #23
    225c:	8e8e3b8b 	vdivhi.f64	d3, d30, d11
    2260:	b2462008 	sublt	r2, r6, #8
    2264:	bcb845a2 	cfldr32lt	mvfx4, [r8], #648	; 0x288
    2268:	adee5443 	cfstrdge	mvd5, [lr, #268]!	; 0x10c
    226c:	bfbff927 	svclt	0x00bff927
    2270:	a0b7e0f9 	ldrshtge	lr, [r7], r9
    2274:	3b445cdd 	blcc	11195f0 <memset+0x111227c>
    2278:	0e3b01f7 	mrceq	1, 1, r0, cr11, cr7, {7}
    227c:	c36c7ce3 	cmngt	ip, #58112	; 0xe300
    2280:	f62c4cb9 			; <UNDEFINED> instruction: 0xf62c4cb9
    2284:	9cc923fd 	stclls	3, cr2, [r9], {253}	; 0xfd
    2288:	718538c2 	orrvc	r3, r5, r2, asr #17
    228c:	7dfbd5df 	cfldr64vc	mvdx13, [fp, #892]!	; 0x37c
    2290:	1aa20c53 	bne	fe8853e4 <memset+0xfe87e070>
    2294:	dd4e0cae 	stclle	12, cr0, [lr, #-696]	; 0xfffffd48
    2298:	d2d78380 	sbcsle	r8, r7, #128, 6
    229c:	f52b1ee7 			; <UNDEFINED> instruction: 0xf52b1ee7
    22a0:	76eef546 	strbtvc	pc, [lr], r6, asr #10	; <UNPREDICTABLE>
    22a4:	6979c777 	ldmdbvs	r9!, {r0, r1, r2, r4, r5, r6, r8, r9, sl, lr, pc}^
    22a8:	8df97946 			; <UNDEFINED> instruction: 0x8df97946
    22ac:	54b45c6c 	ldrtpl	r5, [r4], #3180	; 0xc6c
    22b0:	c3749ffe 	cmngt	r4, #1016	; 0x3f8
    22b4:	7906a5bc 	stmdbvc	r6, {r2, r3, r4, r5, r7, r8, sl, sp, pc}
    22b8:	9e77e813 	mrcls	8, 3, lr, cr7, cr3, {0}
    22bc:	1d36a7bd 	ldcne	7, cr10, [r6, #-756]!	; 0xfffffd0c
    22c0:	9e6efbf8 	vmovls.8	d30[7], pc
    22c4:	b3bde483 			; <UNDEFINED> instruction: 0xb3bde483
    22c8:	55cd1635 	strbpl	r1, [sp, #1589]	; 0x635
    22cc:	27afc0ed 	strcs	ip, [pc, sp, ror #1]!
    22d0:	9cc1df0b 	stclls	15, cr13, [r1], {11}
    22d4:	87f9f9c3 	ldrbhi	pc, [r9, r3, asr #19]!	; <UNPREDICTABLE>
    22d8:	170ff30b 	strne	pc, [pc, -fp, lsl #6]
    22dc:	993e1fe7 	ldmdbls	lr!, {r0, r1, r2, r5, r6, r7, r8, r9, sl, fp, ip}
    22e0:	43f85877 	mvnsmi	r5, #7798784	; 0x770000
    22e4:	0a67b1f3 	beq	19eeab8 <memset+0x19e7744>
    22e8:	b18a67b1 			; <UNDEFINED> instruction: 0xb18a67b1
    22ec:	67dee667 	ldrbvs	lr, [lr, r7, ror #12]
    22f0:	1cdcfb40 	vldmiane	ip, {d31-<overflow reg d62>}
    22f4:	f9ac9eb5 			; <UNDEFINED> instruction: 0xf9ac9eb5
    22f8:	06e16b6d 	strbteq	r6, [r1], sp, ror #22
    22fc:	7d4ef368 	stclvc	3, cr15, [lr, #-416]	; 0xfffffe60
    2300:	8fb6db9c 	svchi	0x00b6db9c
    2304:	5d05db73 	vstrpl	d13, [r5, #-460]	; 0xfffffe34
    2308:	4ef3a5d6 	mrcmi	5, 7, sl, cr3, cr6, {6}
    230c:	98e6a888 	stmials	r6!, {r3, r7, fp, sp, pc}^
    2310:	2b9fe8b7 	blcs	fe7fc5f4 <memset+0xfe7f5280>
    2314:	c62b9c24 	strtgt	r9, [fp], -r4, lsr #24
    2318:	30ad8b9d 	umlalcc	r8, sp, sp, fp
    231c:	55b9b6b6 	ldrpl	fp, [r9, #1718]!	; 0x6b6
    2320:	a4a7edb5 	strtge	lr, [r7], #3509	; 0xdb5
    2324:	174f8e16 	smlaldne	r8, pc, r6, lr	; <UNPREDICTABLE>
    2328:	55274f92 	strpl	r4, [r7, #-3986]!	; 0xfffff06e
    232c:	5273549e 	rsbspl	r5, r3, #-1644167168	; 0x9e000000
    2330:	eceb73b5 	stcl	3, cr7, [fp], #724	; 0x2d4
    2334:	3afddb33 	bcc	fff79008 <memset+0xfff71c94>
    2338:	f4c884ef 	vst1.16			; <UNDEFINED> instruction: 0xf4c884ef
    233c:	c503172a 	strgt	r1, [r3, #-1834]	; 0xfffff8d6
    2340:	e36ac69f 	cmn	sl, #166723584	; 0x9f00000
    2344:	93ad52cf 			; <UNDEFINED> instruction: 0x93ad52cf
    2348:	b73b3c4f 	ldrlt	r3, [fp, -pc, asr #24]!
    234c:	eadc30b5 	b	ff70e628 <memset+0xff7072b4>
    2350:	21c2d882 	biccs	sp, r2, r2, lsl #17
    2354:	8ae03057 	bhi	ff80e4b8 <memset+0xff807144>
    2358:	806344af 	rsbhi	r4, r3, pc, lsr #9
    235c:	295a8b2f 	ldmdbcs	sl, {r0, r1, r2, r3, r5, r8, r9, fp, pc}^
    2360:	55b7250b 	ldrpl	r2, [r7, #1291]!	; 0x50b
    2364:	0cfb9196 	ldfeqp	f1, [fp], #600	; 0x258
    2368:	e8d4fab7 	ldm	r4, {r0, r1, r2, r4, r5, r7, r9, fp, ip, sp, lr, pc}^
    236c:	d98a2ca6 	stmible	sl, {r1, r2, r5, r7, sl, fp, sp}
    2370:	519f1306 	orrspl	r1, pc, r6, lsl #6
    2374:	b662d654 			; <UNDEFINED> instruction: 0xb662d654
    2378:	062f8835 			; <UNDEFINED> instruction: 0x062f8835
    237c:	d479ac8f 	ldrbtle	sl, [r9], #-3215	; 0xfffff371
    2380:	2f8cebf0 	svccs	0x008cebf0
    2384:	32cfe037 	sbccc	lr, pc, #55	; 0x37
    2388:	8668be39 			; <UNDEFINED> instruction: 0x8668be39
    238c:	b730e01f 			; <UNDEFINED> instruction: 0xb730e01f
    2390:	f8dbf8fb 			; <UNDEFINED> instruction: 0xf8dbf8fb
    2394:	48eeb540 	stmiami	lr!, {r6, r8, sl, ip, sp, pc}^
    2398:	b8b6b56e 	ldmlt	r6!, {r1, r2, r3, r5, r6, r8, sl, ip, sp, pc}
    239c:	fc032398 	stc2	3, cr2, [r3], {152}	; 0x98
    23a0:	f98b1417 			; <UNDEFINED> instruction: 0xf98b1417
    23a4:	d16a7864 	cmnle	sl, r4, ror #16
    23a8:	e9eb0b27 	stmib	fp!, {r0, r1, r2, r5, r8, r9, fp}^
    23ac:	1368a73f 	cmnne	r8, #16515072	; 0xfc0000
    23b0:	a2dc5a14 	sbcsge	r5, ip, #20, 20	; 0x14000
    23b4:	69e273fe 	stmibvs	r2!, {r1, r2, r3, r4, r5, r6, r7, r8, r9, ip, sp, lr}^
    23b8:	8c8dcd23 	stchi	13, cr12, [sp], {35}	; 0x23
    23bc:	92323734 	eorsls	r3, r2, #52, 14	; 0xd00000
    23c0:	4dd3246f 	cfldrdmi	mvd2, [r3, #444]	; 0x1bc
    23c4:	8407a8a6 	strhi	sl, [r7], #-2214	; 0xfffff75a
    23c8:	9dd0589f 	ldclls	8, cr5, [r0, #636]	; 0x27c
    23cc:	d9ac50aa 	stmible	ip!, {r1, r3, r5, r7, ip, lr}
    23d0:	f88fcee0 			; <UNDEFINED> instruction: 0xf88fcee0
    23d4:	b10d6860 	tstlt	sp, r0, ror #16
    23d8:	19bb9cf7 	ldmibne	fp!, {r0, r1, r2, r4, r5, r6, r7, sl, fp, ip, pc}
    23dc:	c8c17274 	stmiagt	r1, {r2, r4, r5, r6, r9, ip, sp, lr}^
    23e0:	05c97ca6 	strbeq	r7, [r9, #3238]	; 0xca6
    23e4:	7a74dc53 	bvc	1d39538 <memset+0x1d321c4>
    23e8:	d2e48733 	rscle	r8, r4, #13369344	; 0xcc0000
    23ec:	936e5953 	cmnls	lr, #1359872	; 0x14c000
    23f0:	22616b0b 	rsbcs	r6, r1, #11264	; 0x2c00
    23f4:	9352d9db 	cmpls	r2, #3588096	; 0x36c000
    23f8:	96169679 			; <UNDEFINED> instruction: 0x96169679
    23fc:	d9a08388 	stmible	r0!, {r3, r7, r8, r9, pc}
    2400:	abf3ec85 	blge	ffcfd61c <memset+0xffcf62a8>
    2404:	3266bb9a 	rsbcc	fp, r6, #157696	; 0x26800
    2408:	b2e4e8a9 	rsclt	lr, r4, #11075584	; 0xa90000
    240c:	b192a49c 			; <UNDEFINED> instruction: 0xb192a49c
    2410:	846e78ef 	strbthi	r7, [lr], #-2287	; 0xfffff711
    2414:	b34d6261 	movtlt	r6, #53857	; 0xd261
    2418:	4f894391 	svcmi	0x00894391
    241c:	90691d33 	rsbls	r1, r9, r3, lsr sp
    2420:	3cee7854 	stclcc	8, cr7, [lr], #336	; 0x150
    2424:	8a167ce4 	bhi	5a17bc <memset+0x59a448>
    2428:	de63ca78 			; <UNDEFINED> instruction: 0xde63ca78
    242c:	6d9fa4fa 	cfldrsvs	mvf10, [pc, #1000]	; 281c <__adddf3+0x150>
    2430:	f0c8a15e 			; <UNDEFINED> instruction: 0xf0c8a15e
    2434:	e7e9de74 			; <UNDEFINED> instruction: 0xe7e9de74
    2438:	9e1a0060 	cdpls	0, 1, cr0, cr10, cr0, {3}
    243c:	2a4ecf3a 	bcs	13b612c <memset+0x13aedb8>
    2440:	30f7f3b4 	ldrhtcc	pc, [r7], #52	; 0x34	; <UNPREDICTABLE>
    2444:	9238c7a2 	eorsls	ip, r8, #42467328	; 0x2880000
    2448:	3c3d95c8 	cfldr32cc	mvfx9, [sp], #-800	; 0xfffffce0
    244c:	c504a534 	strgt	sl, [r4, #-1332]	; 0xfffffacc
    2450:	7d843131 	stfvcs	f3, [r4, #196]	; 0xc4
    2454:	58f84ccf 	ldmpl	r8!, {r0, r1, r2, r3, r6, r7, sl, fp, lr}^
    2458:	43e3f280 	mvnmi	pc, #128, 4
    245c:	3db292d3 	lfmcc	f1, 1, [r2, #844]!	; 0x34c
    2460:	538986a7 	orrpl	r8, r9, #175112192	; 0xa700000
    2464:	a3ec9472 	mvnge	r9, #1912602624	; 0x72000000
    2468:	fc58f47b 	mrrc2	4, 7, pc, r8, cr11	; <UNPREDICTABLE>
    246c:	39955125 	ldmibcc	r5, {r0, r2, r5, r8, ip, lr}
    2470:	d5930853 	ldrle	r0, [r3, #2131]	; 0x853
    2474:	9d9dde0e 	ldcls	14, cr13, [sp, #56]	; 0x38
    2478:	3b3acc39 	blcc	eb5564 <memset+0xeae1f0>
    247c:	c795ebf3 			; <UNDEFINED> instruction: 0xc795ebf3
    2480:	510bca92 			; <UNDEFINED> instruction: 0x510bca92
    2484:	3e58a69a 	mrccc	6, 2, sl, cr8, cr10, {4}
    2488:	6f40b14d 	svcvs	0x0040b14d
    248c:	90b0a9a6 	adcsls	sl, r0, r6, lsr #19
    2490:	ba42c2ba 	blt	10b2f80 <memset+0x10abc0c>
    2494:	2ba98b0a 	blcs	fea650c4 <memset+0xfea5dd50>
    2498:	f0aba62c 			; <UNDEFINED> instruction: 0xf0aba62c
    249c:	27857524 	strcs	r7, [r5, r4, lsr #10]
    24a0:	75f42ae9 	ldrbvc	r2, [r4, #2793]!	; 0xae9
    24a4:	fea2e2f0 	mcr2	2, 5, lr, cr2, cr0, {7}
    24a8:	ac02bc57 	stcge	12, cr11, [r2], {87}	; 0x57
    24ac:	0b9a7661 	bleq	fe69fe38 <memset+0xfe698ac4>
    24b0:	717c0222 	cmnvc	ip, r2, lsr #4
    24b4:	bea98fe1 	cdplt	15, 10, cr8, cr9, cr1, {7}
    24b8:	af54c7d0 	svcge	0x0054c7d0
    24bc:	31e557dd 	ldrdcc	r5, [r5, #125]!	; 0x7d
    24c0:	3d96c705 	ldccc	7, cr12, [r6, #20]
    24c4:	67c774cf 	strbvs	r7, [r7, pc, asr #9]
    24c8:	d4f7b1bf 	ldrbtle	fp, [r7], #447	; 0x1bf
    24cc:	755b7ea5 	ldrbvc	r7, [fp, #-3749]	; 0xfffff15b
    24d0:	9b0529e7 	blls	14cc74 <memset+0x145900>
    24d4:	a4240336 	strtge	r0, [r4], #-822	; 0xfffffcca
    24d8:	79630779 	stmdbvc	r3!, {r0, r3, r4, r5, r6, r8, r9, sl}^
    24dc:	7e6cae9f 	mcrvc	14, 3, sl, cr12, cr15, {4}
    24e0:	690b4a89 	stmdbvs	fp, {r0, r3, r7, r9, fp, lr}
    24e4:	a89616cb 	ldmge	r6, {r0, r1, r3, r6, r7, r9, sl, ip}
    24e8:	6cb698b4 	ldcvs	8, cr9, [r6], #720	; 0x2d0
    24ec:	c5630971 	strbgt	r0, [r3, #-2417]!	; 0xfffff68f
    24f0:	2f94fa79 	svccs	0x0094fa79
    24f4:	9448626c 	strbls	r6, [r8], #-620	; 0xfffffd94
    24f8:	b97e78ba 	ldmdblt	lr!, {r1, r3, r4, r5, r7, fp, ip, sp, lr}^
    24fc:	144b0baa 	strbne	r0, [fp], #-2986	; 0xfffff456
    2500:	75572c2f 	ldrbvc	r2, [r7, #-3119]	; 0xfffff3d1
    2504:	c5e28971 	strbgt	r8, [r2, #2417]!	; 0x971
    2508:	7f0e754d 	svcvc	0x000e754d
    250c:	fa1ad975 	blx	6b8ae8 <memset+0x6b1774>
    2510:	c1ae9847 			; <UNDEFINED> instruction: 0xc1ae9847
    2514:	621ef349 	andsvs	pc, lr, #603979777	; 0x24000001
    2518:	4bfa5105 	blmi	ffe96934 <memset+0xffe8f5c0>
    251c:	6a5205a7 	bvs	1483bc0 <memset+0x147c84c>
    2520:	2a970c9b 	bcs	fe5c5794 <memset+0xfe5be420>
    2524:	5f37732f 	svcpl	0x0037732f
    2528:	89bea564 	ldmibhi	lr!, {r2, r5, r6, r8, sl, sp, pc}
    252c:	4ee4d178 	mcrmi	1, 7, sp, cr4, cr8, {3}
    2530:	7a970538 	bvc	fe5c3a18 <memset+0xfe5bc6a4>
    2534:	6d625323 	stclvs	3, cr5, [r2, #-140]!	; 0xffffff74
    2538:	13ce1689 	bicne	r1, lr, #143654912	; 0x8900000
    253c:	897c4b6f 	ldmdbhi	ip!, {r0, r1, r2, r3, r5, r6, r8, r9, fp, lr}^
    2540:	fe973159 	mrc2	1, 4, r3, cr7, cr9, {2}
    2544:	977118e2 	ldrbls	r1, [r1, -r2, ror #17]!
    2548:	735d6dfa 	cmpvc	sp, #16000	; 0x3e80
    254c:	130d4b43 	movwne	r4, #56131	; 0xdb43
    2550:	5370f213 	cmnpl	r0, #805306369	; 0x30000001	; <UNPREDICTABLE>
    2554:	a3af88dd 			; <UNDEFINED> instruction: 0xa3af88dd
    2558:	1304c90f 	movwne	ip, #18703	; 0x490f
    255c:	4f6c3857 	svcmi	0x006c3857
    2560:	be133365 	cdplt	3, 1, cr3, cr3, cr5, {3}
    2564:	27c5b497 	bfics	fp, r7, (invalid: 9:5)
    2568:	2f69215c 	svccs	0x0069215c
    256c:	e5914e92 	ldr	r4, [r1, #3730]	; 0xe92
    2570:	9af6916e 	bls	ffda6b30 <memset+0xffd9f7bc>
    2574:	a708c7a0 	strge	ip, [r8, -r0, lsr #15]
    2578:	bd967306 	ldclt	3, cr7, [r6, #24]
    257c:	e62f84cd 	strt	r8, [pc], -sp, asr #9
    2580:	be952e9b 	mrclt	14, 4, r2, cr5, cr11, {4}
    2584:	4e97b499 	mrcmi	4, 4, fp, cr7, cr9, {4}
    2588:	5ed26af9 			; <UNDEFINED> instruction: 0x5ed26af9
    258c:	49bbed36 	ldmibmi	fp!, {r1, r2, r4, r5, r8, sl, fp, sp, lr, pc}
    2590:	2f8c5d7b 	svccs	0x008c5d7b
    2594:	1f763367 	svcne	0x00763367
    2598:	06bcfb6c 	ldrteq	pc, [ip], ip, ror #22	; <UNPREDICTABLE>
    259c:	4f47f7db 	svcmi	0x0047f7db
    25a0:	aecdcca4 	cdpge	12, 12, cr12, cr13, cr4, {5}
    25a4:	62090a9e 	andvs	r0, r9, #647168	; 0x9e000
    25a8:	0da92a9c 			; <UNDEFINED> instruction: 0x0da92a9c
    25ac:	4773d2ee 	ldrbmi	sp, [r3, -lr, ror #5]!
    25b0:	18ea3ca4 	stmiane	sl!, {r2, r5, r7, sl, fp, ip, sp}^
    25b4:	97d80de3 	ldrbls	r0, [r8, r3, ror #27]
    25b8:	72f4adba 	rscsvc	sl, r4, #11904	; 0x2e80
    25bc:	e041792d 	sub	r7, r1, sp, lsr #18
    25c0:	b2f65a67 	rscslt	r5, r6, #421888	; 0x67000
    25c4:	d7370fd4 			; <UNDEFINED> instruction: 0xd7370fd4
    25c8:	881e96c7 	ldmdahi	lr, {r0, r1, r2, r6, r7, r9, sl, ip, pc}
    25cc:	3c9f5ef5 	ldccc	14, cr5, [pc], {245}	; 0xf5
    25d0:	80670372 	rsbhi	r0, r7, r2, ror r3
    25d4:	8cadedbe 	stchi	13, cr14, [sp], #760	; 0x2f8
    25d8:	5dcb767d 	stclpl	6, cr7, [fp, #500]	; 0x1f4
    25dc:	abd7ecb4 	blge	ff5fd8b4 <memset+0xff5f6540>
    25e0:	35f7e1f1 	ldrbcc	lr, [r7, #497]!	; 0x1f1
    25e4:	8696f8d4 			; <UNDEFINED> instruction: 0x8696f8d4
    25e8:	ba1a8b1a 	blt	6a5258 <memset+0x69dee4>
    25ec:	f08dc1ee 			; <UNDEFINED> instruction: 0xf08dc1ee
    25f0:	fba1add0 	blx	fe86dd3a <memset+0xfe8669c6>
    25f4:	4ec27645 	cdpmi	6, 12, cr7, cr2, cr5, {2}
    25f8:	fc6326fb 	stc2l	6, cr2, [r3], #-1004	; 0xfffffc14
    25fc:	385ccb86 	ldmdacc	ip, {r1, r2, r7, r8, r9, fp, lr, pc}^
    2600:	e65c47e1 	ldrb	r4, [ip], -r1, ror #15
    2604:	21ddf4c2 	bicscs	pc, sp, r2, asr #9
    2608:	ccb8cfc1 	ldcgt	15, cr12, [r8], #772	; 0x304
    260c:	c77e33d5 			; <UNDEFINED> instruction: 0xc77e33d5
    2610:	fb1e2e65 	blx	78dfae <memset+0x786c3a>
    2614:	aa48d321 	bge	12372a0 <memset+0x122ff2c>
    2618:	92e4bf49 	rscls	fp, r4, #292	; 0x124
    261c:	62521457 	subsvs	r1, r2, #1459617792	; 0x57000000
    2620:	65bf3cc4 	ldrvs	r3, [pc, #3268]!	; 32ec <PIo2+0x1c>
    2624:	fbed057a 	blx	ffb43c16 <memset+0xffb3c8a2>
    2628:	e3adbf9d 			; <UNDEFINED> instruction: 0xe3adbf9d
    262c:	dfdb5d8d 	svcle	0x00db5d8d
    2630:	d66a5170 			; <UNDEFINED> instruction: 0xd66a5170
    2634:	defae39d 	mrcle	3, 7, lr, cr10, cr13, {4}
    2638:	58b45690 	ldmpl	r4!, {r4, r7, r9, sl, ip, lr}
    263c:	378759c7 	strcc	r5, [r7, r7, asr #19]
    2640:	b9a58fcf 	stmiblt	r5!, {r0, r1, r2, r3, r6, r7, r8, r9, sl, fp, pc}
    2644:	8dd52e64 	ldclhi	14, cr2, [r5, #400]	; 0x190
    2648:	f429b254 	vld1.16	{d11-d14}, [r9 :64], r4
    264c:	3a2e2e7a 	bcc	b8e03c <memset+0xb86cc8>
    2650:	3f4d3fe1 	svccc	0x004d3fe1
    2654:	0e06a7dc 	mcreq	7, 0, sl, cr6, cr12, {6}
    2658:	f38d48c6 	vmul.i<illegal width 8>	q2, <illegal reg q14.5>, d2[1]
    265c:	7f274e54 	svcvc	0x00274e54
    2660:	fd753156 	ldc2l	1, cr3, [r5, #-344]!	; 0xfffffea8
    2664:	2cef80d3 	stclcs	0, cr8, [pc], #844	; 29b8 <__aeabi_f2d+0x30>
    2668:	624b32c9 	subvs	r3, fp, #-1879048180	; 0x9000000c
    266c:	395e32fd 	ldmdbcc	lr, {r0, r2, r3, r4, r5, r6, r7, r9, ip, sp}^
    2670:	c86afb8c 	stmdagt	sl!, {r2, r3, r7, r8, r9, fp, ip, sp, lr, pc}^
    2674:	694b43a5 	stmdbvs	fp, {r0, r2, r5, r7, r8, r9, lr}^
    2678:	a552fcc9 	ldrbge	pc, [r2, #-3273]	; 0xfffff337	; <UNPREDICTABLE>
    267c:	d9ef76d3 	stmible	pc!, {r0, r1, r4, r6, r7, r9, sl, ip, sp, lr}^	; <UNPREDICTABLE>
    2680:	4fd4d199 	svcmi	0x00d4d199
    2684:	1d3ba372 	ldcne	3, cr10, [fp, #-456]!	; 0xfffffe38
    2688:	6477c066 	ldrbtvs	ip, [r7], #-102	; 0xffffff9a
    268c:	de5273dc 	mrcle	3, 2, r7, cr2, cr12, {6}
    2690:	bf1fda6e 	svclt	0x001fda6e
    2694:	3be69eb2 	blcc	ff9aa164 <memset+0xff9a2df0>
    2698:	fd1703d3 	ldc2	3, cr0, [r7, #-844]	; 0xfffffcb4
    269c:	9e7f27d8 	mrcls	7, 3, r2, cr15, cr8, {6}
    26a0:	a8314295 	ldmdage	r1!, {r0, r2, r4, r7, r9, lr}
    26a4:	e101ffe8 	smlatt	r1, r8, pc, pc	; <UNPREDICTABLE>
    26a8:	Address 0x00000000000026a8 is out of bounds.


Disassembly of section .got:

000026ac <.got>:
    26ac:	00000118 	andeq	r0, r0, r8, lsl r1

000026b0 <_GLOBAL_OFFSET_TABLE_>:
	...

Disassembly of section .text:

000026c0 <__aeabi_drsub>:
    26c0:	f081 4100 	eor.w	r1, r1, #2147483648	; 0x80000000
    26c4:	e002      	b.n	26cc <__adddf3>
    26c6:	bf00      	nop

000026c8 <__aeabi_dsub>:
    26c8:	f083 4300 	eor.w	r3, r3, #2147483648	; 0x80000000

000026cc <__adddf3>:
    26cc:	b530      	push	{r4, r5, lr}
    26ce:	ea4f 0441 	mov.w	r4, r1, lsl #1
    26d2:	ea4f 0543 	mov.w	r5, r3, lsl #1
    26d6:	ea94 0f05 	teq	r4, r5
    26da:	bf08      	it	eq
    26dc:	ea90 0f02 	teqeq	r0, r2
    26e0:	bf1f      	itttt	ne
    26e2:	ea54 0c00 	orrsne.w	ip, r4, r0
    26e6:	ea55 0c02 	orrsne.w	ip, r5, r2
    26ea:	ea7f 5c64 	mvnsne.w	ip, r4, asr #21
    26ee:	ea7f 5c65 	mvnsne.w	ip, r5, asr #21
    26f2:	f000 80e2 	beq.w	28ba <__adddf3+0x1ee>
    26f6:	ea4f 5454 	mov.w	r4, r4, lsr #21
    26fa:	ebd4 5555 	rsbs	r5, r4, r5, lsr #21
    26fe:	bfb8      	it	lt
    2700:	426d      	neglt	r5, r5
    2702:	dd0c      	ble.n	271e <__adddf3+0x52>
    2704:	442c      	add	r4, r5
    2706:	ea80 0202 	eor.w	r2, r0, r2
    270a:	ea81 0303 	eor.w	r3, r1, r3
    270e:	ea82 0000 	eor.w	r0, r2, r0
    2712:	ea83 0101 	eor.w	r1, r3, r1
    2716:	ea80 0202 	eor.w	r2, r0, r2
    271a:	ea81 0303 	eor.w	r3, r1, r3
    271e:	2d36      	cmp	r5, #54	; 0x36
    2720:	bf88      	it	hi
    2722:	bd30      	pophi	{r4, r5, pc}
    2724:	f011 4f00 	tst.w	r1, #2147483648	; 0x80000000
    2728:	ea4f 3101 	mov.w	r1, r1, lsl #12
    272c:	f44f 1c80 	mov.w	ip, #1048576	; 0x100000
    2730:	ea4c 3111 	orr.w	r1, ip, r1, lsr #12
    2734:	d002      	beq.n	273c <__adddf3+0x70>
    2736:	4240      	negs	r0, r0
    2738:	eb61 0141 	sbc.w	r1, r1, r1, lsl #1
    273c:	f013 4f00 	tst.w	r3, #2147483648	; 0x80000000
    2740:	ea4f 3303 	mov.w	r3, r3, lsl #12
    2744:	ea4c 3313 	orr.w	r3, ip, r3, lsr #12
    2748:	d002      	beq.n	2750 <__adddf3+0x84>
    274a:	4252      	negs	r2, r2
    274c:	eb63 0343 	sbc.w	r3, r3, r3, lsl #1
    2750:	ea94 0f05 	teq	r4, r5
    2754:	f000 80a7 	beq.w	28a6 <__adddf3+0x1da>
    2758:	f1a4 0401 	sub.w	r4, r4, #1
    275c:	f1d5 0e20 	rsbs	lr, r5, #32
    2760:	db0d      	blt.n	277e <__adddf3+0xb2>
    2762:	fa02 fc0e 	lsl.w	ip, r2, lr
    2766:	fa22 f205 	lsr.w	r2, r2, r5
    276a:	1880      	adds	r0, r0, r2
    276c:	f141 0100 	adc.w	r1, r1, #0
    2770:	fa03 f20e 	lsl.w	r2, r3, lr
    2774:	1880      	adds	r0, r0, r2
    2776:	fa43 f305 	asr.w	r3, r3, r5
    277a:	4159      	adcs	r1, r3
    277c:	e00e      	b.n	279c <__adddf3+0xd0>
    277e:	f1a5 0520 	sub.w	r5, r5, #32
    2782:	f10e 0e20 	add.w	lr, lr, #32
    2786:	2a01      	cmp	r2, #1
    2788:	fa03 fc0e 	lsl.w	ip, r3, lr
    278c:	bf28      	it	cs
    278e:	f04c 0c02 	orrcs.w	ip, ip, #2
    2792:	fa43 f305 	asr.w	r3, r3, r5
    2796:	18c0      	adds	r0, r0, r3
    2798:	eb51 71e3 	adcs.w	r1, r1, r3, asr #31
    279c:	f001 4500 	and.w	r5, r1, #2147483648	; 0x80000000
    27a0:	d507      	bpl.n	27b2 <__adddf3+0xe6>
    27a2:	f04f 0e00 	mov.w	lr, #0
    27a6:	f1dc 0c00 	rsbs	ip, ip, #0
    27aa:	eb7e 0000 	sbcs.w	r0, lr, r0
    27ae:	eb6e 0101 	sbc.w	r1, lr, r1
    27b2:	f5b1 1f80 	cmp.w	r1, #1048576	; 0x100000
    27b6:	d31b      	bcc.n	27f0 <__adddf3+0x124>
    27b8:	f5b1 1f00 	cmp.w	r1, #2097152	; 0x200000
    27bc:	d30c      	bcc.n	27d8 <__adddf3+0x10c>
    27be:	0849      	lsrs	r1, r1, #1
    27c0:	ea5f 0030 	movs.w	r0, r0, rrx
    27c4:	ea4f 0c3c 	mov.w	ip, ip, rrx
    27c8:	f104 0401 	add.w	r4, r4, #1
    27cc:	ea4f 5244 	mov.w	r2, r4, lsl #21
    27d0:	f512 0f80 	cmn.w	r2, #4194304	; 0x400000
    27d4:	f080 809a 	bcs.w	290c <__adddf3+0x240>
    27d8:	f1bc 4f00 	cmp.w	ip, #2147483648	; 0x80000000
    27dc:	bf08      	it	eq
    27de:	ea5f 0c50 	movseq.w	ip, r0, lsr #1
    27e2:	f150 0000 	adcs.w	r0, r0, #0
    27e6:	eb41 5104 	adc.w	r1, r1, r4, lsl #20
    27ea:	ea41 0105 	orr.w	r1, r1, r5
    27ee:	bd30      	pop	{r4, r5, pc}
    27f0:	ea5f 0c4c 	movs.w	ip, ip, lsl #1
    27f4:	4140      	adcs	r0, r0
    27f6:	eb41 0101 	adc.w	r1, r1, r1
    27fa:	3c01      	subs	r4, #1
    27fc:	bf28      	it	cs
    27fe:	f5b1 1f80 	cmpcs.w	r1, #1048576	; 0x100000
    2802:	d2e9      	bcs.n	27d8 <__adddf3+0x10c>
    2804:	f091 0f00 	teq	r1, #0
    2808:	bf04      	itt	eq
    280a:	4601      	moveq	r1, r0
    280c:	2000      	moveq	r0, #0
    280e:	fab1 f381 	clz	r3, r1
    2812:	bf08      	it	eq
    2814:	3320      	addeq	r3, #32
    2816:	f1a3 030b 	sub.w	r3, r3, #11
    281a:	f1b3 0220 	subs.w	r2, r3, #32
    281e:	da0c      	bge.n	283a <__adddf3+0x16e>
    2820:	320c      	adds	r2, #12
    2822:	dd08      	ble.n	2836 <__adddf3+0x16a>
    2824:	f102 0c14 	add.w	ip, r2, #20
    2828:	f1c2 020c 	rsb	r2, r2, #12
    282c:	fa01 f00c 	lsl.w	r0, r1, ip
    2830:	fa21 f102 	lsr.w	r1, r1, r2
    2834:	e00c      	b.n	2850 <__adddf3+0x184>
    2836:	f102 0214 	add.w	r2, r2, #20
    283a:	bfd8      	it	le
    283c:	f1c2 0c20 	rsble	ip, r2, #32
    2840:	fa01 f102 	lsl.w	r1, r1, r2
    2844:	fa20 fc0c 	lsr.w	ip, r0, ip
    2848:	bfdc      	itt	le
    284a:	ea41 010c 	orrle.w	r1, r1, ip
    284e:	4090      	lslle	r0, r2
    2850:	1ae4      	subs	r4, r4, r3
    2852:	bfa2      	ittt	ge
    2854:	eb01 5104 	addge.w	r1, r1, r4, lsl #20
    2858:	4329      	orrge	r1, r5
    285a:	bd30      	popge	{r4, r5, pc}
    285c:	ea6f 0404 	mvn.w	r4, r4
    2860:	3c1f      	subs	r4, #31
    2862:	da1c      	bge.n	289e <__adddf3+0x1d2>
    2864:	340c      	adds	r4, #12
    2866:	dc0e      	bgt.n	2886 <__adddf3+0x1ba>
    2868:	f104 0414 	add.w	r4, r4, #20
    286c:	f1c4 0220 	rsb	r2, r4, #32
    2870:	fa20 f004 	lsr.w	r0, r0, r4
    2874:	fa01 f302 	lsl.w	r3, r1, r2
    2878:	ea40 0003 	orr.w	r0, r0, r3
    287c:	fa21 f304 	lsr.w	r3, r1, r4
    2880:	ea45 0103 	orr.w	r1, r5, r3
    2884:	bd30      	pop	{r4, r5, pc}
    2886:	f1c4 040c 	rsb	r4, r4, #12
    288a:	f1c4 0220 	rsb	r2, r4, #32
    288e:	fa20 f002 	lsr.w	r0, r0, r2
    2892:	fa01 f304 	lsl.w	r3, r1, r4
    2896:	ea40 0003 	orr.w	r0, r0, r3
    289a:	4629      	mov	r1, r5
    289c:	bd30      	pop	{r4, r5, pc}
    289e:	fa21 f004 	lsr.w	r0, r1, r4
    28a2:	4629      	mov	r1, r5
    28a4:	bd30      	pop	{r4, r5, pc}
    28a6:	f094 0f00 	teq	r4, #0
    28aa:	f483 1380 	eor.w	r3, r3, #1048576	; 0x100000
    28ae:	bf06      	itte	eq
    28b0:	f481 1180 	eoreq.w	r1, r1, #1048576	; 0x100000
    28b4:	3401      	addeq	r4, #1
    28b6:	3d01      	subne	r5, #1
    28b8:	e74e      	b.n	2758 <__adddf3+0x8c>
    28ba:	ea7f 5c64 	mvns.w	ip, r4, asr #21
    28be:	bf18      	it	ne
    28c0:	ea7f 5c65 	mvnsne.w	ip, r5, asr #21
    28c4:	d029      	beq.n	291a <__adddf3+0x24e>
    28c6:	ea94 0f05 	teq	r4, r5
    28ca:	bf08      	it	eq
    28cc:	ea90 0f02 	teqeq	r0, r2
    28d0:	d005      	beq.n	28de <__adddf3+0x212>
    28d2:	ea54 0c00 	orrs.w	ip, r4, r0
    28d6:	bf04      	itt	eq
    28d8:	4619      	moveq	r1, r3
    28da:	4610      	moveq	r0, r2
    28dc:	bd30      	pop	{r4, r5, pc}
    28de:	ea91 0f03 	teq	r1, r3
    28e2:	bf1e      	ittt	ne
    28e4:	2100      	movne	r1, #0
    28e6:	2000      	movne	r0, #0
    28e8:	bd30      	popne	{r4, r5, pc}
    28ea:	ea5f 5c54 	movs.w	ip, r4, lsr #21
    28ee:	d105      	bne.n	28fc <__adddf3+0x230>
    28f0:	0040      	lsls	r0, r0, #1
    28f2:	4149      	adcs	r1, r1
    28f4:	bf28      	it	cs
    28f6:	f041 4100 	orrcs.w	r1, r1, #2147483648	; 0x80000000
    28fa:	bd30      	pop	{r4, r5, pc}
    28fc:	f514 0480 	adds.w	r4, r4, #4194304	; 0x400000
    2900:	bf3c      	itt	cc
    2902:	f501 1180 	addcc.w	r1, r1, #1048576	; 0x100000
    2906:	bd30      	popcc	{r4, r5, pc}
    2908:	f001 4500 	and.w	r5, r1, #2147483648	; 0x80000000
    290c:	f045 41fe 	orr.w	r1, r5, #2130706432	; 0x7f000000
    2910:	f441 0170 	orr.w	r1, r1, #15728640	; 0xf00000
    2914:	f04f 0000 	mov.w	r0, #0
    2918:	bd30      	pop	{r4, r5, pc}
    291a:	ea7f 5c64 	mvns.w	ip, r4, asr #21
    291e:	bf1a      	itte	ne
    2920:	4619      	movne	r1, r3
    2922:	4610      	movne	r0, r2
    2924:	ea7f 5c65 	mvnseq.w	ip, r5, asr #21
    2928:	bf1c      	itt	ne
    292a:	460b      	movne	r3, r1
    292c:	4602      	movne	r2, r0
    292e:	ea50 3401 	orrs.w	r4, r0, r1, lsl #12
    2932:	bf06      	itte	eq
    2934:	ea52 3503 	orrseq.w	r5, r2, r3, lsl #12
    2938:	ea91 0f03 	teqeq	r1, r3
    293c:	f441 2100 	orrne.w	r1, r1, #524288	; 0x80000
    2940:	bd30      	pop	{r4, r5, pc}
    2942:	bf00      	nop

00002944 <__aeabi_ui2d>:
    2944:	f090 0f00 	teq	r0, #0
    2948:	bf04      	itt	eq
    294a:	2100      	moveq	r1, #0
    294c:	4770      	bxeq	lr
    294e:	b530      	push	{r4, r5, lr}
    2950:	f44f 6480 	mov.w	r4, #1024	; 0x400
    2954:	f104 0432 	add.w	r4, r4, #50	; 0x32
    2958:	f04f 0500 	mov.w	r5, #0
    295c:	f04f 0100 	mov.w	r1, #0
    2960:	e750      	b.n	2804 <__adddf3+0x138>
    2962:	bf00      	nop

00002964 <__aeabi_i2d>:
    2964:	f090 0f00 	teq	r0, #0
    2968:	bf04      	itt	eq
    296a:	2100      	moveq	r1, #0
    296c:	4770      	bxeq	lr
    296e:	b530      	push	{r4, r5, lr}
    2970:	f44f 6480 	mov.w	r4, #1024	; 0x400
    2974:	f104 0432 	add.w	r4, r4, #50	; 0x32
    2978:	f010 4500 	ands.w	r5, r0, #2147483648	; 0x80000000
    297c:	bf48      	it	mi
    297e:	4240      	negmi	r0, r0
    2980:	f04f 0100 	mov.w	r1, #0
    2984:	e73e      	b.n	2804 <__adddf3+0x138>
    2986:	bf00      	nop

00002988 <__aeabi_f2d>:
    2988:	0042      	lsls	r2, r0, #1
    298a:	ea4f 01e2 	mov.w	r1, r2, asr #3
    298e:	ea4f 0131 	mov.w	r1, r1, rrx
    2992:	ea4f 7002 	mov.w	r0, r2, lsl #28
    2996:	bf1f      	itttt	ne
    2998:	f012 437f 	andsne.w	r3, r2, #4278190080	; 0xff000000
    299c:	f093 4f7f 	teqne	r3, #4278190080	; 0xff000000
    29a0:	f081 5160 	eorne.w	r1, r1, #939524096	; 0x38000000
    29a4:	4770      	bxne	lr
    29a6:	f032 427f 	bics.w	r2, r2, #4278190080	; 0xff000000
    29aa:	bf08      	it	eq
    29ac:	4770      	bxeq	lr
    29ae:	f093 4f7f 	teq	r3, #4278190080	; 0xff000000
    29b2:	bf04      	itt	eq
    29b4:	f441 2100 	orreq.w	r1, r1, #524288	; 0x80000
    29b8:	4770      	bxeq	lr
    29ba:	b530      	push	{r4, r5, lr}
    29bc:	f44f 7460 	mov.w	r4, #896	; 0x380
    29c0:	f001 4500 	and.w	r5, r1, #2147483648	; 0x80000000
    29c4:	f021 4100 	bic.w	r1, r1, #2147483648	; 0x80000000
    29c8:	e71c      	b.n	2804 <__adddf3+0x138>
    29ca:	bf00      	nop

000029cc <__aeabi_ul2d>:
    29cc:	ea50 0201 	orrs.w	r2, r0, r1
    29d0:	bf08      	it	eq
    29d2:	4770      	bxeq	lr
    29d4:	b530      	push	{r4, r5, lr}
    29d6:	f04f 0500 	mov.w	r5, #0
    29da:	e00a      	b.n	29f2 <__aeabi_l2d+0x16>

000029dc <__aeabi_l2d>:
    29dc:	ea50 0201 	orrs.w	r2, r0, r1
    29e0:	bf08      	it	eq
    29e2:	4770      	bxeq	lr
    29e4:	b530      	push	{r4, r5, lr}
    29e6:	f011 4500 	ands.w	r5, r1, #2147483648	; 0x80000000
    29ea:	d502      	bpl.n	29f2 <__aeabi_l2d+0x16>
    29ec:	4240      	negs	r0, r0
    29ee:	eb61 0141 	sbc.w	r1, r1, r1, lsl #1
    29f2:	f44f 6480 	mov.w	r4, #1024	; 0x400
    29f6:	f104 0432 	add.w	r4, r4, #50	; 0x32
    29fa:	ea5f 5c91 	movs.w	ip, r1, lsr #22
    29fe:	f43f aed8 	beq.w	27b2 <__adddf3+0xe6>
    2a02:	f04f 0203 	mov.w	r2, #3
    2a06:	ea5f 0cdc 	movs.w	ip, ip, lsr #3
    2a0a:	bf18      	it	ne
    2a0c:	3203      	addne	r2, #3
    2a0e:	ea5f 0cdc 	movs.w	ip, ip, lsr #3
    2a12:	bf18      	it	ne
    2a14:	3203      	addne	r2, #3
    2a16:	eb02 02dc 	add.w	r2, r2, ip, lsr #3
    2a1a:	f1c2 0320 	rsb	r3, r2, #32
    2a1e:	fa00 fc03 	lsl.w	ip, r0, r3
    2a22:	fa20 f002 	lsr.w	r0, r0, r2
    2a26:	fa01 fe03 	lsl.w	lr, r1, r3
    2a2a:	ea40 000e 	orr.w	r0, r0, lr
    2a2e:	fa21 f102 	lsr.w	r1, r1, r2
    2a32:	4414      	add	r4, r2
    2a34:	e6bd      	b.n	27b2 <__adddf3+0xe6>
    2a36:	bf00      	nop
	...

00002a40 <__aeabi_frsub>:
    2a40:	f080 4000 	eor.w	r0, r0, #2147483648	; 0x80000000
    2a44:	e002      	b.n	2a4c <__addsf3>
    2a46:	bf00      	nop

00002a48 <__aeabi_fsub>:
    2a48:	f081 4100 	eor.w	r1, r1, #2147483648	; 0x80000000

00002a4c <__addsf3>:
    2a4c:	0042      	lsls	r2, r0, #1
    2a4e:	bf1f      	itttt	ne
    2a50:	ea5f 0341 	movsne.w	r3, r1, lsl #1
    2a54:	ea92 0f03 	teqne	r2, r3
    2a58:	ea7f 6c22 	mvnsne.w	ip, r2, asr #24
    2a5c:	ea7f 6c23 	mvnsne.w	ip, r3, asr #24
    2a60:	d06a      	beq.n	2b38 <__addsf3+0xec>
    2a62:	ea4f 6212 	mov.w	r2, r2, lsr #24
    2a66:	ebd2 6313 	rsbs	r3, r2, r3, lsr #24
    2a6a:	bfc1      	itttt	gt
    2a6c:	18d2      	addgt	r2, r2, r3
    2a6e:	4041      	eorgt	r1, r0
    2a70:	4048      	eorgt	r0, r1
    2a72:	4041      	eorgt	r1, r0
    2a74:	bfb8      	it	lt
    2a76:	425b      	neglt	r3, r3
    2a78:	2b19      	cmp	r3, #25
    2a7a:	bf88      	it	hi
    2a7c:	4770      	bxhi	lr
    2a7e:	f010 4f00 	tst.w	r0, #2147483648	; 0x80000000
    2a82:	f440 0000 	orr.w	r0, r0, #8388608	; 0x800000
    2a86:	f020 407f 	bic.w	r0, r0, #4278190080	; 0xff000000
    2a8a:	bf18      	it	ne
    2a8c:	4240      	negne	r0, r0
    2a8e:	f011 4f00 	tst.w	r1, #2147483648	; 0x80000000
    2a92:	f441 0100 	orr.w	r1, r1, #8388608	; 0x800000
    2a96:	f021 417f 	bic.w	r1, r1, #4278190080	; 0xff000000
    2a9a:	bf18      	it	ne
    2a9c:	4249      	negne	r1, r1
    2a9e:	ea92 0f03 	teq	r2, r3
    2aa2:	d03f      	beq.n	2b24 <__addsf3+0xd8>
    2aa4:	f1a2 0201 	sub.w	r2, r2, #1
    2aa8:	fa41 fc03 	asr.w	ip, r1, r3
    2aac:	eb10 000c 	adds.w	r0, r0, ip
    2ab0:	f1c3 0320 	rsb	r3, r3, #32
    2ab4:	fa01 f103 	lsl.w	r1, r1, r3
    2ab8:	f000 4300 	and.w	r3, r0, #2147483648	; 0x80000000
    2abc:	d502      	bpl.n	2ac4 <__addsf3+0x78>
    2abe:	4249      	negs	r1, r1
    2ac0:	eb60 0040 	sbc.w	r0, r0, r0, lsl #1
    2ac4:	f5b0 0f00 	cmp.w	r0, #8388608	; 0x800000
    2ac8:	d313      	bcc.n	2af2 <__addsf3+0xa6>
    2aca:	f1b0 7f80 	cmp.w	r0, #16777216	; 0x1000000
    2ace:	d306      	bcc.n	2ade <__addsf3+0x92>
    2ad0:	0840      	lsrs	r0, r0, #1
    2ad2:	ea4f 0131 	mov.w	r1, r1, rrx
    2ad6:	f102 0201 	add.w	r2, r2, #1
    2ada:	2afe      	cmp	r2, #254	; 0xfe
    2adc:	d251      	bcs.n	2b82 <__addsf3+0x136>
    2ade:	f1b1 4f00 	cmp.w	r1, #2147483648	; 0x80000000
    2ae2:	eb40 50c2 	adc.w	r0, r0, r2, lsl #23
    2ae6:	bf08      	it	eq
    2ae8:	f020 0001 	biceq.w	r0, r0, #1
    2aec:	ea40 0003 	orr.w	r0, r0, r3
    2af0:	4770      	bx	lr
    2af2:	0049      	lsls	r1, r1, #1
    2af4:	eb40 0000 	adc.w	r0, r0, r0
    2af8:	3a01      	subs	r2, #1
    2afa:	bf28      	it	cs
    2afc:	f5b0 0f00 	cmpcs.w	r0, #8388608	; 0x800000
    2b00:	d2ed      	bcs.n	2ade <__addsf3+0x92>
    2b02:	fab0 fc80 	clz	ip, r0
    2b06:	f1ac 0c08 	sub.w	ip, ip, #8
    2b0a:	ebb2 020c 	subs.w	r2, r2, ip
    2b0e:	fa00 f00c 	lsl.w	r0, r0, ip
    2b12:	bfaa      	itet	ge
    2b14:	eb00 50c2 	addge.w	r0, r0, r2, lsl #23
    2b18:	4252      	neglt	r2, r2
    2b1a:	4318      	orrge	r0, r3
    2b1c:	bfbc      	itt	lt
    2b1e:	40d0      	lsrlt	r0, r2
    2b20:	4318      	orrlt	r0, r3
    2b22:	4770      	bx	lr
    2b24:	f092 0f00 	teq	r2, #0
    2b28:	f481 0100 	eor.w	r1, r1, #8388608	; 0x800000
    2b2c:	bf06      	itte	eq
    2b2e:	f480 0000 	eoreq.w	r0, r0, #8388608	; 0x800000
    2b32:	3201      	addeq	r2, #1
    2b34:	3b01      	subne	r3, #1
    2b36:	e7b5      	b.n	2aa4 <__addsf3+0x58>
    2b38:	ea4f 0341 	mov.w	r3, r1, lsl #1
    2b3c:	ea7f 6c22 	mvns.w	ip, r2, asr #24
    2b40:	bf18      	it	ne
    2b42:	ea7f 6c23 	mvnsne.w	ip, r3, asr #24
    2b46:	d021      	beq.n	2b8c <__addsf3+0x140>
    2b48:	ea92 0f03 	teq	r2, r3
    2b4c:	d004      	beq.n	2b58 <__addsf3+0x10c>
    2b4e:	f092 0f00 	teq	r2, #0
    2b52:	bf08      	it	eq
    2b54:	4608      	moveq	r0, r1
    2b56:	4770      	bx	lr
    2b58:	ea90 0f01 	teq	r0, r1
    2b5c:	bf1c      	itt	ne
    2b5e:	2000      	movne	r0, #0
    2b60:	4770      	bxne	lr
    2b62:	f012 4f7f 	tst.w	r2, #4278190080	; 0xff000000
    2b66:	d104      	bne.n	2b72 <__addsf3+0x126>
    2b68:	0040      	lsls	r0, r0, #1
    2b6a:	bf28      	it	cs
    2b6c:	f040 4000 	orrcs.w	r0, r0, #2147483648	; 0x80000000
    2b70:	4770      	bx	lr
    2b72:	f112 7200 	adds.w	r2, r2, #33554432	; 0x2000000
    2b76:	bf3c      	itt	cc
    2b78:	f500 0000 	addcc.w	r0, r0, #8388608	; 0x800000
    2b7c:	4770      	bxcc	lr
    2b7e:	f000 4300 	and.w	r3, r0, #2147483648	; 0x80000000
    2b82:	f043 40fe 	orr.w	r0, r3, #2130706432	; 0x7f000000
    2b86:	f440 0000 	orr.w	r0, r0, #8388608	; 0x800000
    2b8a:	4770      	bx	lr
    2b8c:	ea7f 6222 	mvns.w	r2, r2, asr #24
    2b90:	bf16      	itet	ne
    2b92:	4608      	movne	r0, r1
    2b94:	ea7f 6323 	mvnseq.w	r3, r3, asr #24
    2b98:	4601      	movne	r1, r0
    2b9a:	0242      	lsls	r2, r0, #9
    2b9c:	bf06      	itte	eq
    2b9e:	ea5f 2341 	movseq.w	r3, r1, lsl #9
    2ba2:	ea90 0f01 	teqeq	r0, r1
    2ba6:	f440 0080 	orrne.w	r0, r0, #4194304	; 0x400000
    2baa:	4770      	bx	lr

00002bac <__aeabi_ui2f>:
    2bac:	f04f 0300 	mov.w	r3, #0
    2bb0:	e004      	b.n	2bbc <__aeabi_i2f+0x8>
    2bb2:	bf00      	nop

00002bb4 <__aeabi_i2f>:
    2bb4:	f010 4300 	ands.w	r3, r0, #2147483648	; 0x80000000
    2bb8:	bf48      	it	mi
    2bba:	4240      	negmi	r0, r0
    2bbc:	ea5f 0c00 	movs.w	ip, r0
    2bc0:	bf08      	it	eq
    2bc2:	4770      	bxeq	lr
    2bc4:	f043 4396 	orr.w	r3, r3, #1258291200	; 0x4b000000
    2bc8:	4601      	mov	r1, r0
    2bca:	f04f 0000 	mov.w	r0, #0
    2bce:	e01c      	b.n	2c0a <__aeabi_l2f+0x2a>

00002bd0 <__aeabi_ul2f>:
    2bd0:	ea50 0201 	orrs.w	r2, r0, r1
    2bd4:	bf08      	it	eq
    2bd6:	4770      	bxeq	lr
    2bd8:	f04f 0300 	mov.w	r3, #0
    2bdc:	e00a      	b.n	2bf4 <__aeabi_l2f+0x14>
    2bde:	bf00      	nop

00002be0 <__aeabi_l2f>:
    2be0:	ea50 0201 	orrs.w	r2, r0, r1
    2be4:	bf08      	it	eq
    2be6:	4770      	bxeq	lr
    2be8:	f011 4300 	ands.w	r3, r1, #2147483648	; 0x80000000
    2bec:	d502      	bpl.n	2bf4 <__aeabi_l2f+0x14>
    2bee:	4240      	negs	r0, r0
    2bf0:	eb61 0141 	sbc.w	r1, r1, r1, lsl #1
    2bf4:	ea5f 0c01 	movs.w	ip, r1
    2bf8:	bf02      	ittt	eq
    2bfa:	4684      	moveq	ip, r0
    2bfc:	4601      	moveq	r1, r0
    2bfe:	2000      	moveq	r0, #0
    2c00:	f043 43b6 	orr.w	r3, r3, #1526726656	; 0x5b000000
    2c04:	bf08      	it	eq
    2c06:	f1a3 5380 	subeq.w	r3, r3, #268435456	; 0x10000000
    2c0a:	f5a3 0300 	sub.w	r3, r3, #8388608	; 0x800000
    2c0e:	fabc f28c 	clz	r2, ip
    2c12:	3a08      	subs	r2, #8
    2c14:	eba3 53c2 	sub.w	r3, r3, r2, lsl #23
    2c18:	db10      	blt.n	2c3c <__aeabi_l2f+0x5c>
    2c1a:	fa01 fc02 	lsl.w	ip, r1, r2
    2c1e:	4463      	add	r3, ip
    2c20:	fa00 fc02 	lsl.w	ip, r0, r2
    2c24:	f1c2 0220 	rsb	r2, r2, #32
    2c28:	f1bc 4f00 	cmp.w	ip, #2147483648	; 0x80000000
    2c2c:	fa20 f202 	lsr.w	r2, r0, r2
    2c30:	eb43 0002 	adc.w	r0, r3, r2
    2c34:	bf08      	it	eq
    2c36:	f020 0001 	biceq.w	r0, r0, #1
    2c3a:	4770      	bx	lr
    2c3c:	f102 0220 	add.w	r2, r2, #32
    2c40:	fa01 fc02 	lsl.w	ip, r1, r2
    2c44:	f1c2 0220 	rsb	r2, r2, #32
    2c48:	ea50 004c 	orrs.w	r0, r0, ip, lsl #1
    2c4c:	fa21 f202 	lsr.w	r2, r1, r2
    2c50:	eb43 0002 	adc.w	r0, r3, r2
    2c54:	bf08      	it	eq
    2c56:	ea20 70dc 	biceq.w	r0, r0, ip, lsr #31
    2c5a:	4770      	bx	lr
    2c5c:	0000      	movs	r0, r0
	...

00002c60 <memcpy>:
    2c60:	4684      	mov	ip, r0
    2c62:	ea41 0300 	orr.w	r3, r1, r0
    2c66:	f013 0303 	ands.w	r3, r3, #3
    2c6a:	d16d      	bne.n	2d48 <memcpy+0xe8>
    2c6c:	3a40      	subs	r2, #64	; 0x40
    2c6e:	d341      	bcc.n	2cf4 <memcpy+0x94>
    2c70:	f851 3b04 	ldr.w	r3, [r1], #4
    2c74:	f840 3b04 	str.w	r3, [r0], #4
    2c78:	f851 3b04 	ldr.w	r3, [r1], #4
    2c7c:	f840 3b04 	str.w	r3, [r0], #4
    2c80:	f851 3b04 	ldr.w	r3, [r1], #4
    2c84:	f840 3b04 	str.w	r3, [r0], #4
    2c88:	f851 3b04 	ldr.w	r3, [r1], #4
    2c8c:	f840 3b04 	str.w	r3, [r0], #4
    2c90:	f851 3b04 	ldr.w	r3, [r1], #4
    2c94:	f840 3b04 	str.w	r3, [r0], #4
    2c98:	f851 3b04 	ldr.w	r3, [r1], #4
    2c9c:	f840 3b04 	str.w	r3, [r0], #4
    2ca0:	f851 3b04 	ldr.w	r3, [r1], #4
    2ca4:	f840 3b04 	str.w	r3, [r0], #4
    2ca8:	f851 3b04 	ldr.w	r3, [r1], #4
    2cac:	f840 3b04 	str.w	r3, [r0], #4
    2cb0:	f851 3b04 	ldr.w	r3, [r1], #4
    2cb4:	f840 3b04 	str.w	r3, [r0], #4
    2cb8:	f851 3b04 	ldr.w	r3, [r1], #4
    2cbc:	f840 3b04 	str.w	r3, [r0], #4
    2cc0:	f851 3b04 	ldr.w	r3, [r1], #4
    2cc4:	f840 3b04 	str.w	r3, [r0], #4
    2cc8:	f851 3b04 	ldr.w	r3, [r1], #4
    2ccc:	f840 3b04 	str.w	r3, [r0], #4
    2cd0:	f851 3b04 	ldr.w	r3, [r1], #4
    2cd4:	f840 3b04 	str.w	r3, [r0], #4
    2cd8:	f851 3b04 	ldr.w	r3, [r1], #4
    2cdc:	f840 3b04 	str.w	r3, [r0], #4
    2ce0:	f851 3b04 	ldr.w	r3, [r1], #4
    2ce4:	f840 3b04 	str.w	r3, [r0], #4
    2ce8:	f851 3b04 	ldr.w	r3, [r1], #4
    2cec:	f840 3b04 	str.w	r3, [r0], #4
    2cf0:	3a40      	subs	r2, #64	; 0x40
    2cf2:	d2bd      	bcs.n	2c70 <memcpy+0x10>
    2cf4:	3230      	adds	r2, #48	; 0x30
    2cf6:	d311      	bcc.n	2d1c <memcpy+0xbc>
    2cf8:	f851 3b04 	ldr.w	r3, [r1], #4
    2cfc:	f840 3b04 	str.w	r3, [r0], #4
    2d00:	f851 3b04 	ldr.w	r3, [r1], #4
    2d04:	f840 3b04 	str.w	r3, [r0], #4
    2d08:	f851 3b04 	ldr.w	r3, [r1], #4
    2d0c:	f840 3b04 	str.w	r3, [r0], #4
    2d10:	f851 3b04 	ldr.w	r3, [r1], #4
    2d14:	f840 3b04 	str.w	r3, [r0], #4
    2d18:	3a10      	subs	r2, #16
    2d1a:	d2ed      	bcs.n	2cf8 <memcpy+0x98>
    2d1c:	320c      	adds	r2, #12
    2d1e:	d305      	bcc.n	2d2c <memcpy+0xcc>
    2d20:	f851 3b04 	ldr.w	r3, [r1], #4
    2d24:	f840 3b04 	str.w	r3, [r0], #4
    2d28:	3a04      	subs	r2, #4
    2d2a:	d2f9      	bcs.n	2d20 <memcpy+0xc0>
    2d2c:	3204      	adds	r2, #4
    2d2e:	d008      	beq.n	2d42 <memcpy+0xe2>
    2d30:	07d2      	lsls	r2, r2, #31
    2d32:	bf1c      	itt	ne
    2d34:	f811 3b01 	ldrbne.w	r3, [r1], #1
    2d38:	f800 3b01 	strbne.w	r3, [r0], #1
    2d3c:	d301      	bcc.n	2d42 <memcpy+0xe2>
    2d3e:	880b      	ldrh	r3, [r1, #0]
    2d40:	8003      	strh	r3, [r0, #0]
    2d42:	4660      	mov	r0, ip
    2d44:	4770      	bx	lr
    2d46:	bf00      	nop
    2d48:	2a08      	cmp	r2, #8
    2d4a:	d313      	bcc.n	2d74 <memcpy+0x114>
    2d4c:	078b      	lsls	r3, r1, #30
    2d4e:	d08d      	beq.n	2c6c <memcpy+0xc>
    2d50:	f010 0303 	ands.w	r3, r0, #3
    2d54:	d08a      	beq.n	2c6c <memcpy+0xc>
    2d56:	f1c3 0304 	rsb	r3, r3, #4
    2d5a:	1ad2      	subs	r2, r2, r3
    2d5c:	07db      	lsls	r3, r3, #31
    2d5e:	bf1c      	itt	ne
    2d60:	f811 3b01 	ldrbne.w	r3, [r1], #1
    2d64:	f800 3b01 	strbne.w	r3, [r0], #1
    2d68:	d380      	bcc.n	2c6c <memcpy+0xc>
    2d6a:	f831 3b02 	ldrh.w	r3, [r1], #2
    2d6e:	f820 3b02 	strh.w	r3, [r0], #2
    2d72:	e77b      	b.n	2c6c <memcpy+0xc>
    2d74:	3a04      	subs	r2, #4
    2d76:	d3d9      	bcc.n	2d2c <memcpy+0xcc>
    2d78:	3a01      	subs	r2, #1
    2d7a:	f811 3b01 	ldrb.w	r3, [r1], #1
    2d7e:	f800 3b01 	strb.w	r3, [r0], #1
    2d82:	d2f9      	bcs.n	2d78 <memcpy+0x118>
    2d84:	780b      	ldrb	r3, [r1, #0]
    2d86:	7003      	strb	r3, [r0, #0]
    2d88:	784b      	ldrb	r3, [r1, #1]
    2d8a:	7043      	strb	r3, [r0, #1]
    2d8c:	788b      	ldrb	r3, [r1, #2]
    2d8e:	7083      	strb	r3, [r0, #2]
    2d90:	4660      	mov	r0, ip
    2d92:	4770      	bx	lr
	...
    2da0:	616f6c46 	cmnvs	pc, r6, asr #24
    2da4:	70412074 	subvc	r2, r1, r4, ror r0
    2da8:	65542070 	ldrbvs	r2, [r4, #-112]	; 0xffffff90
    2dac:	6e696d72 	mcrvs	13, 3, r6, cr9, cr2, {3}
    2db0:	64657461 	strbtvs	r7, [r5], #-1121	; 0xfffffb9f
	...
    2dc0:	73726556 	cmnvc	r2, #360710144	; 0x15800000
    2dc4:	206e6f69 	rsbcs	r6, lr, r9, ror #30
    2dc8:	6e616863 	cdpvs	8, 6, cr6, cr1, cr3, {3}
    2dcc:	73206567 			; <UNDEFINED> instruction: 0x73206567
    2dd0:	65636e69 	strbvs	r6, [r3, #-3689]!	; 0xfffff197
    2dd4:	73616c20 	cmnvc	r1, #32, 24	; 0x2000
    2dd8:	6f632074 	svcvs	0x00632074
    2ddc:	6769666e 	strbvs	r6, [r9, -lr, ror #12]!
    2de0:	69727720 	ldmdbvs	r2!, {r5, r8, r9, sl, ip, sp, lr}^
    2de4:	28206574 	stmdacs	r0!, {r2, r4, r5, r6, r8, sl, sp, lr}
    2de8:	66312e25 	ldrtvs	r2, [r1], -r5, lsr #28
    2dec:	20737620 	rsbscs	r7, r3, r0, lsr #12
    2df0:	66312e25 	ldrtvs	r2, [r1], -r5, lsr #28
    2df4:	00212029 	eoreq	r2, r1, r9, lsr #32
    2df8:	6b636150 	blvs	18db340 <memset+0x18d3fcc>
    2dfc:	20656761 	rsbcs	r6, r5, r1, ror #14
    2e00:	6f727245 	svcvs	0x00727245
    2e04:	52203a72 	eorpl	r3, r0, #466944	; 0x72000
    2e08:	72657665 	rsbvc	r7, r5, #105906176	; 0x6500000
    2e0c:	676e6974 			; <UNDEFINED> instruction: 0x676e6974
    2e10:	206f7420 	rsbcs	r7, pc, r0, lsr #8
    2e14:	61666564 	cmnvs	r6, r4, ror #10
    2e18:	20746c75 	rsbscs	r6, r4, r5, ror ip
    2e1c:	666e6f63 	strbtvs	r6, [lr], -r3, ror #30
    2e20:	0a216769 	beq	85cbcc <memset+0x855858>
	...
    2e30:	616f6c46 	cmnvs	pc, r6, asr #24
    2e34:	70412074 	subvc	r2, r1, r4, ror r0
    2e38:	4d203a70 	vstmdbmi	r0!, {s6-s117}
    2e3c:	69737369 	ldmdbvs	r3!, {r0, r3, r5, r6, r8, r9, ip, sp, lr}^
    2e40:	4120676e 			; <UNDEFINED> instruction: 0x4120676e
    2e44:	0a736772 	beq	1cdcc14 <memset+0x1cd58a0>
    2e48:	6f6c4600 	svcvs	0x006c4600
    2e4c:	41207461 			; <UNDEFINED> instruction: 0x41207461
    2e50:	203a7070 	eorscs	r7, sl, r0, ror r0
    2e54:	6e6f7257 	mcrvs	2, 3, r7, cr15, cr7, {2}
    2e58:	616d2067 	cmnvs	sp, r7, rrx
    2e5c:	20636967 	rsbcs	r6, r3, r7, ror #18
    2e60:	626d756e 	rsbvs	r7, sp, #461373440	; 0x1b800000
    2e64:	25207265 	strcs	r7, [r0, #-613]!	; 0xfffffd9b
    2e68:	42000a64 	andmi	r0, r0, #100, 20	; 0x64000
    2e6c:	49534655 	ldmdbmi	r3, {r0, r2, r4, r6, r9, sl, lr}^
    2e70:	7420455a 	strtvc	r4, [r0], #-1370	; 0xfffffaa6
    2e74:	73206f6f 			; <UNDEFINED> instruction: 0x73206f6f
    2e78:	6c6c616d 	stfvse	f6, [ip], #-436	; 0xfffffe4c
    2e7c:	0a2e2e2e 	beq	b8e73c <memset+0xb873c8>
    2e80:	6f6c4600 	svcvs	0x006c4600
    2e84:	41207461 			; <UNDEFINED> instruction: 0x41207461
    2e88:	203a7070 	eorscs	r7, sl, r0, ror r0
    2e8c:	6d6d6f43 	stclvs	15, cr6, [sp, #-268]!	; 0xfffffef4
    2e90:	20646e61 	rsbcs	r6, r4, r1, ror #28
    2e94:	676e656c 	strbvs	r6, [lr, -ip, ror #10]!
    2e98:	69206874 	stmdbvs	r0!, {r2, r4, r5, r6, fp, sp, lr}
    2e9c:	726f636e 	rsbvc	r6, pc, #-1207959551	; 0xb8000001
    2ea0:	74636572 	strbtvc	r6, [r3], #-1394	; 0xfffffa8e
    2ea4:	64252820 	strtvs	r2, [r5], #-2080	; 0xfffff7e0
    2ea8:	46000a29 	strmi	r0, [r0], -r9, lsr #20
    2eac:	74616f6c 	strbtvc	r6, [r1], #-3948	; 0xfffff094
    2eb0:	70704120 	rsbsvc	r4, r0, r0, lsr #2
    2eb4:	6e55203a 	mrcvs	0, 2, r2, cr5, cr10, {1}
    2eb8:	776f6e6b 	strbvc	r6, [pc, -fp, ror #28]!
    2ebc:	6f63206e 	svcvs	0x0063206e
    2ec0:	6e616d6d 	cdpvs	13, 6, cr6, cr1, cr13, {3}
    2ec4:	65722064 	ldrbvs	r2, [r2, #-100]!	; 0xffffff9c
    2ec8:	76696563 	strbtvc	r6, [r9], -r3, ror #10
    2ecc:	25206465 	strcs	r6, [r0, #-1125]!	; 0xfffffb9b
    2ed0:	73762064 	cmnvc	r6, #100	; 0x64
    2ed4:	0a642520 	beq	190c35c <memset+0x1904fe8>
	...
    2ee0:	74696e49 	strbtvc	r6, [r9], #-3657	; 0xfffff1b7
    2ee4:	6f6c4620 	svcvs	0x006c4620
    2ee8:	76207461 	strtvc	r7, [r0], -r1, ror #8
    2eec:	66312e25 	ldrtvs	r2, [r1], -r5, lsr #28
    2ef0:	53202d20 			; <UNDEFINED> instruction: 0x53202d20
    2ef4:	65677275 	strbvs	r7, [r7, #-629]!	; 0xfffffd8b
    2ef8:	46000a33 			; <UNDEFINED> instruction: 0x46000a33
    2efc:	74616f6c 	strbtvc	r6, [r1], #-3948	; 0xfffff094
    2f00:	69614d20 	stmdbvs	r1!, {r5, r8, sl, fp, lr}^
    2f04:	7865006e 	stmdavc	r5!, {r1, r2, r3, r5, r6}^
    2f08:	6e742d74 	mrcvs	13, 3, r2, cr4, cr4, {3}
    2f0c:	62642d74 	rsbvs	r2, r4, #116, 26	; 0x1d00
    2f10:	78650067 	stmdavc	r5!, {r0, r1, r2, r5, r6}^
    2f14:	65732d74 	ldrbvs	r2, [r3, #-3444]!	; 0xfffff28c
    2f18:	77662d74 			; <UNDEFINED> instruction: 0x77662d74
    2f1c:	7265762d 	rsbvc	r7, r5, #47185920	; 0x2d00000
    2f20:	6e6f6973 			; <UNDEFINED> instruction: 0x6e6f6973
	...

00002f30 <npio2_hw>:
    2f30:	3fc90f00 	svccc	0x00c90f00
    2f34:	40490f00 	submi	r0, r9, r0, lsl #30
    2f38:	4096cb00 	addsmi	ip, r6, r0, lsl #22
    2f3c:	40c90f00 	sbcmi	r0, r9, r0, lsl #30
    2f40:	40fb5300 	rscsmi	r5, fp, r0, lsl #6
    2f44:	4116cb00 	tstmi	r6, r0, lsl #22
    2f48:	412fed00 			; <UNDEFINED> instruction: 0x412fed00
    2f4c:	41490f00 	cmpmi	r9, r0, lsl #30
    2f50:	41623100 	cmnmi	r2, r0, lsl #2
    2f54:	417b5300 	cmnmi	fp, r0, lsl #6
    2f58:	418a3a00 	orrmi	r3, sl, r0, lsl #20
    2f5c:	4196cb00 	orrsmi	ip, r6, r0, lsl #22
    2f60:	41a35c00 			; <UNDEFINED> instruction: 0x41a35c00
    2f64:	41afed00 			; <UNDEFINED> instruction: 0x41afed00
    2f68:	41bc7e00 			; <UNDEFINED> instruction: 0x41bc7e00
    2f6c:	41c90f00 	bicmi	r0, r9, r0, lsl #30
    2f70:	41d5a000 	bicsmi	sl, r5, r0
    2f74:	41e23100 	mvnmi	r3, r0, lsl #2
    2f78:	41eec200 	mvnmi	ip, r0, lsl #4
    2f7c:	41fb5300 	mvnsmi	r5, r0, lsl #6
    2f80:	4203f200 	andmi	pc, r3, #0, 4
    2f84:	420a3a00 	andmi	r3, sl, #0, 20
    2f88:	42108300 	andsmi	r8, r0, #0, 6
    2f8c:	4216cb00 	andsmi	ip, r6, #0, 22
    2f90:	421d1400 	andsmi	r1, sp, #0, 8
    2f94:	42235c00 	eormi	r5, r3, #0, 24
    2f98:	4229a500 	eormi	sl, r9, #0, 10
    2f9c:	422fed00 	eormi	lr, pc, #0, 26
    2fa0:	42363600 	eorsmi	r3, r6, #0, 12
    2fa4:	423c7e00 	eorsmi	r7, ip, #0, 28
    2fa8:	4242c700 	submi	ip, r2, #0, 14
    2fac:	42490f00 	submi	r0, r9, #0, 30

00002fb0 <two_over_pi>:
    2fb0:	000000a2 	andeq	r0, r0, r2, lsr #1
    2fb4:	000000f9 	strdeq	r0, [r0], -r9
    2fb8:	00000083 	andeq	r0, r0, r3, lsl #1
    2fbc:	0000006e 	andeq	r0, r0, lr, rrx
    2fc0:	0000004e 	andeq	r0, r0, lr, asr #32
    2fc4:	00000044 	andeq	r0, r0, r4, asr #32
    2fc8:	00000015 	andeq	r0, r0, r5, lsl r0
    2fcc:	00000029 	andeq	r0, r0, r9, lsr #32
    2fd0:	000000fc 	strdeq	r0, [r0], -ip
    2fd4:	00000027 	andeq	r0, r0, r7, lsr #32
    2fd8:	00000057 	andeq	r0, r0, r7, asr r0
    2fdc:	000000d1 	ldrdeq	r0, [r0], -r1
    2fe0:	000000f5 	strdeq	r0, [r0], -r5
    2fe4:	00000034 	andeq	r0, r0, r4, lsr r0
    2fe8:	000000dd 	ldrdeq	r0, [r0], -sp
    2fec:	000000c0 	andeq	r0, r0, r0, asr #1
    2ff0:	000000db 	ldrdeq	r0, [r0], -fp
    2ff4:	00000062 	andeq	r0, r0, r2, rrx
    2ff8:	00000095 	muleq	r0, r5, r0
    2ffc:	00000099 	muleq	r0, r9, r0
    3000:	0000003c 	andeq	r0, r0, ip, lsr r0
    3004:	00000043 	andeq	r0, r0, r3, asr #32
    3008:	00000090 	muleq	r0, r0, r0
    300c:	00000041 	andeq	r0, r0, r1, asr #32
    3010:	000000fe 	strdeq	r0, [r0], -lr
    3014:	00000051 	andeq	r0, r0, r1, asr r0
    3018:	00000063 	andeq	r0, r0, r3, rrx
    301c:	000000ab 	andeq	r0, r0, fp, lsr #1
    3020:	000000de 	ldrdeq	r0, [r0], -lr
    3024:	000000bb 	strheq	r0, [r0], -fp
    3028:	000000c5 	andeq	r0, r0, r5, asr #1
    302c:	00000061 	andeq	r0, r0, r1, rrx
    3030:	000000b7 	strheq	r0, [r0], -r7
    3034:	00000024 	andeq	r0, r0, r4, lsr #32
    3038:	0000006e 	andeq	r0, r0, lr, rrx
    303c:	0000003a 	andeq	r0, r0, sl, lsr r0
    3040:	00000042 	andeq	r0, r0, r2, asr #32
    3044:	0000004d 	andeq	r0, r0, sp, asr #32
    3048:	000000d2 	ldrdeq	r0, [r0], -r2
    304c:	000000e0 	andeq	r0, r0, r0, ror #1
    3050:	00000006 	andeq	r0, r0, r6
    3054:	00000049 	andeq	r0, r0, r9, asr #32
    3058:	0000002e 	andeq	r0, r0, lr, lsr #32
    305c:	000000ea 	andeq	r0, r0, sl, ror #1
    3060:	00000009 	andeq	r0, r0, r9
    3064:	000000d1 	ldrdeq	r0, [r0], -r1
    3068:	00000092 	muleq	r0, r2, r0
    306c:	0000001c 	andeq	r0, r0, ip, lsl r0
    3070:	000000fe 	strdeq	r0, [r0], -lr
    3074:	0000001d 	andeq	r0, r0, sp, lsl r0
    3078:	000000eb 	andeq	r0, r0, fp, ror #1
    307c:	0000001c 	andeq	r0, r0, ip, lsl r0
    3080:	000000b1 	strheq	r0, [r0], -r1
    3084:	00000029 	andeq	r0, r0, r9, lsr #32
    3088:	000000a7 	andeq	r0, r0, r7, lsr #1
    308c:	0000003e 	andeq	r0, r0, lr, lsr r0
    3090:	000000e8 	andeq	r0, r0, r8, ror #1
    3094:	00000082 	andeq	r0, r0, r2, lsl #1
    3098:	00000035 	andeq	r0, r0, r5, lsr r0
    309c:	000000f5 	strdeq	r0, [r0], -r5
    30a0:	0000002e 	andeq	r0, r0, lr, lsr #32
    30a4:	000000bb 	strheq	r0, [r0], -fp
    30a8:	00000044 	andeq	r0, r0, r4, asr #32
    30ac:	00000084 	andeq	r0, r0, r4, lsl #1
    30b0:	000000e9 	andeq	r0, r0, r9, ror #1
    30b4:	0000009c 	muleq	r0, ip, r0
    30b8:	00000070 	andeq	r0, r0, r0, ror r0
    30bc:	00000026 	andeq	r0, r0, r6, lsr #32
    30c0:	000000b4 	strheq	r0, [r0], -r4
    30c4:	0000005f 	andeq	r0, r0, pc, asr r0
    30c8:	0000007e 	andeq	r0, r0, lr, ror r0
    30cc:	00000041 	andeq	r0, r0, r1, asr #32
    30d0:	00000039 	andeq	r0, r0, r9, lsr r0
    30d4:	00000091 	muleq	r0, r1, r0
    30d8:	000000d6 	ldrdeq	r0, [r0], -r6
    30dc:	00000039 	andeq	r0, r0, r9, lsr r0
    30e0:	00000083 	andeq	r0, r0, r3, lsl #1
    30e4:	00000053 	andeq	r0, r0, r3, asr r0
    30e8:	00000039 	andeq	r0, r0, r9, lsr r0
    30ec:	000000f4 	strdeq	r0, [r0], -r4
    30f0:	0000009c 	muleq	r0, ip, r0
    30f4:	00000084 	andeq	r0, r0, r4, lsl #1
    30f8:	0000005f 	andeq	r0, r0, pc, asr r0
    30fc:	0000008b 	andeq	r0, r0, fp, lsl #1
    3100:	000000bd 	strheq	r0, [r0], -sp
    3104:	000000f9 	strdeq	r0, [r0], -r9
    3108:	00000028 	andeq	r0, r0, r8, lsr #32
    310c:	0000003b 	andeq	r0, r0, fp, lsr r0
    3110:	0000001f 	andeq	r0, r0, pc, lsl r0
    3114:	000000f8 	strdeq	r0, [r0], -r8
    3118:	00000097 	muleq	r0, r7, r0
    311c:	000000ff 	strdeq	r0, [r0], -pc	; <UNPREDICTABLE>
    3120:	000000de 	ldrdeq	r0, [r0], -lr
    3124:	00000005 	andeq	r0, r0, r5
    3128:	00000098 	muleq	r0, r8, r0
    312c:	0000000f 	andeq	r0, r0, pc
    3130:	000000ef 	andeq	r0, r0, pc, ror #1
    3134:	0000002f 	andeq	r0, r0, pc, lsr #32
    3138:	00000011 	andeq	r0, r0, r1, lsl r0
    313c:	0000008b 	andeq	r0, r0, fp, lsl #1
    3140:	0000005a 	andeq	r0, r0, sl, asr r0
    3144:	0000000a 	andeq	r0, r0, sl
    3148:	0000006d 	andeq	r0, r0, sp, rrx
    314c:	0000001f 	andeq	r0, r0, pc, lsl r0
    3150:	0000006d 	andeq	r0, r0, sp, rrx
    3154:	00000036 	andeq	r0, r0, r6, lsr r0
    3158:	0000007e 	andeq	r0, r0, lr, ror r0
    315c:	000000cf 	andeq	r0, r0, pc, asr #1
    3160:	00000027 	andeq	r0, r0, r7, lsr #32
    3164:	000000cb 	andeq	r0, r0, fp, asr #1
    3168:	00000009 	andeq	r0, r0, r9
    316c:	000000b7 	strheq	r0, [r0], -r7
    3170:	0000004f 	andeq	r0, r0, pc, asr #32
    3174:	00000046 	andeq	r0, r0, r6, asr #32
    3178:	0000003f 	andeq	r0, r0, pc, lsr r0
    317c:	00000066 	andeq	r0, r0, r6, rrx
    3180:	0000009e 	muleq	r0, lr, r0
    3184:	0000005f 	andeq	r0, r0, pc, asr r0
    3188:	000000ea 	andeq	r0, r0, sl, ror #1
    318c:	0000002d 	andeq	r0, r0, sp, lsr #32
    3190:	00000075 	andeq	r0, r0, r5, ror r0
    3194:	00000027 	andeq	r0, r0, r7, lsr #32
    3198:	000000ba 	strheq	r0, [r0], -sl
    319c:	000000c7 	andeq	r0, r0, r7, asr #1
    31a0:	000000eb 	andeq	r0, r0, fp, ror #1
    31a4:	000000e5 	andeq	r0, r0, r5, ror #1
    31a8:	000000f1 	strdeq	r0, [r0], -r1
    31ac:	0000007b 	andeq	r0, r0, fp, ror r0
    31b0:	0000003d 	andeq	r0, r0, sp, lsr r0
    31b4:	00000007 	andeq	r0, r0, r7
    31b8:	00000039 	andeq	r0, r0, r9, lsr r0
    31bc:	000000f7 	strdeq	r0, [r0], -r7
    31c0:	0000008a 	andeq	r0, r0, sl, lsl #1
    31c4:	00000052 	andeq	r0, r0, r2, asr r0
    31c8:	00000092 	muleq	r0, r2, r0
    31cc:	000000ea 	andeq	r0, r0, sl, ror #1
    31d0:	0000006b 	andeq	r0, r0, fp, rrx
    31d4:	000000fb 	strdeq	r0, [r0], -fp
    31d8:	0000005f 	andeq	r0, r0, pc, asr r0
    31dc:	000000b1 	strheq	r0, [r0], -r1
    31e0:	0000001f 	andeq	r0, r0, pc, lsl r0
    31e4:	0000008d 	andeq	r0, r0, sp, lsl #1
    31e8:	0000005d 	andeq	r0, r0, sp, asr r0
    31ec:	00000008 	andeq	r0, r0, r8
    31f0:	00000056 	andeq	r0, r0, r6, asr r0
    31f4:	00000003 	andeq	r0, r0, r3
    31f8:	00000030 	andeq	r0, r0, r0, lsr r0
    31fc:	00000046 	andeq	r0, r0, r6, asr #32
    3200:	000000fc 	strdeq	r0, [r0], -ip
    3204:	0000007b 	andeq	r0, r0, fp, ror r0
    3208:	0000006b 	andeq	r0, r0, fp, rrx
    320c:	000000ab 	andeq	r0, r0, fp, lsr #1
    3210:	000000f0 	strdeq	r0, [r0], -r0	; <UNPREDICTABLE>
    3214:	000000cf 	andeq	r0, r0, pc, asr #1
    3218:	000000bc 	strheq	r0, [r0], -ip
    321c:	00000020 	andeq	r0, r0, r0, lsr #32
    3220:	0000009a 	muleq	r0, sl, r0
    3224:	000000f4 	strdeq	r0, [r0], -r4
    3228:	00000036 	andeq	r0, r0, r6, lsr r0
    322c:	0000001d 	andeq	r0, r0, sp, lsl r0
    3230:	000000a9 	andeq	r0, r0, r9, lsr #1
    3234:	000000e3 	andeq	r0, r0, r3, ror #1
    3238:	00000091 	muleq	r0, r1, r0
    323c:	00000061 	andeq	r0, r0, r1, rrx
    3240:	0000005e 	andeq	r0, r0, lr, asr r0
    3244:	000000e6 	andeq	r0, r0, r6, ror #1
    3248:	0000001b 	andeq	r0, r0, fp, lsl r0
    324c:	00000008 	andeq	r0, r0, r8
    3250:	00000065 	andeq	r0, r0, r5, rrx
    3254:	00000099 	muleq	r0, r9, r0
    3258:	00000085 	andeq	r0, r0, r5, lsl #1
    325c:	0000005f 	andeq	r0, r0, pc, asr r0
    3260:	00000014 	andeq	r0, r0, r4, lsl r0
    3264:	000000a0 	andeq	r0, r0, r0, lsr #1
    3268:	00000068 	andeq	r0, r0, r8, rrx
    326c:	00000040 	andeq	r0, r0, r0, asr #32
    3270:	0000008d 	andeq	r0, r0, sp, lsl #1
    3274:	000000ff 	strdeq	r0, [r0], -pc	; <UNPREDICTABLE>
    3278:	000000d8 	ldrdeq	r0, [r0], -r8
    327c:	00000080 	andeq	r0, r0, r0, lsl #1
    3280:	0000004d 	andeq	r0, r0, sp, asr #32
    3284:	00000073 	andeq	r0, r0, r3, ror r0
    3288:	00000027 	andeq	r0, r0, r7, lsr #32
    328c:	00000031 	andeq	r0, r0, r1, lsr r0
    3290:	00000006 	andeq	r0, r0, r6
    3294:	00000006 	andeq	r0, r0, r6
    3298:	00000015 	andeq	r0, r0, r5, lsl r0
    329c:	00000056 	andeq	r0, r0, r6, asr r0
    32a0:	000000ca 	andeq	r0, r0, sl, asr #1
    32a4:	00000073 	andeq	r0, r0, r3, ror r0
    32a8:	000000a8 	andeq	r0, r0, r8, lsr #1
    32ac:	000000c9 	andeq	r0, r0, r9, asr #1
    32b0:	00000060 	andeq	r0, r0, r0, rrx
    32b4:	000000e2 	andeq	r0, r0, r2, ror #1
    32b8:	0000007b 	andeq	r0, r0, fp, ror r0
    32bc:	000000c0 	andeq	r0, r0, r0, asr #1
    32c0:	0000008c 	andeq	r0, r0, ip, lsl #1
    32c4:	0000006b 	andeq	r0, r0, fp, rrx
	...

000032d0 <PIo2>:
    32d0:	3fc90000 	svccc	0x00c90000
    32d4:	39f00000 	ldmibcc	r0!, {}^	; <UNPREDICTABLE>
    32d8:	37da0000 	ldrbcc	r0, [sl, r0]
    32dc:	33a20000 			; <UNDEFINED> instruction: 0x33a20000
    32e0:	2e840000 	cdpcs	0, 8, cr0, cr4, cr0, {0}
    32e4:	2b500000 	blcs	14032ec <memset+0x13fbf78>
    32e8:	27c20000 	strbcs	r0, [r2, r0]
    32ec:	22d00000 	sbcscs	r0, r0, #0
    32f0:	1fc40000 	svcne	0x00c40000
    32f4:	1bc60000 	blne	ff1832fc <memset+0xff17bf88>
    32f8:	17440000 	strbne	r0, [r4, -r0]
    32fc:	00000000 	andeq	r0, r0, r0

00003300 <init_jk>:
    3300:	00000004 	andeq	r0, r0, r4
    3304:	00000007 	andeq	r0, r0, r7
    3308:	00000009 	andeq	r0, r0, r9

Disassembly of section .text.reset_vars:

0000330c <reset_vars>:
    330c:	ed90 7ab3 	vldr	s14, [r0, #716]	; 0x2cc
    3310:	edd0 7ad4 	vldr	s15, [r0, #848]	; 0x350
    3314:	f8d0 319c 	ldr.w	r3, [r0, #412]	; 0x19c
    3318:	eeb4 7a67 	vcmp.f32	s14, s15
    331c:	b570      	push	{r4, r5, r6, lr}
    331e:	eef1 fa10 	vmrs	APSR_nzcv, fpscr
    3322:	f04f 0500 	mov.w	r5, #0
    3326:	4604      	mov	r4, r0
    3328:	f8c0 52b4 	str.w	r5, [r0, #692]	; 0x2b4
    332c:	f8c0 32c0 	str.w	r3, [r0, #704]	; 0x2c0
    3330:	f8c0 32c8 	str.w	r3, [r0, #712]	; 0x2c8
    3334:	f8c0 52c4 	str.w	r5, [r0, #708]	; 0x2c4
    3338:	d04e      	beq.n	33d8 <reset_vars+0xcc>
    333a:	f8c4 52cc 	str.w	r5, [r4, #716]	; 0x2cc
    333e:	2301      	movs	r3, #1
    3340:	2600      	movs	r6, #0
    3342:	f884 32a1 	strb.w	r3, [r4, #673]	; 0x2a1
    3346:	f8d4 30e4 	ldr.w	r3, [r4, #228]	; 0xe4
    334a:	f8c4 312c 	str.w	r3, [r4, #300]	; 0x12c
    334e:	f884 62d8 	strb.w	r6, [r4, #728]	; 0x2d8
    3352:	f8c4 52dc 	str.w	r5, [r4, #732]	; 0x2dc
    3356:	f8c4 52e0 	str.w	r5, [r4, #736]	; 0x2e0
    335a:	f8c4 52e4 	str.w	r5, [r4, #740]	; 0x2e4
    335e:	f8c4 5318 	str.w	r5, [r4, #792]	; 0x318
    3362:	f884 632c 	strb.w	r6, [r4, #812]	; 0x32c
    3366:	f8c4 52bc 	str.w	r5, [r4, #700]	; 0x2bc
    336a:	f8c4 52b0 	str.w	r5, [r4, #688]	; 0x2b0
    336e:	f8c4 52a8 	str.w	r5, [r4, #680]	; 0x2a8
    3372:	f8c4 5330 	str.w	r5, [r4, #816]	; 0x330
    3376:	22a0      	movs	r2, #160	; 0xa0
    3378:	4631      	mov	r1, r6
    337a:	f504 70fc 	add.w	r0, r4, #504	; 0x1f8
    337e:	f003 fff9 	bl	7374 <memset>
    3382:	f8c4 629c 	str.w	r6, [r4, #668]	; 0x29c
    3386:	f8c4 5298 	str.w	r5, [r4, #664]	; 0x298
    338a:	2228      	movs	r2, #40	; 0x28
    338c:	4631      	mov	r1, r6
    338e:	f504 7073 	add.w	r0, r4, #972	; 0x3cc
    3392:	f003 ffef 	bl	7374 <memset>
    3396:	f8c4 63f8 	str.w	r6, [r4, #1016]	; 0x3f8
    339a:	f8c4 53f4 	str.w	r5, [r4, #1012]	; 0x3f4
    339e:	f504 707f 	add.w	r0, r4, #1020	; 0x3fc
    33a2:	f44f 727a 	mov.w	r2, #1000	; 0x3e8
    33a6:	4631      	mov	r1, r6
    33a8:	f003 ffe4 	bl	7374 <memset>
    33ac:	f204 73e4 	addw	r3, r4, #2020	; 0x7e4
    33b0:	f8c4 67e8 	str.w	r6, [r4, #2024]	; 0x7e8
    33b4:	601d      	str	r5, [r3, #0]
    33b6:	f8d4 3124 	ldr.w	r3, [r4, #292]	; 0x124
    33ba:	f8c4 3120 	str.w	r3, [r4, #288]	; 0x120
    33be:	f604 0318 	addw	r3, r4, #2072	; 0x818
    33c2:	601d      	str	r5, [r3, #0]
    33c4:	f604 031c 	addw	r3, r4, #2076	; 0x81c
    33c8:	601d      	str	r5, [r3, #0]
    33ca:	f504 6302 	add.w	r3, r4, #2080	; 0x820
    33ce:	f604 0424 	addw	r4, r4, #2084	; 0x824
    33d2:	601d      	str	r5, [r3, #0]
    33d4:	6025      	str	r5, [r4, #0]
    33d6:	bd70      	pop	{r4, r5, r6, pc}
    33d8:	4b05      	ldr	r3, [pc, #20]	; (33f0 <reset_vars+0xe4>)
    33da:	f8d3 3350 	ldr.w	r3, [r3, #848]	; 0x350
    33de:	4798      	blx	r3
    33e0:	eef7 7a00 	vmov.f32	s15, #112	; 0x3f800000  1.0
    33e4:	eeb4 0ae7 	vcmpe.f32	s0, s15
    33e8:	eef1 fa10 	vmrs	APSR_nzcv, fpscr
    33ec:	d5a5      	bpl.n	333a <reset_vars+0x2e>
    33ee:	e7a6      	b.n	333e <reset_vars+0x32>
    33f0:	1000f800 	andne	pc, r0, r0, lsl #16

Disassembly of section .text.set_current:

000033f4 <set_current>:
    33f4:	b570      	push	{r4, r5, r6, lr}
    33f6:	eeb5 0ac0 	vcmpe.f32	s0, #0.0
    33fa:	eef1 fa10 	vmrs	APSR_nzcv, fpscr
    33fe:	ed2d 8b02 	vpush	{d8}
    3402:	4c1b      	ldr	r4, [pc, #108]	; (3470 <set_current+0x7c>)
    3404:	4605      	mov	r5, r0
    3406:	eeb0 8a40 	vmov.f32	s16, s0
    340a:	dd1f      	ble.n	344c <set_current+0x58>
    340c:	f8d4 32e0 	ldr.w	r3, [r4, #736]	; 0x2e0
    3410:	2000      	movs	r0, #0
    3412:	4798      	blx	r3
    3414:	eeb4 0ac8 	vcmpe.f32	s0, s16
    3418:	eef1 fa10 	vmrs	APSR_nzcv, fpscr
    341c:	d516      	bpl.n	344c <set_current+0x58>
    341e:	f8d4 32e0 	ldr.w	r3, [r4, #736]	; 0x2e0
    3422:	2000      	movs	r0, #0
    3424:	4798      	blx	r3
    3426:	eeb0 8a40 	vmov.f32	s16, s0
    342a:	f8d4 32bc 	ldr.w	r3, [r4, #700]	; 0x2bc
    342e:	4798      	blx	r3
    3430:	f8d4 3218 	ldr.w	r3, [r4, #536]	; 0x218
    3434:	ed95 0ac5 	vldr	s0, [r5, #788]	; 0x314
    3438:	4798      	blx	r3
    343a:	eeb0 0a48 	vmov.f32	s0, s16
    343e:	ecbd 8b02 	vpop	{d8}
    3442:	f8d4 3188 	ldr.w	r3, [r4, #392]	; 0x188
    3446:	e8bd 4070 	ldmia.w	sp!, {r4, r5, r6, lr}
    344a:	4718      	bx	r3
    344c:	eeb5 8ac0 	vcmpe.f32	s16, #0.0
    3450:	eef1 fa10 	vmrs	APSR_nzcv, fpscr
    3454:	d5e9      	bpl.n	342a <set_current+0x36>
    3456:	f8d4 32e0 	ldr.w	r3, [r4, #736]	; 0x2e0
    345a:	2001      	movs	r0, #1
    345c:	4798      	blx	r3
    345e:	eeb4 0ac8 	vcmpe.f32	s0, s16
    3462:	eef1 fa10 	vmrs	APSR_nzcv, fpscr
    3466:	dde0      	ble.n	342a <set_current+0x36>
    3468:	f8d4 32e0 	ldr.w	r3, [r4, #736]	; 0x2e0
    346c:	2001      	movs	r0, #1
    346e:	e7d9      	b.n	3424 <set_current+0x30>
    3470:	1000f800 	andne	pc, r0, r0, lsl #16

Disassembly of section .text.imu_ref_callback:

00003474 <imu_ref_callback>:
    3474:	b570      	push	{r4, r5, r6, lr}
    3476:	4e0d      	ldr	r6, [pc, #52]	; (34ac <imu_ref_callback+0x38>)
    3478:	ed2d 8b02 	vpush	{d8}
    347c:	4605      	mov	r5, r0
    347e:	480c      	ldr	r0, [pc, #48]	; (34b0 <imu_ref_callback+0x3c>)
    3480:	f8d6 30cc 	ldr.w	r3, [r6, #204]	; 0xcc
    3484:	eeb0 8a40 	vmov.f32	s16, s0
    3488:	4478      	add	r0, pc
    348a:	460c      	mov	r4, r1
    348c:	4798      	blx	r3
    348e:	eeb0 0a48 	vmov.f32	s0, s16
    3492:	ecbd 8b02 	vpop	{d8}
    3496:	6802      	ldr	r2, [r0, #0]
    3498:	f8d6 332c 	ldr.w	r3, [r6, #812]	; 0x32c
    349c:	4629      	mov	r1, r5
    349e:	4620      	mov	r0, r4
    34a0:	f502 72b4 	add.w	r2, r2, #360	; 0x168
    34a4:	e8bd 4070 	ldmia.w	sp!, {r4, r5, r6, lr}
    34a8:	4718      	bx	r3
    34aa:	bf00      	nop
    34ac:	1000f800 	andne	pc, r0, r0, lsl #16
    34b0:	ffffcb74 			; <UNDEFINED> instruction: 0xffffcb74

Disassembly of section .text.ext_set_fw_version:

000034b4 <ext_set_fw_version>:
    34b4:	b570      	push	{r4, r5, r6, lr}
    34b6:	4c0e      	ldr	r4, [pc, #56]	; (34f0 <ext_set_fw_version+0x3c>)
    34b8:	4605      	mov	r5, r0
    34ba:	480e      	ldr	r0, [pc, #56]	; (34f4 <ext_set_fw_version+0x40>)
    34bc:	f8d4 30cc 	ldr.w	r3, [r4, #204]	; 0xcc
    34c0:	460e      	mov	r6, r1
    34c2:	4478      	add	r0, pc
    34c4:	4798      	blx	r3
    34c6:	2e02      	cmp	r6, #2
    34c8:	d90f      	bls.n	34ea <ext_set_fw_version+0x36>
    34ca:	6806      	ldr	r6, [r0, #0]
    34cc:	6e63      	ldr	r3, [r4, #100]	; 0x64
    34ce:	6828      	ldr	r0, [r5, #0]
    34d0:	4798      	blx	r3
    34d2:	6e63      	ldr	r3, [r4, #100]	; 0x64
    34d4:	f8c6 0100 	str.w	r0, [r6, #256]	; 0x100
    34d8:	6868      	ldr	r0, [r5, #4]
    34da:	4798      	blx	r3
    34dc:	6e63      	ldr	r3, [r4, #100]	; 0x64
    34de:	f8c6 0104 	str.w	r0, [r6, #260]	; 0x104
    34e2:	68a8      	ldr	r0, [r5, #8]
    34e4:	4798      	blx	r3
    34e6:	f8c6 0108 	str.w	r0, [r6, #264]	; 0x108
    34ea:	f8d4 008c 	ldr.w	r0, [r4, #140]	; 0x8c
    34ee:	bd70      	pop	{r4, r5, r6, pc}
    34f0:	1000f800 	andne	pc, r0, r0, lsl #16
    34f4:	ffffcb3a 			; <UNDEFINED> instruction: 0xffffcb3a

Disassembly of section .text.get_cfg_xml:

000034f8 <get_cfg_xml>:
    34f8:	4b05      	ldr	r3, [pc, #20]	; (3510 <get_cfg_xml+0x18>)
    34fa:	4a06      	ldr	r2, [pc, #24]	; (3514 <get_cfg_xml+0x1c>)
    34fc:	447b      	add	r3, pc
    34fe:	589b      	ldr	r3, [r3, r2]
    3500:	4a05      	ldr	r2, [pc, #20]	; (3518 <get_cfg_xml+0x20>)
    3502:	447a      	add	r2, pc
    3504:	4413      	add	r3, r2
    3506:	6003      	str	r3, [r0, #0]
    3508:	f242 5093 	movw	r0, #9619	; 0x2593
    350c:	4770      	bx	lr
    350e:	bf00      	nop
    3510:	fffff1ac 			; <UNDEFINED> instruction: 0xfffff1ac
    3514:	00000000 	andeq	r0, r0, r0
    3518:	ffffcafa 			; <UNDEFINED> instruction: 0xffffcafa

Disassembly of section .text.stop:

0000351c <stop>:
    351c:	b570      	push	{r4, r5, r6, lr}
    351e:	4c10      	ldr	r4, [pc, #64]	; (3560 <stop+0x44>)
    3520:	4605      	mov	r5, r0
    3522:	f8d4 3320 	ldr.w	r3, [r4, #800]	; 0x320
    3526:	2000      	movs	r0, #0
    3528:	4798      	blx	r3
    352a:	f8d4 3254 	ldr.w	r3, [r4, #596]	; 0x254
    352e:	2000      	movs	r0, #0
    3530:	4798      	blx	r3
    3532:	f8d4 32dc 	ldr.w	r3, [r4, #732]	; 0x2dc
    3536:	4798      	blx	r3
    3538:	f8d4 30c4 	ldr.w	r3, [r4, #196]	; 0xc4
    353c:	6828      	ldr	r0, [r5, #0]
    353e:	4798      	blx	r3
    3540:	f8d4 3354 	ldr.w	r3, [r4, #852]	; 0x354
    3544:	4798      	blx	r3
    3546:	b920      	cbnz	r0, 3552 <stop+0x36>
    3548:	4806      	ldr	r0, [pc, #24]	; (3564 <stop+0x48>)
    354a:	f8d4 30b4 	ldr.w	r3, [r4, #180]	; 0xb4
    354e:	4478      	add	r0, pc
    3550:	4798      	blx	r3
    3552:	f8d4 30bc 	ldr.w	r3, [r4, #188]	; 0xbc
    3556:	4628      	mov	r0, r5
    3558:	e8bd 4070 	ldmia.w	sp!, {r4, r5, r6, lr}
    355c:	4718      	bx	r3
    355e:	bf00      	nop
    3560:	1000f800 	andne	pc, r0, r0, lsl #16
    3564:	fffff84e 			; <UNDEFINED> instruction: 0xfffff84e

Disassembly of section .text.read_cfg_from_eeprom:

00003568 <read_cfg_from_eeprom>:
    3568:	e92d 43f0 	stmdb	sp!, {r4, r5, r6, r7, r8, r9, lr}
    356c:	ed2d 8b02 	vpush	{d8}
    3570:	4c2e      	ldr	r4, [pc, #184]	; (362c <read_cfg_from_eeprom+0xc4>)
    3572:	b085      	sub	sp, #20
    3574:	f8d4 30b8 	ldr.w	r3, [r4, #184]	; 0xb8
    3578:	4605      	mov	r5, r0
    357a:	f44f 7080 	mov.w	r0, #256	; 0x100
    357e:	4798      	blx	r3
    3580:	f10d 090c 	add.w	r9, sp, #12
    3584:	4606      	mov	r6, r0
    3586:	f8d4 32b4 	ldr.w	r3, [r4, #692]	; 0x2b4
    358a:	2100      	movs	r1, #0
    358c:	4648      	mov	r0, r9
    358e:	4798      	blx	r3
    3590:	2800      	cmp	r0, #0
    3592:	d03d      	beq.n	3610 <read_cfg_from_eeprom+0xa8>
    3594:	4b26      	ldr	r3, [pc, #152]	; (3630 <read_cfg_from_eeprom+0xc8>)
    3596:	9a03      	ldr	r2, [sp, #12]
    3598:	429a      	cmp	r2, r3
    359a:	d139      	bne.n	3610 <read_cfg_from_eeprom+0xa8>
    359c:	f1a6 0804 	sub.w	r8, r6, #4
    35a0:	2700      	movs	r7, #0
    35a2:	3701      	adds	r7, #1
    35a4:	f8d4 32b4 	ldr.w	r3, [r4, #692]	; 0x2b4
    35a8:	4639      	mov	r1, r7
    35aa:	4648      	mov	r0, r9
    35ac:	4798      	blx	r3
    35ae:	b378      	cbz	r0, 3610 <read_cfg_from_eeprom+0xa8>
    35b0:	9b03      	ldr	r3, [sp, #12]
    35b2:	f848 3f04 	str.w	r3, [r8, #4]!
    35b6:	2f40      	cmp	r7, #64	; 0x40
    35b8:	d1f3      	bne.n	35a2 <read_cfg_from_eeprom+0x3a>
    35ba:	22fc      	movs	r2, #252	; 0xfc
    35bc:	4631      	mov	r1, r6
    35be:	1d28      	adds	r0, r5, #4
    35c0:	f7ff fb4e 	bl	2c60 <memcpy>
    35c4:	edd5 7a01 	vldr	s15, [r5, #4]
    35c8:	eeb7 8a00 	vmov.f32	s16, #112	; 0x3f800000  1.0
    35cc:	eef4 7a48 	vcmp.f32	s15, s16
    35d0:	eef1 fa10 	vmrs	APSR_nzcv, fpscr
    35d4:	d013      	beq.n	35fe <read_cfg_from_eeprom+0x96>
    35d6:	f8d4 3354 	ldr.w	r3, [r4, #852]	; 0x354
    35da:	4798      	blx	r3
    35dc:	b968      	cbnz	r0, 35fa <read_cfg_from_eeprom+0x92>
    35de:	6868      	ldr	r0, [r5, #4]
    35e0:	f7ff f9d2 	bl	2988 <__aeabi_f2d>
    35e4:	460b      	mov	r3, r1
    35e6:	4913      	ldr	r1, [pc, #76]	; (3634 <read_cfg_from_eeprom+0xcc>)
    35e8:	4602      	mov	r2, r0
    35ea:	2000      	movs	r0, #0
    35ec:	e9cd 0100 	strd	r0, r1, [sp]
    35f0:	4811      	ldr	r0, [pc, #68]	; (3638 <read_cfg_from_eeprom+0xd0>)
    35f2:	f8d4 10b4 	ldr.w	r1, [r4, #180]	; 0xb4
    35f6:	4478      	add	r0, pc
    35f8:	4788      	blx	r1
    35fa:	ed85 8a01 	vstr	s16, [r5, #4]
    35fe:	f8d4 30bc 	ldr.w	r3, [r4, #188]	; 0xbc
    3602:	4630      	mov	r0, r6
    3604:	4798      	blx	r3
    3606:	b005      	add	sp, #20
    3608:	ecbd 8b02 	vpop	{d8}
    360c:	e8bd 83f0 	ldmia.w	sp!, {r4, r5, r6, r7, r8, r9, pc}
    3610:	1d28      	adds	r0, r5, #4
    3612:	f002 fedf 	bl	63d4 <confparser_set_defaults_tnt_config>
    3616:	f8d4 3354 	ldr.w	r3, [r4, #852]	; 0x354
    361a:	4798      	blx	r3
    361c:	2800      	cmp	r0, #0
    361e:	d1ee      	bne.n	35fe <read_cfg_from_eeprom+0x96>
    3620:	4806      	ldr	r0, [pc, #24]	; (363c <read_cfg_from_eeprom+0xd4>)
    3622:	f8d4 30b4 	ldr.w	r3, [r4, #180]	; 0xb4
    3626:	4478      	add	r0, pc
    3628:	4798      	blx	r3
    362a:	e7e8      	b.n	35fe <read_cfg_from_eeprom+0x96>
    362c:	1000f800 	andne	pc, r0, r0, lsl #16
    3630:	963d893c 			; <UNDEFINED> instruction: 0x963d893c
    3634:	3ff00000 	svccc	0x00f00000	; IMB
    3638:	fffff7c6 			; <UNDEFINED> instruction: 0xfffff7c6
    363c:	fffff7ce 			; <UNDEFINED> instruction: 0xfffff7ce

Disassembly of section .text.get_cfg:

00003640 <get_cfg>:
    3640:	e92d 41f0 	stmdb	sp!, {r4, r5, r6, r7, r8, lr}
    3644:	4e11      	ldr	r6, [pc, #68]	; (368c <get_cfg+0x4c>)
    3646:	4605      	mov	r5, r0
    3648:	4811      	ldr	r0, [pc, #68]	; (3690 <get_cfg+0x50>)
    364a:	f8d6 30cc 	ldr.w	r3, [r6, #204]	; 0xcc
    364e:	4478      	add	r0, pc
    3650:	460f      	mov	r7, r1
    3652:	4798      	blx	r3
    3654:	f8d6 30b8 	ldr.w	r3, [r6, #184]	; 0xb8
    3658:	f8d0 8000 	ldr.w	r8, [r0]
    365c:	20fc      	movs	r0, #252	; 0xfc
    365e:	4798      	blx	r3
    3660:	22fc      	movs	r2, #252	; 0xfc
    3662:	f108 0104 	add.w	r1, r8, #4
    3666:	4604      	mov	r4, r0
    3668:	f7ff fafa 	bl	2c60 <memcpy>
    366c:	b117      	cbz	r7, 3674 <get_cfg+0x34>
    366e:	4620      	mov	r0, r4
    3670:	f002 feb0 	bl	63d4 <confparser_set_defaults_tnt_config>
    3674:	4621      	mov	r1, r4
    3676:	4628      	mov	r0, r5
    3678:	f002 fa20 	bl	5abc <confparser_serialize_tnt_config>
    367c:	f8d6 30bc 	ldr.w	r3, [r6, #188]	; 0xbc
    3680:	4605      	mov	r5, r0
    3682:	4620      	mov	r0, r4
    3684:	4798      	blx	r3
    3686:	4628      	mov	r0, r5
    3688:	e8bd 81f0 	ldmia.w	sp!, {r4, r5, r6, r7, r8, pc}
    368c:	1000f800 	andne	pc, r0, r0, lsl #16
    3690:	ffffc9ae 			; <UNDEFINED> instruction: 0xffffc9ae

Disassembly of section .text.ext_bal_dbg:

00003694 <ext_bal_dbg>:
    3694:	2901      	cmp	r1, #1
    3696:	b570      	push	{r4, r5, r6, lr}
    3698:	4d2a      	ldr	r5, [pc, #168]	; (3744 <ext_bal_dbg+0xb0>)
    369a:	4604      	mov	r4, r0
    369c:	d14e      	bne.n	373c <ext_bal_dbg+0xa8>
    369e:	6feb      	ldr	r3, [r5, #124]	; 0x7c
    36a0:	6800      	ldr	r0, [r0, #0]
    36a2:	4798      	blx	r3
    36a4:	2800      	cmp	r0, #0
    36a6:	d049      	beq.n	373c <ext_bal_dbg+0xa8>
    36a8:	6e6b      	ldr	r3, [r5, #100]	; 0x64
    36aa:	6820      	ldr	r0, [r4, #0]
    36ac:	6cee      	ldr	r6, [r5, #76]	; 0x4c
    36ae:	4798      	blx	r3
    36b0:	4604      	mov	r4, r0
    36b2:	4826      	ldr	r0, [pc, #152]	; (374c <ext_bal_dbg+0xb8>)
    36b4:	f8d5 30cc 	ldr.w	r3, [r5, #204]	; 0xcc
    36b8:	4478      	add	r0, pc
    36ba:	4798      	blx	r3
    36bc:	6803      	ldr	r3, [r0, #0]
    36be:	1e60      	subs	r0, r4, #1
    36c0:	280c      	cmp	r0, #12
    36c2:	d838      	bhi.n	3736 <ext_bal_dbg+0xa2>
    36c4:	e8df f000 	tbb	[pc, r0]
    36c8:	15120d07 	ldrne	r0, [r2, #-3335]	; 0xfffff2f9
    36cc:	25221f18 	strcs	r1, [r2, #-3864]!	; 0xfffff0e8
    36d0:	312e2b28 			; <UNDEFINED> instruction: 0x312e2b28
    36d4:	ed930034 	ldc	0, cr0, [r3, #208]	; 0xd0
    36d8:	0ab0      	lsrs	r0, r6, #10
    36da:	4633      	mov	r3, r6
    36dc:	e8bd 4070 	ldmia.w	sp!, {r4, r5, r6, lr}
    36e0:	4718      	bx	r3
    36e2:	f603 032c 	addw	r3, r3, #2092	; 0x82c
    36e6:	ed93 0a00 	vldr	s0, [r3]
    36ea:	e7f6      	b.n	36da <ext_bal_dbg+0x46>
    36ec:	ed93 0ab5 	vldr	s0, [r3, #724]	; 0x2d4
    36f0:	e7f3      	b.n	36da <ext_bal_dbg+0x46>
    36f2:	ed93 0aac 	vldr	s0, [r3, #688]	; 0x2b0
    36f6:	e7f0      	b.n	36da <ext_bal_dbg+0x46>
    36f8:	ed93 0a68 	vldr	s0, [r3, #416]	; 0x1a0
    36fc:	edd3 7a67 	vldr	s15, [r3, #412]	; 0x19c
    3700:	ee30 0a67 	vsub.f32	s0, s0, s15
    3704:	e7e9      	b.n	36da <ext_bal_dbg+0x46>
    3706:	ed93 0a76 	vldr	s0, [r3, #472]	; 0x1d8
    370a:	e7e6      	b.n	36da <ext_bal_dbg+0x46>
    370c:	ed93 0a73 	vldr	s0, [r3, #460]	; 0x1cc
    3710:	e7e3      	b.n	36da <ext_bal_dbg+0x46>
    3712:	ed93 0a74 	vldr	s0, [r3, #464]	; 0x1d0
    3716:	e7e0      	b.n	36da <ext_bal_dbg+0x46>
    3718:	ed93 0a47 	vldr	s0, [r3, #284]	; 0x11c
    371c:	e7dd      	b.n	36da <ext_bal_dbg+0x46>
    371e:	ed93 0ab9 	vldr	s0, [r3, #740]	; 0x2e4
    3722:	e7da      	b.n	36da <ext_bal_dbg+0x46>
    3724:	ed93 0aba 	vldr	s0, [r3, #744]	; 0x2e8
    3728:	e7d7      	b.n	36da <ext_bal_dbg+0x46>
    372a:	ed93 0abe 	vldr	s0, [r3, #760]	; 0x2f8
    372e:	e7d4      	b.n	36da <ext_bal_dbg+0x46>
    3730:	ed93 0ac0 	vldr	s0, [r3, #768]	; 0x300
    3734:	e7d1      	b.n	36da <ext_bal_dbg+0x46>
    3736:	ed9f 0a04 	vldr	s0, [pc, #16]	; 3748 <ext_bal_dbg+0xb4>
    373a:	e7ce      	b.n	36da <ext_bal_dbg+0x46>
    373c:	f8d5 0094 	ldr.w	r0, [r5, #148]	; 0x94
    3740:	bd70      	pop	{r4, r5, r6, pc}
    3742:	bf00      	nop
    3744:	1000f800 	andne	pc, r0, r0, lsl #16
    3748:	00000000 	andeq	r0, r0, r0
    374c:	ffffc944 			; <UNDEFINED> instruction: 0xffffc944

Disassembly of section .text.buzzer_init:

00003750 <buzzer_init>:
    3750:	4b02      	ldr	r3, [pc, #8]	; (375c <buzzer_init+0xc>)
    3752:	2103      	movs	r1, #3
    3754:	f8d3 30dc 	ldr.w	r3, [r3, #220]	; 0xdc
    3758:	200c      	movs	r0, #12
    375a:	4718      	bx	r3
    375c:	1000f800 	andne	pc, r0, r0, lsl #16

Disassembly of section .text.buzzer_update:

00003760 <buzzer_update>:
    3760:	f890 3118 	ldrb.w	r3, [r0, #280]	; 0x118
    3764:	b1d3      	cbz	r3, 379c <buzzer_update+0x3c>
    3766:	f8d0 110c 	ldr.w	r1, [r0, #268]	; 0x10c
    376a:	2900      	cmp	r1, #0
    376c:	dd16      	ble.n	379c <buzzer_update+0x3c>
    376e:	f8d0 3114 	ldr.w	r3, [r0, #276]	; 0x114
    3772:	3b01      	subs	r3, #1
    3774:	2b00      	cmp	r3, #0
    3776:	f8c0 3114 	str.w	r3, [r0, #276]	; 0x114
    377a:	dc0f      	bgt.n	379c <buzzer_update+0x3c>
    377c:	f8d0 3110 	ldr.w	r3, [r0, #272]	; 0x110
    3780:	f8c0 3114 	str.w	r3, [r0, #276]	; 0x114
    3784:	3901      	subs	r1, #1
    3786:	4b06      	ldr	r3, [pc, #24]	; (37a0 <buzzer_update+0x40>)
    3788:	f8c0 110c 	str.w	r1, [r0, #268]	; 0x10c
    378c:	f011 0101 	ands.w	r1, r1, #1
    3790:	f8d3 30e0 	ldr.w	r3, [r3, #224]	; 0xe0
    3794:	bf18      	it	ne
    3796:	2101      	movne	r1, #1
    3798:	200c      	movs	r0, #12
    379a:	4718      	bx	r3
    379c:	4770      	bx	lr
    379e:	bf00      	nop
    37a0:	1000f800 	andne	pc, r0, r0, lsl #16

Disassembly of section .text.beep_alert:

000037a4 <beep_alert>:
    37a4:	f890 3118 	ldrb.w	r3, [r0, #280]	; 0x118
    37a8:	b16b      	cbz	r3, 37c6 <beep_alert+0x22>
    37aa:	f8d0 310c 	ldr.w	r3, [r0, #268]	; 0x10c
    37ae:	b953      	cbnz	r3, 37c6 <beep_alert+0x22>
    37b0:	2a00      	cmp	r2, #0
    37b2:	bf0c      	ite	eq
    37b4:	2350      	moveq	r3, #80	; 0x50
    37b6:	f44f 7396 	movne.w	r3, #300	; 0x12c
    37ba:	0049      	lsls	r1, r1, #1
    37bc:	e9c0 3344 	strd	r3, r3, [r0, #272]	; 0x110
    37c0:	3101      	adds	r1, #1
    37c2:	f8c0 110c 	str.w	r1, [r0, #268]	; 0x10c
    37c6:	4770      	bx	lr

Disassembly of section .text.write_cfg_to_eeprom:

000037c8 <write_cfg_to_eeprom>:
    37c8:	e92d 41f3 	stmdb	sp!, {r0, r1, r4, r5, r6, r7, r8, lr}
    37cc:	4c19      	ldr	r4, [pc, #100]	; (3834 <write_cfg_to_eeprom+0x6c>)
    37ce:	4607      	mov	r7, r0
    37d0:	f8d4 30b8 	ldr.w	r3, [r4, #184]	; 0xb8
    37d4:	f44f 7080 	mov.w	r0, #256	; 0x100
    37d8:	4798      	blx	r3
    37da:	22fc      	movs	r2, #252	; 0xfc
    37dc:	1d39      	adds	r1, r7, #4
    37de:	4605      	mov	r5, r0
    37e0:	f7ff fa3e 	bl	2c60 <memcpy>
    37e4:	2600      	movs	r6, #0
    37e6:	f10d 0804 	add.w	r8, sp, #4
    37ea:	f855 3026 	ldr.w	r3, [r5, r6, lsl #2]
    37ee:	9301      	str	r3, [sp, #4]
    37f0:	3601      	adds	r6, #1
    37f2:	f8d4 32b8 	ldr.w	r3, [r4, #696]	; 0x2b8
    37f6:	4631      	mov	r1, r6
    37f8:	4640      	mov	r0, r8
    37fa:	4798      	blx	r3
    37fc:	b958      	cbnz	r0, 3816 <write_cfg_to_eeprom+0x4e>
    37fe:	f8d4 30bc 	ldr.w	r3, [r4, #188]	; 0xbc
    3802:	4628      	mov	r0, r5
    3804:	4798      	blx	r3
    3806:	2200      	movs	r2, #0
    3808:	2101      	movs	r1, #1
    380a:	4638      	mov	r0, r7
    380c:	b002      	add	sp, #8
    380e:	e8bd 41f0 	ldmia.w	sp!, {r4, r5, r6, r7, r8, lr}
    3812:	f7ff bfc7 	b.w	37a4 <beep_alert>
    3816:	2e40      	cmp	r6, #64	; 0x40
    3818:	d1e7      	bne.n	37ea <write_cfg_to_eeprom+0x22>
    381a:	f8d4 30bc 	ldr.w	r3, [r4, #188]	; 0xbc
    381e:	4628      	mov	r0, r5
    3820:	4798      	blx	r3
    3822:	4b05      	ldr	r3, [pc, #20]	; (3838 <write_cfg_to_eeprom+0x70>)
    3824:	9301      	str	r3, [sp, #4]
    3826:	2100      	movs	r1, #0
    3828:	f8d4 32b8 	ldr.w	r3, [r4, #696]	; 0x2b8
    382c:	4640      	mov	r0, r8
    382e:	4798      	blx	r3
    3830:	e7e9      	b.n	3806 <write_cfg_to_eeprom+0x3e>
    3832:	bf00      	nop
    3834:	1000f800 	andne	pc, r0, r0, lsl #16
    3838:	963d893c 			; <UNDEFINED> instruction: 0x963d893c

Disassembly of section .text.on_command_received:

0000383c <on_command_received>:
    383c:	e92d 41f0 	stmdb	sp!, {r4, r5, r6, r7, r8, lr}
    3840:	4606      	mov	r6, r0
    3842:	4fbb      	ldr	r7, [pc, #748]	; (3b30 <on_command_received+0x2f4>)
    3844:	48bf      	ldr	r0, [pc, #764]	; (3b44 <on_command_received+0x308>)
    3846:	f8d7 30cc 	ldr.w	r3, [r7, #204]	; 0xcc
    384a:	b09a      	sub	sp, #104	; 0x68
    384c:	4478      	add	r0, pc
    384e:	460d      	mov	r5, r1
    3850:	4798      	blx	r3
    3852:	2d01      	cmp	r5, #1
    3854:	f896 8000 	ldrb.w	r8, [r6]
    3858:	6804      	ldr	r4, [r0, #0]
    385a:	7876      	ldrb	r6, [r6, #1]
    385c:	d80b      	bhi.n	3876 <on_command_received+0x3a>
    385e:	f8d7 3354 	ldr.w	r3, [r7, #852]	; 0x354
    3862:	4798      	blx	r3
    3864:	bb78      	cbnz	r0, 38c6 <on_command_received+0x8a>
    3866:	48b8      	ldr	r0, [pc, #736]	; (3b48 <on_command_received+0x30c>)
    3868:	f8d7 30b4 	ldr.w	r3, [r7, #180]	; 0xb4
    386c:	4478      	add	r0, pc
    386e:	b01a      	add	sp, #104	; 0x68
    3870:	e8bd 41f0 	ldmia.w	sp!, {r4, r5, r6, r7, r8, lr}
    3874:	4718      	bx	r3
    3876:	f1b8 0f65 	cmp.w	r8, #101	; 0x65
    387a:	d00c      	beq.n	3896 <on_command_received+0x5a>
    387c:	f8d7 3354 	ldr.w	r3, [r7, #852]	; 0x354
    3880:	4798      	blx	r3
    3882:	bb00      	cbnz	r0, 38c6 <on_command_received+0x8a>
    3884:	48b1      	ldr	r0, [pc, #708]	; (3b4c <on_command_received+0x310>)
    3886:	f8d7 30b4 	ldr.w	r3, [r7, #180]	; 0xb4
    388a:	4641      	mov	r1, r8
    388c:	4478      	add	r0, pc
    388e:	b01a      	add	sp, #104	; 0x68
    3890:	e8bd 41f0 	ldmia.w	sp!, {r4, r5, r6, r7, r8, lr}
    3894:	4718      	bx	r3
    3896:	2e0b      	cmp	r6, #11
    3898:	f200 8139 	bhi.w	3b0e <on_command_received+0x2d2>
    389c:	e8df f016 	tbh	[pc, r6, lsl #1]
    38a0:	0016000c 	andseq	r0, r6, ip
    38a4:	00e90137 	rsceq	r0, r9, r7, lsr r1
    38a8:	00dd0122 	sbcseq	r0, sp, r2, lsr #2
    38ac:	01370137 	teqeq	r7, r7, lsr r1
    38b0:	00130137 	andseq	r0, r3, r7, lsr r1
    38b4:	00130128 	andseq	r0, r3, r8, lsr #2
    38b8:	4b9e      	ldr	r3, [pc, #632]	; (3b34 <on_command_received+0x2f8>)
    38ba:	9302      	str	r3, [sp, #8]
    38bc:	f8d7 3250 	ldr.w	r3, [r7, #592]	; 0x250
    38c0:	2104      	movs	r1, #4
    38c2:	a802      	add	r0, sp, #8
    38c4:	4798      	blx	r3
    38c6:	b01a      	add	sp, #104	; 0x68
    38c8:	e8bd 81f0 	ldmia.w	sp!, {r4, r5, r6, r7, r8, pc}
    38cc:	2302      	movs	r3, #2
    38ce:	9301      	str	r3, [sp, #4]
    38d0:	f240 1365 	movw	r3, #357	; 0x165
    38d4:	f8ad 3008 	strh.w	r3, [sp, #8]
    38d8:	ae02      	add	r6, sp, #8
    38da:	ad01      	add	r5, sp, #4
    38dc:	f8d7 31e0 	ldr.w	r3, [r7, #480]	; 0x1e0
    38e0:	4798      	blx	r3
    38e2:	4629      	mov	r1, r5
    38e4:	4630      	mov	r0, r6
    38e6:	f002 f86b 	bl	59c0 <buffer_append_float32_auto>
    38ea:	ed94 0a73 	vldr	s0, [r4, #460]	; 0x1cc
    38ee:	4629      	mov	r1, r5
    38f0:	4630      	mov	r0, r6
    38f2:	f002 f865 	bl	59c0 <buffer_append_float32_auto>
    38f6:	f604 0328 	addw	r3, r4, #2088	; 0x828
    38fa:	ed93 0a00 	vldr	s0, [r3]
    38fe:	4629      	mov	r1, r5
    3900:	4630      	mov	r0, r6
    3902:	f002 f85d 	bl	59c0 <buffer_append_float32_auto>
    3906:	ed94 0a67 	vldr	s0, [r4, #412]	; 0x19c
    390a:	4629      	mov	r1, r5
    390c:	4630      	mov	r0, r6
    390e:	f002 f857 	bl	59c0 <buffer_append_float32_auto>
    3912:	ed94 0a69 	vldr	s0, [r4, #420]	; 0x1a4
    3916:	4629      	mov	r1, r5
    3918:	4630      	mov	r0, r6
    391a:	f002 f851 	bl	59c0 <buffer_append_float32_auto>
    391e:	ed94 0aeb 	vldr	s0, [r4, #940]	; 0x3ac
    3922:	4629      	mov	r1, r5
    3924:	4630      	mov	r0, r6
    3926:	f002 f84b 	bl	59c0 <buffer_append_float32_auto>
    392a:	9a01      	ldr	r2, [sp, #4]
    392c:	f894 02d8 	ldrb.w	r0, [r4, #728]	; 0x2d8
    3930:	f102 0368 	add.w	r3, r2, #104	; 0x68
    3934:	eb0d 0103 	add.w	r1, sp, r3
    3938:	f894 32a1 	ldrb.w	r3, [r4, #673]	; 0x2a1
    393c:	f003 030f 	and.w	r3, r3, #15
    3940:	eb03 1300 	add.w	r3, r3, r0, lsl #4
    3944:	f801 3c60 	strb.w	r3, [r1, #-96]
    3948:	f894 31ec 	ldrb.w	r3, [r4, #492]	; 0x1ec
    394c:	f801 3c5f 	strb.w	r3, [r1, #-95]
    3950:	3202      	adds	r2, #2
    3952:	ed94 0a77 	vldr	s0, [r4, #476]	; 0x1dc
    3956:	9201      	str	r2, [sp, #4]
    3958:	4629      	mov	r1, r5
    395a:	4630      	mov	r0, r6
    395c:	f002 f830 	bl	59c0 <buffer_append_float32_auto>
    3960:	ed94 0a78 	vldr	s0, [r4, #480]	; 0x1e0
    3964:	4629      	mov	r1, r5
    3966:	4630      	mov	r0, r6
    3968:	f002 f82a 	bl	59c0 <buffer_append_float32_auto>
    396c:	f604 032c 	addw	r3, r4, #2092	; 0x82c
    3970:	ed93 0a00 	vldr	s0, [r3]
    3974:	4629      	mov	r1, r5
    3976:	4630      	mov	r0, r6
    3978:	f002 f822 	bl	59c0 <buffer_append_float32_auto>
    397c:	f504 6303 	add.w	r3, r4, #2096	; 0x830
    3980:	ed93 0a00 	vldr	s0, [r3]
    3984:	4629      	mov	r1, r5
    3986:	4630      	mov	r0, r6
    3988:	f002 f81a 	bl	59c0 <buffer_append_float32_auto>
    398c:	ed94 0a79 	vldr	s0, [r4, #484]	; 0x1e4
    3990:	4629      	mov	r1, r5
    3992:	4630      	mov	r0, r6
    3994:	f002 f814 	bl	59c0 <buffer_append_float32_auto>
    3998:	edd4 7ad9 	vldr	s15, [r4, #868]	; 0x364
    399c:	ed94 0ab7 	vldr	s0, [r4, #732]	; 0x2dc
    39a0:	4629      	mov	r1, r5
    39a2:	ee30 0a67 	vsub.f32	s0, s0, s15
    39a6:	4630      	mov	r0, r6
    39a8:	f002 f80a 	bl	59c0 <buffer_append_float32_auto>
    39ac:	ed94 0ae6 	vldr	s0, [r4, #920]	; 0x398
    39b0:	4629      	mov	r1, r5
    39b2:	4630      	mov	r0, r6
    39b4:	f002 f804 	bl	59c0 <buffer_append_float32_auto>
    39b8:	edd4 7aed 	vldr	s15, [r4, #948]	; 0x3b4
    39bc:	ed94 0ab7 	vldr	s0, [r4, #732]	; 0x2dc
    39c0:	4629      	mov	r1, r5
    39c2:	ee30 0a67 	vsub.f32	s0, s0, s15
    39c6:	4630      	mov	r0, r6
    39c8:	f001 fffa 	bl	59c0 <buffer_append_float32_auto>
    39cc:	edd4 7aed 	vldr	s15, [r4, #948]	; 0x3b4
    39d0:	ed94 0aee 	vldr	s0, [r4, #952]	; 0x3b8
    39d4:	4629      	mov	r1, r5
    39d6:	ee30 0a67 	vsub.f32	s0, s0, s15
    39da:	4630      	mov	r0, r6
    39dc:	f001 fff0 	bl	59c0 <buffer_append_float32_auto>
    39e0:	ed94 0ae2 	vldr	s0, [r4, #904]	; 0x388
    39e4:	4629      	mov	r1, r5
    39e6:	4630      	mov	r0, r6
    39e8:	f001 ffea 	bl	59c0 <buffer_append_float32_auto>
    39ec:	ed94 0ae8 	vldr	s0, [r4, #928]	; 0x3a0
    39f0:	4629      	mov	r1, r5
    39f2:	4630      	mov	r0, r6
    39f4:	f001 ffe4 	bl	59c0 <buffer_append_float32_auto>
    39f8:	ed94 0ae3 	vldr	s0, [r4, #908]	; 0x38c
    39fc:	4629      	mov	r1, r5
    39fe:	4630      	mov	r0, r6
    3a00:	f001 ffde 	bl	59c0 <buffer_append_float32_auto>
    3a04:	ed94 0ae7 	vldr	s0, [r4, #924]	; 0x39c
    3a08:	4629      	mov	r1, r5
    3a0a:	4630      	mov	r0, r6
    3a0c:	f001 ffd8 	bl	59c0 <buffer_append_float32_auto>
    3a10:	ed94 0ae4 	vldr	s0, [r4, #912]	; 0x390
    3a14:	4629      	mov	r1, r5
    3a16:	4630      	mov	r0, r6
    3a18:	f001 ffd2 	bl	59c0 <buffer_append_float32_auto>
    3a1c:	ed94 0aea 	vldr	s0, [r4, #936]	; 0x3a8
    3a20:	4629      	mov	r1, r5
    3a22:	4630      	mov	r0, r6
    3a24:	f001 ffcc 	bl	59c0 <buffer_append_float32_auto>
    3a28:	ed94 0ae5 	vldr	s0, [r4, #916]	; 0x394
    3a2c:	4629      	mov	r1, r5
    3a2e:	4630      	mov	r0, r6
    3a30:	f001 ffc6 	bl	59c0 <buffer_append_float32_auto>
    3a34:	ed94 0ae9 	vldr	s0, [r4, #932]	; 0x3a4
    3a38:	4629      	mov	r1, r5
    3a3a:	4630      	mov	r0, r6
    3a3c:	f001 ffc0 	bl	59c0 <buffer_append_float32_auto>
    3a40:	9b01      	ldr	r3, [sp, #4]
    3a42:	2b60      	cmp	r3, #96	; 0x60
    3a44:	dd04      	ble.n	3a50 <on_command_received+0x214>
    3a46:	4842      	ldr	r0, [pc, #264]	; (3b50 <on_command_received+0x314>)
    3a48:	f8d7 30b4 	ldr.w	r3, [r7, #180]	; 0xb4
    3a4c:	4478      	add	r0, pc
    3a4e:	4798      	blx	r3
    3a50:	f8d7 3250 	ldr.w	r3, [r7, #592]	; 0x250
    3a54:	9901      	ldr	r1, [sp, #4]
    3a56:	4630      	mov	r0, r6
    3a58:	e734      	b.n	38c4 <on_command_received+0x88>
    3a5a:	4620      	mov	r0, r4
    3a5c:	f7ff fd84 	bl	3568 <read_cfg_from_eeprom>
    3a60:	f8d7 32e8 	ldr.w	r3, [r7, #744]	; 0x2e8
    3a64:	ed94 0a0c 	vldr	s0, [r4, #48]	; 0x30
    3a68:	207c      	movs	r0, #124	; 0x7c
    3a6a:	b01a      	add	sp, #104	; 0x68
    3a6c:	e8bd 41f0 	ldmia.w	sp!, {r4, r5, r6, r7, r8, lr}
    3a70:	4718      	bx	r3
    3a72:	4a31      	ldr	r2, [pc, #196]	; (3b38 <on_command_received+0x2fc>)
    3a74:	f8c4 20f8 	str.w	r2, [r4, #248]	; 0xf8
    3a78:	2200      	movs	r2, #0
    3a7a:	f884 20fc 	strb.w	r2, [r4, #252]	; 0xfc
    3a7e:	f8a4 20f4 	strh.w	r2, [r4, #244]	; 0xf4
    3a82:	f884 20f6 	strb.w	r2, [r4, #246]	; 0xf6
    3a86:	f8b4 2074 	ldrh.w	r2, [r4, #116]	; 0x74
    3a8a:	eddf 6a2c 	vldr	s13, [pc, #176]	; 3b3c <on_command_received+0x300>
    3a8e:	ee07 2a90 	vmov	s15, r2
    3a92:	eef8 7ae7 	vcvt.f32.s32	s15, s15
    3a96:	eeb1 7a04 	vmov.f32	s14, #20	; 0x40a00000  5.0
    3a9a:	ee86 6aa7 	vdiv.f32	s12, s13, s15
    3a9e:	f44f 71fa 	mov.w	r1, #500	; 0x1f4
    3aa2:	2300      	movs	r3, #0
    3aa4:	f8a4 10c0 	strh.w	r1, [r4, #192]	; 0xc0
    3aa8:	4925      	ldr	r1, [pc, #148]	; (3b40 <on_command_received+0x304>)
    3aaa:	6123      	str	r3, [r4, #16]
    3aac:	6163      	str	r3, [r4, #20]
    3aae:	f8c4 30bc 	str.w	r3, [r4, #188]	; 0xbc
    3ab2:	f8c4 30f0 	str.w	r3, [r4, #240]	; 0xf0
    3ab6:	f8c4 3128 	str.w	r3, [r4, #296]	; 0x128
    3aba:	f8c4 10e8 	str.w	r1, [r4, #232]	; 0xe8
    3abe:	f8d7 32e8 	ldr.w	r3, [r7, #744]	; 0x2e8
    3ac2:	edc4 6a3b 	vstr	s13, [r4, #236]	; 0xec
    3ac6:	eec7 6a27 	vdiv.f32	s13, s14, s15
    3aca:	eeb0 0a00 	vmov.f32	s0, #0	; 0x40000000  2.0
    3ace:	ed84 0a0c 	vstr	s0, [r4, #48]	; 0x30
    3ad2:	ed84 7a38 	vstr	s14, [r4, #224]	; 0xe0
    3ad6:	ed84 7a39 	vstr	s14, [r4, #228]	; 0xe4
    3ada:	ed84 6a4c 	vstr	s12, [r4, #304]	; 0x130
    3ade:	edc4 6a53 	vstr	s13, [r4, #332]	; 0x14c
    3ae2:	e7c1      	b.n	3a68 <on_command_received+0x22c>
    3ae4:	4620      	mov	r0, r4
    3ae6:	b01a      	add	sp, #104	; 0x68
    3ae8:	e8bd 41f0 	ldmia.w	sp!, {r4, r5, r6, r7, r8, lr}
    3aec:	f7ff be6c 	b.w	37c8 <write_cfg_to_eeprom>
    3af0:	2d03      	cmp	r5, #3
    3af2:	f43f aee8 	beq.w	38c6 <on_command_received+0x8a>
    3af6:	f8d7 3354 	ldr.w	r3, [r7, #852]	; 0x354
    3afa:	4798      	blx	r3
    3afc:	2800      	cmp	r0, #0
    3afe:	f47f aee2 	bne.w	38c6 <on_command_received+0x8a>
    3b02:	4814      	ldr	r0, [pc, #80]	; (3b54 <on_command_received+0x318>)
    3b04:	f8d7 30b4 	ldr.w	r3, [r7, #180]	; 0xb4
    3b08:	4629      	mov	r1, r5
    3b0a:	4478      	add	r0, pc
    3b0c:	e6bf      	b.n	388e <on_command_received+0x52>
    3b0e:	f8d7 3354 	ldr.w	r3, [r7, #852]	; 0x354
    3b12:	4798      	blx	r3
    3b14:	2800      	cmp	r0, #0
    3b16:	f47f aed6 	bne.w	38c6 <on_command_received+0x8a>
    3b1a:	480f      	ldr	r0, [pc, #60]	; (3b58 <on_command_received+0x31c>)
    3b1c:	f8d7 30b4 	ldr.w	r3, [r7, #180]	; 0xb4
    3b20:	2209      	movs	r2, #9
    3b22:	4631      	mov	r1, r6
    3b24:	4478      	add	r0, pc
    3b26:	b01a      	add	sp, #104	; 0x68
    3b28:	e8bd 41f0 	ldmia.w	sp!, {r4, r5, r6, r7, r8, lr}
    3b2c:	4718      	bx	r3
    3b2e:	bf00      	nop
    3b30:	1000f800 	andne	pc, r0, r0, lsl #16
    3b34:	010a0065 	tsteq	sl, r5, rrx
    3b38:	40c00000 	sbcmi	r0, r0, r0
    3b3c:	42700000 	rsbsmi	r0, r0, #0
    3b40:	42340000 	eorsmi	r0, r4, #0
    3b44:	ffffc7b0 			; <UNDEFINED> instruction: 0xffffc7b0
    3b48:	fffff5c0 			; <UNDEFINED> instruction: 0xfffff5c0
    3b4c:	fffff5b9 			; <UNDEFINED> instruction: 0xfffff5b9
    3b50:	fffff41b 			; <UNDEFINED> instruction: 0xfffff41b
    3b54:	fffff373 			; <UNDEFINED> instruction: 0xfffff373
    3b58:	fffff383 			; <UNDEFINED> instruction: 0xfffff383

Disassembly of section .text.configure:

00003b5c <configure>:
    3b5c:	b538      	push	{r3, r4, r5, lr}
    3b5e:	f8d0 32dc 	ldr.w	r3, [r0, #732]	; 0x2dc
    3b62:	4d8a      	ldr	r5, [pc, #552]	; (3d8c <configure+0x230>)
    3b64:	ed2d 8b06 	vpush	{d8-d10}
    3b68:	f8c0 32ec 	str.w	r3, [r0, #748]	; 0x2ec
    3b6c:	f8b0 3074 	ldrh.w	r3, [r0, #116]	; 0x74
    3b70:	eddf 9a87 	vldr	s19, [pc, #540]	; 3d90 <configure+0x234>
    3b74:	eddf 8a87 	vldr	s17, [pc, #540]	; 3d94 <configure+0x238>
    3b78:	ee07 3a90 	vmov	s15, r3
    3b7c:	eef8 7ae7 	vcvt.f32.s32	s15, s15
    3b80:	eeb7 8a00 	vmov.f32	s16, #112	; 0x3f800000  1.0
    3b84:	ee88 7a27 	vdiv.f32	s14, s16, s15
    3b88:	2303      	movs	r3, #3
    3b8a:	f8c0 3124 	str.w	r3, [r0, #292]	; 0x124
    3b8e:	f890 30f6 	ldrb.w	r3, [r0, #246]	; 0xf6
    3b92:	2b00      	cmp	r3, #0
    3b94:	4604      	mov	r4, r0
    3b96:	f8d5 32e0 	ldr.w	r3, [r5, #736]	; 0x2e0
    3b9a:	eef3 6a04 	vmov.f32	s13, #52	; 0x41a00000  20.0
    3b9e:	ed80 7a47 	vstr	s14, [r0, #284]	; 0x11c
    3ba2:	ee27 7a26 	vmul.f32	s14, s14, s13
    3ba6:	edd0 6a3b 	vldr	s13, [r0, #236]	; 0xec
    3baa:	ed80 7ac5 	vstr	s14, [r0, #788]	; 0x314
    3bae:	ee86 7aa7 	vdiv.f32	s14, s13, s15
    3bb2:	edd0 6a26 	vldr	s13, [r0, #152]	; 0x98
    3bb6:	ed80 7a4c 	vstr	s14, [r0, #304]	; 0x130
    3bba:	ee86 7aa7 	vdiv.f32	s14, s13, s15
    3bbe:	edd0 6a29 	vldr	s13, [r0, #164]	; 0xa4
    3bc2:	ed80 7a4d 	vstr	s14, [r0, #308]	; 0x134
    3bc6:	ee86 7aa7 	vdiv.f32	s14, s13, s15
    3bca:	edd0 6a2c 	vldr	s13, [r0, #176]	; 0xb0
    3bce:	ed80 7a4e 	vstr	s14, [r0, #312]	; 0x138
    3bd2:	ee86 7aa7 	vdiv.f32	s14, s13, s15
    3bd6:	edd0 6a2e 	vldr	s13, [r0, #184]	; 0xb8
    3bda:	ed80 7a4f 	vstr	s14, [r0, #316]	; 0x13c
    3bde:	ee86 7aa7 	vdiv.f32	s14, s13, s15
    3be2:	edd0 6a31 	vldr	s13, [r0, #196]	; 0xc4
    3be6:	ed80 7a50 	vstr	s14, [r0, #320]	; 0x140
    3bea:	ee86 7aa7 	vdiv.f32	s14, s13, s15
    3bee:	ed80 7a52 	vstr	s14, [r0, #328]	; 0x148
    3bf2:	ee89 7aa7 	vdiv.f32	s14, s19, s15
    3bf6:	eef2 7a04 	vmov.f32	s15, #36	; 0x41200000  10.0
    3bfa:	bf08      	it	eq
    3bfc:	eef0 7a68 	vmoveq.f32	s15, s17
    3c00:	edc0 7a4a 	vstr	s15, [r0, #296]	; 0x128
    3c04:	ed80 7acd 	vstr	s14, [r0, #820]	; 0x334
    3c08:	2018      	movs	r0, #24
    3c0a:	4798      	blx	r3
    3c0c:	edd4 7a0c 	vldr	s15, [r4, #48]	; 0x30
    3c10:	eeb4 0a67 	vcmp.f32	s0, s15
    3c14:	eef1 fa10 	vmrs	APSR_nzcv, fpscr
    3c18:	d005      	beq.n	3c26 <configure+0xca>
    3c1a:	f8d5 32e8 	ldr.w	r3, [r5, #744]	; 0x2e8
    3c1e:	eeb0 0a67 	vmov.f32	s0, s15
    3c22:	2018      	movs	r0, #24
    3c24:	4798      	blx	r3
    3c26:	f8d5 32e0 	ldr.w	r3, [r5, #736]	; 0x2e0
    3c2a:	2010      	movs	r0, #16
    3c2c:	4798      	blx	r3
    3c2e:	eeb0 9a08 	vmov.f32	s18, #8	; 0x40400000  3.0
    3c32:	ee30 0a49 	vsub.f32	s0, s0, s18
    3c36:	f8d5 32e0 	ldr.w	r3, [r5, #736]	; 0x2e0
    3c3a:	ed84 0a54 	vstr	s0, [r4, #336]	; 0x150
    3c3e:	2012      	movs	r0, #18
    3c40:	4798      	blx	r3
    3c42:	ee30 0a49 	vsub.f32	s0, s0, s18
    3c46:	f8d5 32e0 	ldr.w	r3, [r5, #736]	; 0x2e0
    3c4a:	ed84 0a55 	vstr	s0, [r4, #340]	; 0x154
    3c4e:	2000      	movs	r0, #0
    3c50:	4798      	blx	r3
    3c52:	eefd 7ac0 	vcvt.s32.f32	s15, s0
    3c56:	eeb6 aa00 	vmov.f32	s20, #96	; 0x3f000000  0.5
    3c5a:	eef8 7ae7 	vcvt.f32.s32	s15, s15
    3c5e:	ee70 7a67 	vsub.f32	s15, s0, s15
    3c62:	eef4 7aca 	vcmpe.f32	s15, s20
    3c66:	eef1 fa10 	vmrs	APSR_nzcv, fpscr
    3c6a:	db05      	blt.n	3c78 <configure+0x11c>
    3c6c:	eddf 0a4a 	vldr	s1, [pc, #296]	; 3d98 <configure+0x23c>
    3c70:	ee20 0a27 	vmul.f32	s0, s0, s15
    3c74:	f002 fd2a 	bl	66cc <fmaxf>
    3c78:	f8d5 32e0 	ldr.w	r3, [r5, #736]	; 0x2e0
    3c7c:	ed84 0a56 	vstr	s0, [r4, #344]	; 0x158
    3c80:	2001      	movs	r0, #1
    3c82:	4798      	blx	r3
    3c84:	eeb0 0ac0 	vabs.f32	s0, s0
    3c88:	eefd 7ac0 	vcvt.s32.f32	s15, s0
    3c8c:	eef8 7ae7 	vcvt.f32.s32	s15, s15
    3c90:	ee70 7a67 	vsub.f32	s15, s0, s15
    3c94:	eef0 7ae7 	vabs.f32	s15, s15
    3c98:	eef4 7aca 	vcmpe.f32	s15, s20
    3c9c:	eef1 fa10 	vmrs	APSR_nzcv, fpscr
    3ca0:	db05      	blt.n	3cae <configure+0x152>
    3ca2:	eddf 0a3e 	vldr	s1, [pc, #248]	; 3d9c <configure+0x240>
    3ca6:	ee20 0a27 	vmul.f32	s0, s0, s15
    3caa:	f002 fd0f 	bl	66cc <fmaxf>
    3cae:	f8d5 32e0 	ldr.w	r3, [r5, #736]	; 0x2e0
    3cb2:	ed84 0a57 	vstr	s0, [r4, #348]	; 0x15c
    3cb6:	2004      	movs	r0, #4
    3cb8:	4798      	blx	r3
    3cba:	eefd 7ac0 	vcvt.s32.f32	s15, s0
    3cbe:	2016      	movs	r0, #22
    3cc0:	eef8 7ae7 	vcvt.f32.s32	s15, s15
    3cc4:	ee30 0a67 	vsub.f32	s0, s0, s15
    3cc8:	eef3 7a09 	vmov.f32	s15, #57	; 0x41c80000  25.0
    3ccc:	ee20 0a29 	vmul.f32	s0, s0, s19
    3cd0:	eeb4 0ae7 	vcmpe.f32	s0, s15
    3cd4:	eef1 fa10 	vmrs	APSR_nzcv, fpscr
    3cd8:	bf48      	it	mi
    3cda:	f8d4 3158 	ldrmi.w	r3, [r4, #344]	; 0x158
    3cde:	ed84 0a58 	vstr	s0, [r4, #352]	; 0x160
    3ce2:	bf48      	it	mi
    3ce4:	f8c4 3160 	strmi.w	r3, [r4, #352]	; 0x160
    3ce8:	4b2d      	ldr	r3, [pc, #180]	; (3da0 <configure+0x244>)
    3cea:	f8c4 3338 	str.w	r3, [r4, #824]	; 0x338
    3cee:	f8d5 32e0 	ldr.w	r3, [r5, #736]	; 0x2e0
    3cf2:	4798      	blx	r3
    3cf4:	f8b4 3074 	ldrh.w	r3, [r4, #116]	; 0x74
    3cf8:	eddf 7a2a 	vldr	s15, [pc, #168]	; 3da4 <configure+0x248>
    3cfc:	edc4 8a51 	vstr	s17, [r4, #324]	; 0x144
    3d00:	ee07 3a10 	vmov	s14, r3
    3d04:	eeb8 7a47 	vcvt.f32.u32	s14, s14
    3d08:	ee30 0a67 	vsub.f32	s0, s0, s15
    3d0c:	eec8 7a07 	vdiv.f32	s15, s16, s14
    3d10:	f894 30fe 	ldrb.w	r3, [r4, #254]	; 0xfe
    3d14:	2b00      	cmp	r3, #0
    3d16:	4b24      	ldr	r3, [pc, #144]	; (3da8 <configure+0x24c>)
    3d18:	f8c4 3328 	str.w	r3, [r4, #808]	; 0x328
    3d1c:	f894 30fc 	ldrb.w	r3, [r4, #252]	; 0xfc
    3d20:	f884 3118 	strb.w	r3, [r4, #280]	; 0x118
    3d24:	4620      	mov	r0, r4
    3d26:	ed9f 7a21 	vldr	s14, [pc, #132]	; 3dac <configure+0x250>
    3d2a:	edc4 8ab8 	vstr	s17, [r4, #736]	; 0x2e0
    3d2e:	ee67 7a87 	vmul.f32	s15, s15, s14
    3d32:	edc4 8abe 	vstr	s17, [r4, #760]	; 0x2f8
    3d36:	ee67 7a89 	vmul.f32	s15, s15, s18
    3d3a:	ed84 0a7a 	vstr	s0, [r4, #488]	; 0x1e8
    3d3e:	ee37 8a88 	vadd.f32	s16, s15, s16
    3d42:	ee87 7a88 	vdiv.f32	s14, s15, s16
    3d46:	eddf 7a1a 	vldr	s15, [pc, #104]	; 3db0 <configure+0x254>
    3d4a:	ed84 7abf 	vstr	s14, [r4, #764]	; 0x2fc
    3d4e:	ed9f 7a19 	vldr	s14, [pc, #100]	; 3db4 <configure+0x258>
    3d52:	bf18      	it	ne
    3d54:	eef0 7a47 	vmovne.f32	s15, s14
    3d58:	edc4 7ac9 	vstr	s15, [r4, #804]	; 0x324
    3d5c:	edd4 7a02 	vldr	s15, [r4, #8]
    3d60:	eef5 7a40 	vcmp.f32	s15, #0.0
    3d64:	eef1 fa10 	vmrs	APSR_nzcv, fpscr
    3d68:	bf15      	itete	ne
    3d6a:	230f      	movne	r3, #15
    3d6c:	2200      	moveq	r2, #0
    3d6e:	f884 32a1 	strbne.w	r3, [r4, #673]	; 0x2a1
    3d72:	f884 22a1 	strbeq.w	r2, [r4, #673]	; 0x2a1
    3d76:	ecbd 8b06 	vpop	{d8-d10}
    3d7a:	bf18      	it	ne
    3d7c:	2200      	movne	r2, #0
    3d7e:	e8bd 4038 	ldmia.w	sp!, {r3, r4, r5, lr}
    3d82:	bf14      	ite	ne
    3d84:	2103      	movne	r1, #3
    3d86:	2101      	moveq	r1, #1
    3d88:	f7ff bd0c 	b.w	37a4 <beep_alert>
    3d8c:	1000f800 	andne	pc, r0, r0, lsl #16
    3d90:	42c80000 	sbcmi	r0, r8, #0
    3d94:	00000000 	andeq	r0, r0, r0
    3d98:	42700000 	rsbsmi	r0, r0, #0
    3d9c:	42480000 	submi	r0, r8, #0
    3da0:	40a00000 	adcmi	r0, r0, r0
    3da4:	3dcccccd 	stclcc	12, cr12, [ip, #820]	; 0x334
    3da8:	43480000 	movtmi	r0, #32768	; 0x8000
    3dac:	40c90fdb 	ldrdmi	r0, [r9], #251	; 0xfb
    3db0:	47c35000 	strbmi	r5, [r3, r0]
    3db4:	44fa0000 	ldrbtmi	r0, [sl], #0

Disassembly of section .text.set_cfg:

00003db8 <set_cfg>:
    3db8:	b538      	push	{r3, r4, r5, lr}
    3dba:	4604      	mov	r4, r0
    3dbc:	4b0a      	ldr	r3, [pc, #40]	; (3de8 <set_cfg+0x30>)
    3dbe:	480b      	ldr	r0, [pc, #44]	; (3dec <set_cfg+0x34>)
    3dc0:	f8d3 30cc 	ldr.w	r3, [r3, #204]	; 0xcc
    3dc4:	4478      	add	r0, pc
    3dc6:	4798      	blx	r3
    3dc8:	6805      	ldr	r5, [r0, #0]
    3dca:	4620      	mov	r0, r4
    3dcc:	1d29      	adds	r1, r5, #4
    3dce:	f002 f8af 	bl	5f30 <confparser_deserialize_tnt_config>
    3dd2:	4604      	mov	r4, r0
    3dd4:	b128      	cbz	r0, 3de2 <set_cfg+0x2a>
    3dd6:	4628      	mov	r0, r5
    3dd8:	f7ff fcf6 	bl	37c8 <write_cfg_to_eeprom>
    3ddc:	4628      	mov	r0, r5
    3dde:	f7ff febd 	bl	3b5c <configure>
    3de2:	4620      	mov	r0, r4
    3de4:	bd38      	pop	{r3, r4, r5, pc}
    3de6:	bf00      	nop
    3de8:	1000f800 	andne	pc, r0, r0, lsl #16
    3dec:	ffffc238 			; <UNDEFINED> instruction: 0xffffc238

Disassembly of section .text.beep_off:

00003df0 <beep_off>:
    3df0:	b911      	cbnz	r1, 3df8 <beep_off+0x8>
    3df2:	f8d0 310c 	ldr.w	r3, [r0, #268]	; 0x10c
    3df6:	b92b      	cbnz	r3, 3e04 <beep_off+0x14>
    3df8:	4b03      	ldr	r3, [pc, #12]	; (3e08 <beep_off+0x18>)
    3dfa:	2100      	movs	r1, #0
    3dfc:	f8d3 30e0 	ldr.w	r3, [r3, #224]	; 0xe0
    3e00:	200c      	movs	r0, #12
    3e02:	4718      	bx	r3
    3e04:	4770      	bx	lr
    3e06:	bf00      	nop
    3e08:	1000f800 	andne	pc, r0, r0, lsl #16

Disassembly of section .text.beep_on:

00003e0c <beep_on>:
    3e0c:	f890 3118 	ldrb.w	r3, [r0, #280]	; 0x118
    3e10:	b14b      	cbz	r3, 3e26 <beep_on+0x1a>
    3e12:	b911      	cbnz	r1, 3e1a <beep_on+0xe>
    3e14:	f8d0 310c 	ldr.w	r3, [r0, #268]	; 0x10c
    3e18:	b92b      	cbnz	r3, 3e26 <beep_on+0x1a>
    3e1a:	4b03      	ldr	r3, [pc, #12]	; (3e28 <beep_on+0x1c>)
    3e1c:	2101      	movs	r1, #1
    3e1e:	f8d3 30e0 	ldr.w	r3, [r3, #224]	; 0xe0
    3e22:	200c      	movs	r0, #12
    3e24:	4718      	bx	r3
    3e26:	4770      	bx	lr
    3e28:	1000f800 	andne	pc, r0, r0, lsl #16

Disassembly of section .text.tnt_thd:

00003e2c <tnt_thd>:
    3e2c:	b5f0      	push	{r4, r5, r6, r7, lr}
    3e2e:	ed2d 8b0a 	vpush	{d8-d12}
    3e32:	f890 32a1 	ldrb.w	r3, [r0, #673]	; 0x2a1
    3e36:	4dd6      	ldr	r5, [pc, #856]	; (4190 <tnt_thd+0x364>)
    3e38:	ed9f aad6 	vldr	s20, [pc, #856]	; 4194 <tnt_thd+0x368>
    3e3c:	eddf 9ad6 	vldr	s19, [pc, #856]	; 4198 <tnt_thd+0x36c>
    3e40:	2b0f      	cmp	r3, #15
    3e42:	bf1c      	itt	ne
    3e44:	2300      	movne	r3, #0
    3e46:	f880 32a1 	strbne.w	r3, [r0, #673]	; 0x2a1
    3e4a:	2301      	movs	r3, #1
    3e4c:	f880 3118 	strb.w	r3, [r0, #280]	; 0x118
    3e50:	2300      	movs	r3, #0
    3e52:	f8c0 3340 	str.w	r3, [r0, #832]	; 0x340
    3e56:	b085      	sub	sp, #20
    3e58:	f8d5 3210 	ldr.w	r3, [r5, #528]	; 0x210
    3e5c:	4604      	mov	r4, r0
    3e5e:	4798      	blx	r3
    3e60:	e9c4 01d2 	strd	r0, r1, [r4, #840]	; 0x348
    3e64:	f8d5 30c8 	ldr.w	r3, [r5, #200]	; 0xc8
    3e68:	4798      	blx	r3
    3e6a:	b118      	cbz	r0, 3e74 <tnt_thd+0x48>
    3e6c:	b005      	add	sp, #20
    3e6e:	ecbd 8b0a 	vpop	{d8-d12}
    3e72:	bdf0      	pop	{r4, r5, r6, r7, pc}
    3e74:	4620      	mov	r0, r4
    3e76:	f7ff fc73 	bl	3760 <buzzer_update>
    3e7a:	f8d5 30ac 	ldr.w	r3, [r5, #172]	; 0xac
    3e7e:	4798      	blx	r3
    3e80:	edd4 7ab8 	vldr	s15, [r4, #736]	; 0x2e0
    3e84:	ed9f 7ac5 	vldr	s14, [pc, #788]	; 419c <tnt_thd+0x370>
    3e88:	ed94 9abe 	vldr	s18, [r4, #760]	; 0x2f8
    3e8c:	ed84 0ab7 	vstr	s0, [r4, #732]	; 0x2dc
    3e90:	eef5 7a40 	vcmp.f32	s15, #0.0
    3e94:	eef1 fa10 	vmrs	APSR_nzcv, fpscr
    3e98:	bf08      	it	eq
    3e9a:	ed84 0ab8 	vstreq	s0, [r4, #736]	; 0x2e0
    3e9e:	ed94 8ab8 	vldr	s16, [r4, #736]	; 0x2e0
    3ea2:	edd4 7ac0 	vldr	s15, [r4, #768]	; 0x300
    3ea6:	ed84 0ab8 	vstr	s0, [r4, #736]	; 0x2e0
    3eaa:	ee30 8a48 	vsub.f32	s16, s0, s16
    3eae:	ee67 7a8a 	vmul.f32	s15, s15, s20
    3eb2:	ed84 8ab9 	vstr	s16, [r4, #740]	; 0x2e4
    3eb6:	eee8 7a07 	vfma.f32	s15, s16, s14
    3eba:	f504 76b4 	add.w	r6, r4, #360	; 0x168
    3ebe:	eeb0 0a49 	vmov.f32	s0, s18
    3ec2:	edc4 7ac0 	vstr	s15, [r4, #768]	; 0x300
    3ec6:	f002 fb39 	bl	653c <roundf>
    3eca:	edd4 7a47 	vldr	s15, [r4, #284]	; 0x11c
    3ece:	f8d5 31d4 	ldr.w	r3, [r5, #468]	; 0x1d4
    3ed2:	ee77 7ac0 	vsub.f32	s15, s15, s0
    3ed6:	eef7 8a00 	vmov.f32	s17, #112	; 0x3f800000  1.0
    3eda:	ee38 8a67 	vsub.f32	s16, s16, s15
    3ede:	edd4 7abf 	vldr	s15, [r4, #764]	; 0x2fc
    3ee2:	ed84 8aba 	vstr	s16, [r4, #744]	; 0x2e8
    3ee6:	ee38 0ae7 	vsub.f32	s0, s17, s15
    3eea:	ee20 0a09 	vmul.f32	s0, s0, s18
    3eee:	ed9f 9aac 	vldr	s18, [pc, #688]	; 41a0 <tnt_thd+0x374>
    3ef2:	eea8 0a27 	vfma.f32	s0, s16, s15
    3ef6:	ed9f 8aab 	vldr	s16, [pc, #684]	; 41a4 <tnt_thd+0x378>
    3efa:	ed84 0abe 	vstr	s0, [r4, #760]	; 0x2f8
    3efe:	4798      	blx	r3
    3f00:	f8d5 3334 	ldr.w	r3, [r5, #820]	; 0x334
    3f04:	ed84 0a76 	vstr	s0, [r4, #472]	; 0x1d8
    3f08:	4630      	mov	r0, r6
    3f0a:	4798      	blx	r3
    3f0c:	ee20 0a08 	vmul.f32	s0, s0, s16
    3f10:	ed84 0a69 	vstr	s0, [r4, #420]	; 0x1a4
    3f14:	eeb0 0ac0 	vabs.f32	s0, s0
    3f18:	ed84 0a6a 	vstr	s0, [r4, #424]	; 0x1a8
    3f1c:	ee20 0a29 	vmul.f32	s0, s0, s19
    3f20:	f002 fb9a 	bl	6658 <sinf>
    3f24:	f8d4 319c 	ldr.w	r3, [r4, #412]	; 0x19c
    3f28:	f8c4 31a0 	str.w	r3, [r4, #416]	; 0x1a0
    3f2c:	4630      	mov	r0, r6
    3f2e:	f8d5 3338 	ldr.w	r3, [r5, #824]	; 0x338
    3f32:	ed84 0a6b 	vstr	s0, [r4, #428]	; 0x1ac
    3f36:	4798      	blx	r3
    3f38:	ee20 0a08 	vmul.f32	s0, s0, s16
    3f3c:	f8d5 327c 	ldr.w	r3, [r5, #636]	; 0x27c
    3f40:	ed84 0a6d 	vstr	s0, [r4, #436]	; 0x1b4
    3f44:	4798      	blx	r3
    3f46:	ee20 0a08 	vmul.f32	s0, s0, s16
    3f4a:	f8d4 31bc 	ldr.w	r3, [r4, #444]	; 0x1bc
    3f4e:	ed84 0a67 	vstr	s0, [r4, #412]	; 0x19c
    3f52:	f504 70dc 	add.w	r0, r4, #440	; 0x1b8
    3f56:	f8c4 31b0 	str.w	r3, [r4, #432]	; 0x1b0
    3f5a:	f8d5 328c 	ldr.w	r3, [r5, #652]	; 0x28c
    3f5e:	4798      	blx	r3
    3f60:	f8d5 31ac 	ldr.w	r3, [r5, #428]	; 0x1ac
    3f64:	4798      	blx	r3
    3f66:	ed84 0a71 	vstr	s0, [r4, #452]	; 0x1c4
    3f6a:	eeb0 0ac0 	vabs.f32	s0, s0
    3f6e:	f8d5 31b4 	ldr.w	r3, [r5, #436]	; 0x1b4
    3f72:	ed84 0a72 	vstr	s0, [r4, #456]	; 0x1c8
    3f76:	4798      	blx	r3
    3f78:	ed84 0a73 	vstr	s0, [r4, #460]	; 0x1cc
    3f7c:	eeb0 0ac0 	vabs.f32	s0, s0
    3f80:	f8d5 30e8 	ldr.w	r3, [r5, #232]	; 0xe8
    3f84:	ed84 0a74 	vstr	s0, [r4, #464]	; 0x1d0
    3f88:	2007      	movs	r0, #7
    3f8a:	4798      	blx	r3
    3f8c:	f8d5 30e8 	ldr.w	r3, [r5, #232]	; 0xe8
    3f90:	ed84 0a77 	vstr	s0, [r4, #476]	; 0x1dc
    3f94:	2008      	movs	r0, #8
    3f96:	4798      	blx	r3
    3f98:	f894 30c2 	ldrb.w	r3, [r4, #194]	; 0xc2
    3f9c:	eeb4 0a49 	vcmp.f32	s0, s18
    3fa0:	eef1 fa10 	vmrs	APSR_nzcv, fpscr
    3fa4:	bf48      	it	mi
    3fa6:	eeb0 0a49 	vmovmi.f32	s0, s18
    3faa:	2b01      	cmp	r3, #1
    3fac:	ed84 0a78 	vstr	s0, [r4, #480]	; 0x1e0
    3fb0:	d07a      	beq.n	40a8 <tnt_thd+0x27c>
    3fb2:	2b02      	cmp	r3, #2
    3fb4:	d110      	bne.n	3fd8 <tnt_thd+0x1ac>
    3fb6:	f8d5 334c 	ldr.w	r3, [r5, #844]	; 0x34c
    3fba:	4798      	blx	r3
    3fbc:	f8d5 3350 	ldr.w	r3, [r5, #848]	; 0x350
    3fc0:	eeb0 8a40 	vmov.f32	s16, s0
    3fc4:	4798      	blx	r3
    3fc6:	eeb4 0ae8 	vcmpe.f32	s0, s17
    3fca:	eef1 fa10 	vmrs	APSR_nzcv, fpscr
    3fce:	bf4c      	ite	mi
    3fd0:	2301      	movmi	r3, #1
    3fd2:	2300      	movpl	r3, #0
    3fd4:	2b00      	cmp	r3, #0
    3fd6:	d172      	bne.n	40be <tnt_thd+0x292>
    3fd8:	eddf 7a71 	vldr	s15, [pc, #452]	; 41a0 <tnt_thd+0x374>
    3fdc:	f8d4 27e8 	ldr.w	r2, [r4, #2024]	; 0x7e8
    3fe0:	edc4 7a79 	vstr	s15, [r4, #484]	; 0x1e4
    3fe4:	edd4 7a73 	vldr	s15, [r4, #460]	; 0x1cc
    3fe8:	ed94 7a7d 	vldr	s14, [r4, #500]	; 0x1f4
    3fec:	ed9f 8a6e 	vldr	s16, [pc, #440]	; 41a8 <tnt_thd+0x37c>
    3ff0:	eb04 0382 	add.w	r3, r4, r2, lsl #2
    3ff4:	edc3 7aff 	vstr	s15, [r3, #1020]	; 0x3fc
    3ff8:	2af9      	cmp	r2, #249	; 0xf9
    3ffa:	f102 0301 	add.w	r3, r2, #1
    3ffe:	f8d4 23f8 	ldr.w	r2, [r4, #1016]	; 0x3f8
    4002:	bf08      	it	eq
    4004:	2300      	moveq	r3, #0
    4006:	f8c4 37e8 	str.w	r3, [r4, #2024]	; 0x7e8
    400a:	eb04 0382 	add.w	r3, r4, r2, lsl #2
    400e:	ee77 7ac7 	vsub.f32	s15, s15, s14
    4012:	ed93 7af3 	vldr	s14, [r3, #972]	; 0x3cc
    4016:	ee37 7ac7 	vsub.f32	s14, s15, s14
    401a:	eef2 aa04 	vmov.f32	s21, #36	; 0x41200000  10.0
    401e:	eec7 6a2a 	vdiv.f32	s13, s14, s21
    4022:	2a09      	cmp	r2, #9
    4024:	ed94 7afd 	vldr	s14, [r4, #1012]	; 0x3f4
    4028:	ee37 7a26 	vadd.f32	s14, s14, s13
    402c:	ed84 7afd 	vstr	s14, [r4, #1012]	; 0x3f4
    4030:	edc3 7af3 	vstr	s15, [r3, #972]	; 0x3cc
    4034:	f102 0301 	add.w	r3, r2, #1
    4038:	f8d4 229c 	ldr.w	r2, [r4, #668]	; 0x29c
    403c:	bf08      	it	eq
    403e:	2300      	moveq	r3, #0
    4040:	f8c4 33f8 	str.w	r3, [r4, #1016]	; 0x3f8
    4044:	eb04 0382 	add.w	r3, r4, r2, lsl #2
    4048:	edd3 6a7e 	vldr	s13, [r3, #504]	; 0x1f8
    404c:	ee77 6ae6 	vsub.f32	s13, s15, s13
    4050:	2a27      	cmp	r2, #39	; 0x27
    4052:	ee86 7a88 	vdiv.f32	s14, s13, s16
    4056:	edd4 6aa6 	vldr	s13, [r4, #664]	; 0x298
    405a:	ee37 7a26 	vadd.f32	s14, s14, s13
    405e:	ed84 7aa6 	vstr	s14, [r4, #664]	; 0x298
    4062:	edc3 7a7e 	vstr	s15, [r3, #504]	; 0x1f8
    4066:	ed84 7a7c 	vstr	s14, [r4, #496]	; 0x1f0
    406a:	ed94 7a20 	vldr	s14, [r4, #128]	; 0x80
    406e:	edd4 7a21 	vldr	s15, [r4, #132]	; 0x84
    4072:	eeb5 7a40 	vcmp.f32	s14, #0.0
    4076:	f102 0301 	add.w	r3, r2, #1
    407a:	bf08      	it	eq
    407c:	2300      	moveq	r3, #0
    407e:	eef1 fa10 	vmrs	APSR_nzcv, fpscr
    4082:	f8c4 329c 	str.w	r3, [r4, #668]	; 0x29c
    4086:	eef5 7a40 	vcmp.f32	s15, #0.0
    408a:	f041 8432 	bne.w	58f2 <tnt_thd+0x1ac6>
    408e:	eef1 fa10 	vmrs	APSR_nzcv, fpscr
    4092:	d006      	beq.n	40a2 <tnt_thd+0x276>
    4094:	ed94 7a78 	vldr	s14, [r4, #480]	; 0x1e0
    4098:	eeb4 7ae7 	vcmpe.f32	s14, s15
    409c:	eef1 fa10 	vmrs	APSR_nzcv, fpscr
    40a0:	dd3e      	ble.n	4120 <tnt_thd+0x2f4>
    40a2:	2602      	movs	r6, #2
    40a4:	f001 bc4e 	b.w	5944 <tnt_thd+0x1b18>
    40a8:	f8d5 3348 	ldr.w	r3, [r5, #840]	; 0x348
    40ac:	4668      	mov	r0, sp
    40ae:	4798      	blx	r3
    40b0:	eddd 7a03 	vldr	s15, [sp, #12]
    40b4:	ed9d 8a01 	vldr	s16, [sp, #4]
    40b8:	eef4 7ae8 	vcmpe.f32	s15, s17
    40bc:	e785      	b.n	3fca <tnt_thd+0x19e>
    40be:	ed94 7a34 	vldr	s14, [r4, #208]	; 0xd0
    40c2:	eef0 7ac8 	vabs.f32	s15, s16
    40c6:	eef4 7ac7 	vcmpe.f32	s15, s14
    40ca:	eef1 fa10 	vmrs	APSR_nzcv, fpscr
    40ce:	d41f      	bmi.n	4110 <tnt_thd+0x2e4>
    40d0:	eeb5 8ac0 	vcmpe.f32	s16, #0.0
    40d4:	ee77 7ac7 	vsub.f32	s15, s15, s14
    40d8:	eef1 fa10 	vmrs	APSR_nzcv, fpscr
    40dc:	eeff 6a00 	vmov.f32	s13, #240	; 0xbf800000 -1.0
    40e0:	eeb7 6a00 	vmov.f32	s12, #112	; 0x3f800000  1.0
    40e4:	bf58      	it	pl
    40e6:	eef0 6a46 	vmovpl.f32	s13, s12
    40ea:	ee67 7aa6 	vmul.f32	s15, s15, s13
    40ee:	ee78 6ac7 	vsub.f32	s13, s17, s14
    40f2:	ee87 7aa6 	vdiv.f32	s14, s15, s13
    40f6:	f894 30ce 	ldrb.w	r3, [r4, #206]	; 0xce
    40fa:	2b00      	cmp	r3, #0
    40fc:	eef7 7a00 	vmov.f32	s15, #112	; 0x3f800000  1.0
    4100:	eeff 6a00 	vmov.f32	s13, #240	; 0xbf800000 -1.0
    4104:	bf18      	it	ne
    4106:	eef0 7a66 	vmovne.f32	s15, s13
    410a:	ee67 7a27 	vmul.f32	s15, s14, s15
    410e:	e765      	b.n	3fdc <tnt_thd+0x1b0>
    4110:	ed9f 7a23 	vldr	s14, [pc, #140]	; 41a0 <tnt_thd+0x374>
    4114:	e7ef      	b.n	40f6 <tnt_thd+0x2ca>
    4116:	eeb4 7ae6 	vcmpe.f32	s14, s13
    411a:	eef1 fa10 	vmrs	APSR_nzcv, fpscr
    411e:	d4c0      	bmi.n	40a2 <tnt_thd+0x276>
    4120:	f894 32a1 	ldrb.w	r3, [r4, #673]	; 0x2a1
    4124:	2b02      	cmp	r3, #2
    4126:	d84a      	bhi.n	41be <tnt_thd+0x392>
    4128:	ed94 7a74 	vldr	s14, [r4, #464]	; 0x1d0
    412c:	edd4 7ac9 	vldr	s15, [r4, #804]	; 0x324
    4130:	eeb4 7ae7 	vcmpe.f32	s14, s15
    4134:	eef1 fa10 	vmrs	APSR_nzcv, fpscr
    4138:	dd3c      	ble.n	41b4 <tnt_thd+0x388>
    413a:	2101      	movs	r1, #1
    413c:	4620      	mov	r0, r4
    413e:	f7ff fe65 	bl	3e0c <beep_on>
    4142:	2600      	movs	r6, #0
    4144:	f604 032c 	addw	r3, r4, #2092	; 0x82c
    4148:	f8d4 22c0 	ldr.w	r2, [r4, #704]	; 0x2c0
    414c:	ed94 7ab3 	vldr	s14, [r4, #716]	; 0x2cc
    4150:	f884 61ec 	strb.w	r6, [r4, #492]	; 0x1ec
    4154:	601a      	str	r2, [r3, #0]
    4156:	f504 6303 	add.w	r3, r4, #2096	; 0x830
    415a:	ed83 7a00 	vstr	s14, [r3]
    415e:	f894 32a1 	ldrb.w	r3, [r4, #673]	; 0x2a1
    4162:	2b0d      	cmp	r3, #13
    4164:	d87f      	bhi.n	4266 <tnt_thd+0x43a>
    4166:	e8df f013 	tbh	[pc, r3, lsl #1]
    416a:	0095002d 	addseq	r0, r5, sp, lsr #32
    416e:	00950095 	umullseq	r0, r5, r5, r0
    4172:	007e0095 			; <UNDEFINED> instruction: 0x007e0095
    4176:	08da08da 	ldmeq	sl, {r1, r3, r4, r6, r7, fp}^
    417a:	08da08da 	ldmeq	sl, {r1, r3, r4, r6, r7, fp}^
    417e:	08da007e 	ldmeq	sl, {r1, r2, r3, r4, r5, r6}^
    4182:	08da08da 	ldmeq	sl, {r1, r3, r4, r6, r7, fp}^
    4186:	eef1 fa10 	vmrs	APSR_nzcv, fpscr
    418a:	ddc9      	ble.n	4120 <tnt_thd+0x2f4>
    418c:	f001 bbc5 	b.w	591a <tnt_thd+0x1aee>
    4190:	1000f800 	andne	pc, r0, r0, lsl #16
    4194:	3f7851ec 	svccc	0x007851ec
    4198:	3c8efa35 	vstmiacc	lr, {s30-s82}
    419c:	3cf5c28f 	lfmcc	f4, 3, [r5], #572	; 0x23c
    41a0:	00000000 	andeq	r0, r0, r0
    41a4:	42652ee0 	rsbmi	r2, r5, #224, 28	; 0xe00
    41a8:	42200000 	eormi	r0, r0, #0
    41ac:	49742400 	ldmdbmi	r4!, {sl, sp}^
    41b0:	447a0000 	ldrbtmi	r0, [sl], #-0
    41b4:	2100      	movs	r1, #0
    41b6:	4620      	mov	r0, r4
    41b8:	f7ff fe1a 	bl	3df0 <beep_off>
    41bc:	e7c1      	b.n	4142 <tnt_thd+0x316>
    41be:	2600      	movs	r6, #0
    41c0:	f001 bbc0 	b.w	5944 <tnt_thd+0x1b18>
    41c4:	edd4 7a74 	vldr	s15, [r4, #464]	; 0x1d0
    41c8:	eef4 7ae8 	vcmpe.f32	s15, s17
    41cc:	eef1 fa10 	vmrs	APSR_nzcv, fpscr
    41d0:	dc06      	bgt.n	41e0 <tnt_thd+0x3b4>
    41d2:	edd4 7ac6 	vldr	s15, [r4, #792]	; 0x318
    41d6:	eef5 7a40 	vcmp.f32	s15, #0.0
    41da:	eef1 fa10 	vmrs	APSR_nzcv, fpscr
    41de:	d105      	bne.n	41ec <tnt_thd+0x3c0>
    41e0:	edd4 7ab7 	vldr	s15, [r4, #732]	; 0x2dc
    41e4:	ee77 7aa8 	vadd.f32	s15, s15, s17
    41e8:	edc4 7ac6 	vstr	s15, [r4, #792]	; 0x318
    41ec:	edd4 7ac6 	vldr	s15, [r4, #792]	; 0x318
    41f0:	eef5 7a40 	vcmp.f32	s15, #0.0
    41f4:	eef1 fa10 	vmrs	APSR_nzcv, fpscr
    41f8:	d006      	beq.n	4208 <tnt_thd+0x3dc>
    41fa:	ed94 7ab7 	vldr	s14, [r4, #732]	; 0x2dc
    41fe:	eef4 7ac7 	vcmpe.f32	s15, s14
    4202:	eef1 fa10 	vmrs	APSR_nzcv, fpscr
    4206:	d407      	bmi.n	4218 <tnt_thd+0x3ec>
    4208:	f8d5 32bc 	ldr.w	r3, [r5, #700]	; 0x2bc
    420c:	4798      	blx	r3
    420e:	f8d5 318c 	ldr.w	r3, [r5, #396]	; 0x18c
    4212:	ed94 0a3e 	vldr	s0, [r4, #248]	; 0xf8
    4216:	4798      	blx	r3
    4218:	f8d5 3274 	ldr.w	r3, [r5, #628]	; 0x274
    421c:	4798      	blx	r3
    421e:	b310      	cbz	r0, 4266 <tnt_thd+0x43a>
    4220:	4620      	mov	r0, r4
    4222:	f7ff f873 	bl	330c <reset_vars>
    4226:	230b      	movs	r3, #11
    4228:	f884 32a1 	strb.w	r3, [r4, #673]	; 0x2a1
    422c:	f8d5 31e0 	ldr.w	r3, [r5, #480]	; 0x1e0
    4230:	4798      	blx	r3
    4232:	edd4 7a2d 	vldr	s15, [r4, #180]	; 0xb4
    4236:	eeb1 7a04 	vmov.f32	s14, #20	; 0x40a00000  5.0
    423a:	ee77 7a87 	vadd.f32	s15, s15, s14
    423e:	eeb4 0ae7 	vcmpe.f32	s0, s15
    4242:	eef1 fa10 	vmrs	APSR_nzcv, fpscr
    4246:	d522      	bpl.n	428e <tnt_thd+0x462>
    4248:	ee37 0ac0 	vsub.f32	s0, s15, s0
    424c:	eef1 0a08 	vmov.f32	s1, #24	; 0x40c00000  6.0
    4250:	f002 fa5a 	bl	6708 <fminf>
    4254:	eefd 7ac0 	vcvt.s32.f32	s15, s0
    4258:	2201      	movs	r2, #1
    425a:	ee17 1a90 	vmov	r1, s15
    425e:	4411      	add	r1, r2
    4260:	4620      	mov	r0, r4
    4262:	f7ff fa9f 	bl	37a4 <beep_alert>
    4266:	ed94 0abe 	vldr	s0, [r4, #760]	; 0x2f8
    426a:	f002 f967 	bl	653c <roundf>
    426e:	edd4 7a47 	vldr	s15, [r4, #284]	; 0x11c
    4272:	ed1f 7a32 	vldr	s14, [pc, #-200]	; 41ac <tnt_thd+0x380>
    4276:	f8d5 30a8 	ldr.w	r3, [r5, #168]	; 0xa8
    427a:	ee77 7ac0 	vsub.f32	s15, s15, s0
    427e:	ee67 7a87 	vmul.f32	s15, s15, s14
    4282:	eefc 7ae7 	vcvt.u32.f32	s15, s15
    4286:	ee17 0a90 	vmov	r0, s15
    428a:	4798      	blx	r3
    428c:	e5ea      	b.n	3e64 <tnt_thd+0x38>
    428e:	2201      	movs	r2, #1
    4290:	4611      	mov	r1, r2
    4292:	e7e5      	b.n	4260 <tnt_thd+0x434>
    4294:	f894 3093 	ldrb.w	r3, [r4, #147]	; 0x93
    4298:	b1b3      	cbz	r3, 42c8 <tnt_thd+0x49c>
    429a:	f8b4 3090 	ldrh.w	r3, [r4, #144]	; 0x90
    429e:	edd4 6a73 	vldr	s13, [r4, #460]	; 0x1cc
    42a2:	005b      	lsls	r3, r3, #1
    42a4:	ee07 3a90 	vmov	s15, r3
    42a8:	eef8 7ae7 	vcvt.f32.s32	s15, s15
    42ac:	eef4 6ae7 	vcmpe.f32	s13, s15
    42b0:	eef1 fa10 	vmrs	APSR_nzcv, fpscr
    42b4:	dd08      	ble.n	42c8 <tnt_thd+0x49c>
    42b6:	edd4 7a69 	vldr	s15, [r4, #420]	; 0x1a4
    42ba:	eef0 7ae7 	vabs.f32	s15, s15
    42be:	eef4 7ac8 	vcmpe.f32	s15, s16
    42c2:	eef1 fa10 	vmrs	APSR_nzcv, fpscr
    42c6:	d40b      	bmi.n	42e0 <tnt_thd+0x4b4>
    42c8:	2e00      	cmp	r6, #0
    42ca:	d051      	beq.n	4370 <tnt_thd+0x544>
    42cc:	f8d4 32dc 	ldr.w	r3, [r4, #732]	; 0x2dc
    42d0:	f8c4 330c 	str.w	r3, [r4, #780]	; 0x30c
    42d4:	f894 3092 	ldrb.w	r3, [r4, #146]	; 0x92
    42d8:	bb33      	cbnz	r3, 4328 <tnt_thd+0x4fc>
    42da:	2e01      	cmp	r6, #1
    42dc:	d120      	bne.n	4320 <tnt_thd+0x4f4>
    42de:	e00d      	b.n	42fc <tnt_thd+0x4d0>
    42e0:	2e00      	cmp	r6, #0
    42e2:	d1f3      	bne.n	42cc <tnt_thd+0x4a0>
    42e4:	edd4 6a74 	vldr	s13, [r4, #464]	; 0x1d0
    42e8:	edd4 7aca 	vldr	s15, [r4, #808]	; 0x328
    42ec:	eef4 6ae7 	vcmpe.f32	s13, s15
    42f0:	eef1 fa10 	vmrs	APSR_nzcv, fpscr
    42f4:	d47b      	bmi.n	43ee <tnt_thd+0x5c2>
    42f6:	f894 3092 	ldrb.w	r3, [r4, #146]	; 0x92
    42fa:	b9ab      	cbnz	r3, 4328 <tnt_thd+0x4fc>
    42fc:	f8b4 3090 	ldrh.w	r3, [r4, #144]	; 0x90
    4300:	ed94 6a73 	vldr	s12, [r4, #460]	; 0x1cc
    4304:	edd4 7ab7 	vldr	s15, [r4, #732]	; 0x2dc
    4308:	ee06 3a90 	vmov	s13, r3
    430c:	eef8 6ae6 	vcvt.f32.s32	s13, s13
    4310:	eeb0 6ac6 	vabs.f32	s12, s12
    4314:	eeb4 6ae6 	vcmpe.f32	s12, s13
    4318:	eef1 fa10 	vmrs	APSR_nzcv, fpscr
    431c:	f100 809d 	bmi.w	445a <tnt_thd+0x62e>
    4320:	f8d4 32dc 	ldr.w	r3, [r4, #732]	; 0x2dc
    4324:	f8c4 3310 	str.w	r3, [r4, #784]	; 0x310
    4328:	edd4 6a69 	vldr	s13, [r4, #420]	; 0x1a4
    432c:	ed94 6a1f 	vldr	s12, [r4, #124]	; 0x7c
    4330:	edd4 7ab7 	vldr	s15, [r4, #732]	; 0x2dc
    4334:	eef0 6ae6 	vabs.f32	s13, s13
    4338:	eef4 6ac6 	vcmpe.f32	s13, s12
    433c:	eef1 fa10 	vmrs	APSR_nzcv, fpscr
    4340:	f340 80a1 	ble.w	4486 <tnt_thd+0x65a>
    4344:	edd4 6ac2 	vldr	s13, [r4, #776]	; 0x308
    4348:	ed1f 6a67 	vldr	s12, [pc, #-412]	; 41b0 <tnt_thd+0x384>
    434c:	f8b4 308a 	ldrh.w	r3, [r4, #138]	; 0x8a
    4350:	ee77 6ae6 	vsub.f32	s13, s15, s13
    4354:	ee66 6a86 	vmul.f32	s13, s13, s12
    4358:	ee06 3a10 	vmov	s12, r3
    435c:	eeb8 6ac6 	vcvt.f32.s32	s12, s12
    4360:	eef4 6ac6 	vcmpe.f32	s13, s12
    4364:	eef1 fa10 	vmrs	APSR_nzcv, fpscr
    4368:	f340 808f 	ble.w	448a <tnt_thd+0x65e>
    436c:	2307      	movs	r3, #7
    436e:	e071      	b.n	4454 <tnt_thd+0x628>
    4370:	ed94 6ab7 	vldr	s12, [r4, #732]	; 0x2dc
    4374:	edd4 7ac3 	vldr	s15, [r4, #780]	; 0x30c
    4378:	ed5f 6a73 	vldr	s13, [pc, #-460]	; 41b0 <tnt_thd+0x384>
    437c:	f8b4 308e 	ldrh.w	r3, [r4, #142]	; 0x8e
    4380:	ee76 7a67 	vsub.f32	s15, s12, s15
    4384:	ee67 7aa6 	vmul.f32	s15, s15, s13
    4388:	ee06 3a90 	vmov	s13, r3
    438c:	eef8 6ae6 	vcvt.f32.s32	s13, s13
    4390:	eef4 7ae6 	vcmpe.f32	s15, s13
    4394:	eef1 fa10 	vmrs	APSR_nzcv, fpscr
    4398:	dd0d      	ble.n	43b6 <tnt_thd+0x58a>
    439a:	edd4 7a39 	vldr	s15, [r4, #228]	; 0xe4
    439e:	ed94 7a4a 	vldr	s14, [r4, #296]	; 0x128
    43a2:	ed84 6ac1 	vstr	s12, [r4, #772]	; 0x304
    43a6:	ee77 7a87 	vadd.f32	s15, s15, s14
    43aa:	2309      	movs	r3, #9
    43ac:	f884 32a1 	strb.w	r3, [r4, #673]	; 0x2a1
    43b0:	edc4 7a4b 	vstr	s15, [r4, #300]	; 0x12c
    43b4:	e757      	b.n	4266 <tnt_thd+0x43a>
    43b6:	f8b4 3090 	ldrh.w	r3, [r4, #144]	; 0x90
    43ba:	edd4 5a74 	vldr	s11, [r4, #464]	; 0x1d0
    43be:	2206      	movs	r2, #6
    43c0:	4353      	muls	r3, r2
    43c2:	ee06 3a90 	vmov	s13, r3
    43c6:	eef8 6ae6 	vcvt.f32.s32	s13, s13
    43ca:	eef4 5ae6 	vcmpe.f32	s11, s13
    43ce:	eef1 fa10 	vmrs	APSR_nzcv, fpscr
    43d2:	d587      	bpl.n	42e4 <tnt_thd+0x4b8>
    43d4:	f8b4 308c 	ldrh.w	r3, [r4, #140]	; 0x8c
    43d8:	ee06 3a90 	vmov	s13, r3
    43dc:	eef8 6ae6 	vcvt.f32.s32	s13, s13
    43e0:	eef4 7ae6 	vcmpe.f32	s15, s13
    43e4:	eef1 fa10 	vmrs	APSR_nzcv, fpscr
    43e8:	f77f af7c 	ble.w	42e4 <tnt_thd+0x4b8>
    43ec:	e7d5      	b.n	439a <tnt_thd+0x56e>
    43ee:	ed94 6a6d 	vldr	s12, [r4, #436]	; 0x1b4
    43f2:	eef2 7a0c 	vmov.f32	s15, #44	; 0x41600000  14.0
    43f6:	eef0 6ac6 	vabs.f32	s13, s12
    43fa:	eef4 6ae7 	vcmpe.f32	s13, s15
    43fe:	eef1 fa10 	vmrs	APSR_nzcv, fpscr
    4402:	f77f af78 	ble.w	42f6 <tnt_thd+0x4ca>
    4406:	eef0 7ac7 	vabs.f32	s15, s14
    440a:	eef3 6a0e 	vmov.f32	s13, #62	; 0x41f00000  30.0
    440e:	eef4 7ae6 	vcmpe.f32	s15, s13
    4412:	eef1 fa10 	vmrs	APSR_nzcv, fpscr
    4416:	f57f af6e 	bpl.w	42f6 <tnt_thd+0x4ca>
    441a:	edd4 5a73 	vldr	s11, [r4, #460]	; 0x1cc
    441e:	eeb5 6ac0 	vcmpe.f32	s12, #0.0
    4422:	eef1 fa10 	vmrs	APSR_nzcv, fpscr
    4426:	eeff 7a00 	vmov.f32	s15, #240	; 0xbf800000 -1.0
    442a:	eef7 6a00 	vmov.f32	s13, #112	; 0x3f800000  1.0
    442e:	eef5 5ac0 	vcmpe.f32	s11, #0.0
    4432:	bf54      	ite	pl
    4434:	eeb0 6a66 	vmovpl.f32	s12, s13
    4438:	eeb0 6a67 	vmovmi.f32	s12, s15
    443c:	eef1 fa10 	vmrs	APSR_nzcv, fpscr
    4440:	bf58      	it	pl
    4442:	eef0 7a66 	vmovpl.f32	s15, s13
    4446:	eeb4 6a67 	vcmp.f32	s12, s15
    444a:	eef1 fa10 	vmrs	APSR_nzcv, fpscr
    444e:	f47f af52 	bne.w	42f6 <tnt_thd+0x4ca>
    4452:	230d      	movs	r3, #13
    4454:	f884 32a1 	strb.w	r3, [r4, #673]	; 0x2a1
    4458:	e705      	b.n	4266 <tnt_thd+0x43a>
    445a:	edd4 6ac4 	vldr	s13, [r4, #784]	; 0x310
    445e:	f8b4 308c 	ldrh.w	r3, [r4, #140]	; 0x8c
    4462:	ee77 7ae6 	vsub.f32	s15, s15, s13
    4466:	ed5f 6aae 	vldr	s13, [pc, #-696]	; 41b0 <tnt_thd+0x384>
    446a:	ee67 7aa6 	vmul.f32	s15, s15, s13
    446e:	ee06 3a90 	vmov	s13, r3
    4472:	eef8 6ae6 	vcvt.f32.s32	s13, s13
    4476:	eef4 7ae6 	vcmpe.f32	s15, s13
    447a:	eef1 fa10 	vmrs	APSR_nzcv, fpscr
    447e:	f77f af53 	ble.w	4328 <tnt_thd+0x4fc>
    4482:	2308      	movs	r3, #8
    4484:	e7e6      	b.n	4454 <tnt_thd+0x628>
    4486:	edc4 7ac2 	vstr	s15, [r4, #776]	; 0x308
    448a:	edd4 6a6d 	vldr	s13, [r4, #436]	; 0x1b4
    448e:	ed94 6a1e 	vldr	s12, [r4, #120]	; 0x78
    4492:	eef0 6ae6 	vabs.f32	s13, s13
    4496:	eef4 6ac6 	vcmpe.f32	s13, s12
    449a:	eef1 fa10 	vmrs	APSR_nzcv, fpscr
    449e:	dd1d      	ble.n	44dc <tnt_thd+0x6b0>
    44a0:	eeb0 7ac7 	vabs.f32	s14, s14
    44a4:	eef3 6a0e 	vmov.f32	s13, #62	; 0x41f00000  30.0
    44a8:	eeb4 7ae6 	vcmpe.f32	s14, s13
    44ac:	eef1 fa10 	vmrs	APSR_nzcv, fpscr
    44b0:	d514      	bpl.n	44dc <tnt_thd+0x6b0>
    44b2:	ed94 7ac1 	vldr	s14, [r4, #772]	; 0x304
    44b6:	ed5f 6ac2 	vldr	s13, [pc, #-776]	; 41b0 <tnt_thd+0x384>
    44ba:	f8b4 3088 	ldrh.w	r3, [r4, #136]	; 0x88
    44be:	ee37 7ac7 	vsub.f32	s14, s15, s14
    44c2:	ee27 7a26 	vmul.f32	s14, s14, s13
    44c6:	ee06 3a90 	vmov	s13, r3
    44ca:	eef8 6ae6 	vcvt.f32.s32	s13, s13
    44ce:	eeb4 7ae6 	vcmpe.f32	s14, s13
    44d2:	eef1 fa10 	vmrs	APSR_nzcv, fpscr
    44d6:	dd03      	ble.n	44e0 <tnt_thd+0x6b4>
    44d8:	2306      	movs	r3, #6
    44da:	e7bb      	b.n	4454 <tnt_thd+0x628>
    44dc:	edc4 7ac1 	vstr	s15, [r4, #772]	; 0x304
    44e0:	2301      	movs	r3, #1
    44e2:	f8c4 3340 	str.w	r3, [r4, #832]	; 0x340
    44e6:	edc4 7abb 	vstr	s15, [r4, #748]	; 0x2ec
    44ea:	f8d5 31e0 	ldr.w	r3, [r5, #480]	; 0x1e0
    44ee:	4798      	blx	r3
    44f0:	edd4 7a2a 	vldr	s15, [r4, #168]	; 0xa8
    44f4:	eeb4 0ae7 	vcmpe.f32	s0, s15
    44f8:	eef1 fa10 	vmrs	APSR_nzcv, fpscr
    44fc:	bf44      	itt	mi
    44fe:	f8d4 32dc 	ldrmi.w	r3, [r4, #732]	; 0x2dc
    4502:	f8c4 3320 	strmi.w	r3, [r4, #800]	; 0x320
    4506:	f894 32d8 	ldrb.w	r3, [r4, #728]	; 0x2d8
    450a:	eeb0 8a40 	vmov.f32	s16, s0
    450e:	b94b      	cbnz	r3, 4524 <tnt_thd+0x6f8>
    4510:	edd4 6ab2 	vldr	s13, [r4, #712]	; 0x2c8
    4514:	ed94 7ab1 	vldr	s14, [r4, #708]	; 0x2c4
    4518:	eef4 6a47 	vcmp.f32	s13, s14
    451c:	eef1 fa10 	vmrs	APSR_nzcv, fpscr
    4520:	f041 81e4 	bne.w	58ec <tnt_thd+0x1ac0>
    4524:	f894 32a1 	ldrb.w	r3, [r4, #673]	; 0x2a1
    4528:	ed94 7a72 	vldr	s14, [r4, #456]	; 0x1c8
    452c:	2b03      	cmp	r3, #3
    452e:	d10e      	bne.n	454e <tnt_thd+0x722>
    4530:	2301      	movs	r3, #1
    4532:	f884 32d8 	strb.w	r3, [r4, #728]	; 0x2d8
    4536:	ed94 7a72 	vldr	s14, [r4, #456]	; 0x1c8
    453a:	edd4 7a7a 	vldr	s15, [r4, #488]	; 0x1e8
    453e:	eeb4 7ae7 	vcmpe.f32	s14, s15
    4542:	eef1 fa10 	vmrs	APSR_nzcv, fpscr
    4546:	bfc8      	it	gt
    4548:	ed84 9ab1 	vstrgt	s18, [r4, #708]	; 0x2c4
    454c:	e111      	b.n	4772 <tnt_thd+0x946>
    454e:	edd4 6a27 	vldr	s13, [r4, #156]	; 0x9c
    4552:	eef4 6ac7 	vcmpe.f32	s13, s14
    4556:	eef1 fa10 	vmrs	APSR_nzcv, fpscr
    455a:	d53e      	bpl.n	45da <tnt_thd+0x7ae>
    455c:	ed94 7a73 	vldr	s14, [r4, #460]	; 0x1cc
    4560:	edd4 7a25 	vldr	s15, [r4, #148]	; 0x94
    4564:	eeb5 7ac0 	vcmpe.f32	s14, #0.0
    4568:	eef1 fa10 	vmrs	APSR_nzcv, fpscr
    456c:	f04f 0302 	mov.w	r3, #2
    4570:	bfd8      	it	le
    4572:	eef1 7a67 	vnegle.f32	s15, s15
    4576:	edc4 7ab1 	vstr	s15, [r4, #708]	; 0x2c4
    457a:	f884 32d8 	strb.w	r3, [r4, #728]	; 0x2d8
    457e:	f884 32a1 	strb.w	r3, [r4, #673]	; 0x2a1
    4582:	f894 30fd 	ldrb.w	r3, [r4, #253]	; 0xfd
    4586:	b933      	cbnz	r3, 4596 <tnt_thd+0x76a>
    4588:	edd4 7a25 	vldr	s15, [r4, #148]	; 0x94
    458c:	eef5 7a40 	vcmp.f32	s15, #0.0
    4590:	eef1 fa10 	vmrs	APSR_nzcv, fpscr
    4594:	d106      	bne.n	45a4 <tnt_thd+0x778>
    4596:	2101      	movs	r1, #1
    4598:	4620      	mov	r0, r4
    459a:	f7ff fc37 	bl	3e0c <beep_on>
    459e:	2301      	movs	r3, #1
    45a0:	f884 3165 	strb.w	r3, [r4, #357]	; 0x165
    45a4:	edd4 7ab2 	vldr	s15, [r4, #712]	; 0x2c8
    45a8:	edd4 6ab1 	vldr	s13, [r4, #708]	; 0x2c4
    45ac:	eef4 7a66 	vcmp.f32	s15, s13
    45b0:	eef1 fa10 	vmrs	APSR_nzcv, fpscr
    45b4:	f000 80f6 	beq.w	47a4 <tnt_thd+0x978>
    45b8:	ee36 6ae7 	vsub.f32	s12, s13, s15
    45bc:	f894 32d8 	ldrb.w	r3, [r4, #728]	; 0x2d8
    45c0:	eef0 5ac6 	vabs.f32	s11, s12
    45c4:	2b05      	cmp	r3, #5
    45c6:	f200 8190 	bhi.w	48ea <tnt_thd+0xabe>
    45ca:	e8df f013 	tbh	[pc, r3, lsl #1]
    45ce:	018b00e1 	orreq	r0, fp, r1, ror #1
    45d2:	01850182 	orreq	r0, r5, r2, lsl #3
    45d6:	01850188 	orreq	r0, r5, r8, lsl #3
    45da:	eddf aad9 	vldr	s21, [pc, #868]	; 4940 <tnt_thd+0xb14>
    45de:	eeb4 7aea 	vcmpe.f32	s14, s21
    45e2:	eef1 fa10 	vmrs	APSR_nzcv, fpscr
    45e6:	dd37      	ble.n	4658 <tnt_thd+0x82c>
    45e8:	eeb4 8ae7 	vcmpe.f32	s16, s15
    45ec:	eef1 fa10 	vmrs	APSR_nzcv, fpscr
    45f0:	dd32      	ble.n	4658 <tnt_thd+0x82c>
    45f2:	2200      	movs	r2, #0
    45f4:	2103      	movs	r1, #3
    45f6:	4620      	mov	r0, r4
    45f8:	f7ff f8d4 	bl	37a4 <beep_alert>
    45fc:	ed94 7ac8 	vldr	s14, [r4, #800]	; 0x320
    4600:	edd4 7ab7 	vldr	s15, [r4, #732]	; 0x2dc
    4604:	ee77 7ac7 	vsub.f32	s15, s15, s14
    4608:	eeb6 7a00 	vmov.f32	s14, #96	; 0x3f000000  0.5
    460c:	eef4 7ac7 	vcmpe.f32	s15, s14
    4610:	eef1 fa10 	vmrs	APSR_nzcv, fpscr
    4614:	dc08      	bgt.n	4628 <tnt_thd+0x7fc>
    4616:	edd4 7a2a 	vldr	s15, [r4, #168]	; 0xa8
    461a:	ee77 7aa8 	vadd.f32	s15, s15, s17
    461e:	eeb4 8ae7 	vcmpe.f32	s16, s15
    4622:	eef1 fa10 	vmrs	APSR_nzcv, fpscr
    4626:	dd11      	ble.n	464c <tnt_thd+0x820>
    4628:	ed94 7a73 	vldr	s14, [r4, #460]	; 0x1cc
    462c:	edd4 7a28 	vldr	s15, [r4, #160]	; 0xa0
    4630:	eeb5 7ac0 	vcmpe.f32	s14, #0.0
    4634:	eef1 fa10 	vmrs	APSR_nzcv, fpscr
    4638:	bfd8      	it	le
    463a:	eef1 7a67 	vnegle.f32	s15, s15
    463e:	edc4 7ab1 	vstr	s15, [r4, #708]	; 0x2c4
    4642:	2303      	movs	r3, #3
    4644:	f884 32d8 	strb.w	r3, [r4, #728]	; 0x2d8
    4648:	2302      	movs	r3, #2
    464a:	e002      	b.n	4652 <tnt_thd+0x826>
    464c:	2301      	movs	r3, #1
    464e:	f884 32d8 	strb.w	r3, [r4, #728]	; 0x2d8
    4652:	f884 32a1 	strb.w	r3, [r4, #673]	; 0x2a1
    4656:	e091      	b.n	477c <tnt_thd+0x950>
    4658:	f8d5 31f8 	ldr.w	r3, [r5, #504]	; 0x1f8
    465c:	4798      	blx	r3
    465e:	edd4 7a54 	vldr	s15, [r4, #336]	; 0x150
    4662:	eeb4 0ae7 	vcmpe.f32	s0, s15
    4666:	eef1 fa10 	vmrs	APSR_nzcv, fpscr
    466a:	dd1f      	ble.n	46ac <tnt_thd+0x880>
    466c:	2201      	movs	r2, #1
    466e:	2103      	movs	r1, #3
    4670:	4620      	mov	r0, r4
    4672:	f7ff f897 	bl	37a4 <beep_alert>
    4676:	f8d5 31f8 	ldr.w	r3, [r5, #504]	; 0x1f8
    467a:	4798      	blx	r3
    467c:	edd4 7a54 	vldr	s15, [r4, #336]	; 0x150
    4680:	ee77 7aa8 	vadd.f32	s15, s15, s17
    4684:	eeb4 0ae7 	vcmpe.f32	s0, s15
    4688:	eef1 fa10 	vmrs	APSR_nzcv, fpscr
    468c:	ddde      	ble.n	464c <tnt_thd+0x820>
    468e:	ed94 7a73 	vldr	s14, [r4, #460]	; 0x1cc
    4692:	edd4 7a2b 	vldr	s15, [r4, #172]	; 0xac
    4696:	eeb5 7ac0 	vcmpe.f32	s14, #0.0
    469a:	eef1 fa10 	vmrs	APSR_nzcv, fpscr
    469e:	bfd8      	it	le
    46a0:	eef1 7a67 	vnegle.f32	s15, s15
    46a4:	edc4 7ab1 	vstr	s15, [r4, #708]	; 0x2c4
    46a8:	2305      	movs	r3, #5
    46aa:	e7cb      	b.n	4644 <tnt_thd+0x818>
    46ac:	f8d5 31fc 	ldr.w	r3, [r5, #508]	; 0x1fc
    46b0:	4798      	blx	r3
    46b2:	edd4 7a55 	vldr	s15, [r4, #340]	; 0x154
    46b6:	eeb4 0ae7 	vcmpe.f32	s0, s15
    46ba:	eef1 fa10 	vmrs	APSR_nzcv, fpscr
    46be:	dd0a      	ble.n	46d6 <tnt_thd+0x8aa>
    46c0:	2201      	movs	r2, #1
    46c2:	2103      	movs	r1, #3
    46c4:	4620      	mov	r0, r4
    46c6:	f7ff f86d 	bl	37a4 <beep_alert>
    46ca:	f8d5 31fc 	ldr.w	r3, [r5, #508]	; 0x1fc
    46ce:	4798      	blx	r3
    46d0:	edd4 7a55 	vldr	s15, [r4, #340]	; 0x154
    46d4:	e7d4      	b.n	4680 <tnt_thd+0x854>
    46d6:	edd4 7a72 	vldr	s15, [r4, #456]	; 0x1c8
    46da:	eef4 7aea 	vcmpe.f32	s15, s21
    46de:	eef1 fa10 	vmrs	APSR_nzcv, fpscr
    46e2:	dd41      	ble.n	4768 <tnt_thd+0x93c>
    46e4:	edd4 7a2d 	vldr	s15, [r4, #180]	; 0xb4
    46e8:	eeb4 8ae7 	vcmpe.f32	s16, s15
    46ec:	eef1 fa10 	vmrs	APSR_nzcv, fpscr
    46f0:	d53a      	bpl.n	4768 <tnt_thd+0x93c>
    46f2:	2200      	movs	r2, #0
    46f4:	2103      	movs	r1, #3
    46f6:	4620      	mov	r0, r4
    46f8:	f7ff f854 	bl	37a4 <beep_alert>
    46fc:	edd4 7a2d 	vldr	s15, [r4, #180]	; 0xb4
    4700:	ed94 7a76 	vldr	s14, [r4, #472]	; 0x1d8
    4704:	ee37 0ac8 	vsub.f32	s0, s15, s16
    4708:	eef0 7a00 	vmov.f32	s15, #0	; 0x40000000  2.0
    470c:	eeb4 0ae7 	vcmpe.f32	s0, s15
    4710:	eef1 fa10 	vmrs	APSR_nzcv, fpscr
    4714:	dc13      	bgt.n	473e <tnt_thd+0x912>
    4716:	eef0 7ac7 	vabs.f32	s15, s14
    471a:	eeb1 7a04 	vmov.f32	s14, #20	; 0x40a00000  5.0
    471e:	eef4 7ac7 	vcmpe.f32	s15, s14
    4722:	eef1 fa10 	vmrs	APSR_nzcv, fpscr
    4726:	d40a      	bmi.n	473e <tnt_thd+0x912>
    4728:	eeb3 7a04 	vmov.f32	s14, #52	; 0x41a00000  20.0
    472c:	ee20 0a07 	vmul.f32	s0, s0, s14
    4730:	ee80 7a27 	vdiv.f32	s14, s0, s15
    4734:	eeb4 7ae8 	vcmpe.f32	s14, s17
    4738:	eef1 fa10 	vmrs	APSR_nzcv, fpscr
    473c:	dd0e      	ble.n	475c <tnt_thd+0x930>
    473e:	ed94 7a73 	vldr	s14, [r4, #460]	; 0x1cc
    4742:	edd4 7a2b 	vldr	s15, [r4, #172]	; 0xac
    4746:	eeb5 7ac0 	vcmpe.f32	s14, #0.0
    474a:	eef1 fa10 	vmrs	APSR_nzcv, fpscr
    474e:	bfd8      	it	le
    4750:	eef1 7a67 	vnegle.f32	s15, s15
    4754:	edc4 7ab1 	vstr	s15, [r4, #708]	; 0x2c4
    4758:	2304      	movs	r3, #4
    475a:	e773      	b.n	4644 <tnt_thd+0x818>
    475c:	2301      	movs	r3, #1
    475e:	f884 32d8 	strb.w	r3, [r4, #728]	; 0x2d8
    4762:	ed84 9ab1 	vstr	s18, [r4, #708]	; 0x2c4
    4766:	e774      	b.n	4652 <tnt_thd+0x826>
    4768:	f894 32a1 	ldrb.w	r3, [r4, #673]	; 0x2a1
    476c:	2b03      	cmp	r3, #3
    476e:	f43f aee2 	beq.w	4536 <tnt_thd+0x70a>
    4772:	f894 32d8 	ldrb.w	r3, [r4, #728]	; 0x2d8
    4776:	2b02      	cmp	r3, #2
    4778:	f43f af03 	beq.w	4582 <tnt_thd+0x756>
    477c:	f894 3165 	ldrb.w	r3, [r4, #357]	; 0x165
    4780:	2b00      	cmp	r3, #0
    4782:	f43f af0f 	beq.w	45a4 <tnt_thd+0x778>
    4786:	2100      	movs	r1, #0
    4788:	4620      	mov	r0, r4
    478a:	f7ff fb31 	bl	3df0 <beep_off>
    478e:	e709      	b.n	45a4 <tnt_thd+0x778>
    4790:	ed94 7a4c 	vldr	s14, [r4, #304]	; 0x130
    4794:	eef4 5ac7 	vcmpe.f32	s11, s14
    4798:	eef1 fa10 	vmrs	APSR_nzcv, fpscr
    479c:	f140 80a8 	bpl.w	48f0 <tnt_thd+0xac4>
    47a0:	edc4 6ab2 	vstr	s13, [r4, #712]	; 0x2c8
    47a4:	edd4 7a32 	vldr	s15, [r4, #200]	; 0xc8
    47a8:	ed94 ba79 	vldr	s22, [r4, #484]	; 0x1e4
    47ac:	edd4 aab2 	vldr	s21, [r4, #712]	; 0x2c8
    47b0:	edd4 bab3 	vldr	s23, [r4, #716]	; 0x2cc
    47b4:	edc4 aab0 	vstr	s21, [r4, #704]	; 0x2c0
    47b8:	eebd 7ae7 	vcvt.s32.f32	s14, s15
    47bc:	ee2b 8a27 	vmul.f32	s16, s22, s15
    47c0:	eeb8 7ac7 	vcvt.f32.s32	s14, s14
    47c4:	ee77 7ac7 	vsub.f32	s15, s15, s14
    47c8:	eef5 7ac0 	vcmpe.f32	s15, #0.0
    47cc:	eef1 fa10 	vmrs	APSR_nzcv, fpscr
    47d0:	f340 8778 	ble.w	56c4 <tnt_thd+0x1898>
    47d4:	edd4 7ad7 	vldr	s15, [r4, #860]	; 0x35c
    47d8:	ed9f 7a5a 	vldr	s14, [pc, #360]	; 4944 <tnt_thd+0xb18>
    47dc:	eeb0 0acb 	vabs.f32	s0, s22
    47e0:	eef0 7ae7 	vabs.f32	s15, s15
    47e4:	ee70 7a67 	vsub.f32	s15, s0, s15
    47e8:	eef4 7ac7 	vcmpe.f32	s15, s14
    47ec:	eef1 fa10 	vmrs	APSR_nzcv, fpscr
    47f0:	dc06      	bgt.n	4800 <tnt_thd+0x9d4>
    47f2:	eddf 7a55 	vldr	s15, [pc, #340]	; 4948 <tnt_thd+0xb1c>
    47f6:	eeb4 0ae7 	vcmpe.f32	s0, s15
    47fa:	eef1 fa10 	vmrs	APSR_nzcv, fpscr
    47fe:	dd14      	ble.n	482a <tnt_thd+0x9fe>
    4800:	edd4 0ad6 	vldr	s1, [r4, #856]	; 0x358
    4804:	eeb5 bac0 	vcmpe.f32	s22, #0.0
    4808:	eef1 fa10 	vmrs	APSR_nzcv, fpscr
    480c:	eef7 7a00 	vmov.f32	s15, #112	; 0x3f800000  1.0
    4810:	eebf ca00 	vmov.f32	s24, #240	; 0xbf800000 -1.0
    4814:	eef0 0ae0 	vabs.f32	s1, s1
    4818:	bf58      	it	pl
    481a:	eeb0 ca67 	vmovpl.f32	s24, s15
    481e:	f001 ff55 	bl	66cc <fmaxf>
    4822:	ee20 0a0c 	vmul.f32	s0, s0, s24
    4826:	ed84 0ad6 	vstr	s0, [r4, #856]	; 0x358
    482a:	eeb5 ba40 	vcmp.f32	s22, #0.0
    482e:	eef1 fa10 	vmrs	APSR_nzcv, fpscr
    4832:	d13b      	bne.n	48ac <tnt_thd+0xa80>
    4834:	ed94 7ad6 	vldr	s14, [r4, #856]	; 0x358
    4838:	eddf 6a44 	vldr	s13, [pc, #272]	; 494c <tnt_thd+0xb20>
    483c:	eef0 7ac7 	vabs.f32	s15, s14
    4840:	eef4 7ae6 	vcmpe.f32	s15, s13
    4844:	eef1 fa10 	vmrs	APSR_nzcv, fpscr
    4848:	dd30      	ble.n	48ac <tnt_thd+0xa80>
    484a:	f894 3360 	ldrb.w	r3, [r4, #864]	; 0x360
    484e:	bb43      	cbnz	r3, 48a2 <tnt_thd+0xa76>
    4850:	eddf 6a3d 	vldr	s13, [pc, #244]	; 4948 <tnt_thd+0xb1c>
    4854:	eef4 7ae6 	vcmpe.f32	s15, s13
    4858:	eef1 fa10 	vmrs	APSR_nzcv, fpscr
    485c:	d521      	bpl.n	48a2 <tnt_thd+0xa76>
    485e:	f894 3354 	ldrb.w	r3, [r4, #852]	; 0x354
    4862:	eef0 7a08 	vmov.f32	s15, #8	; 0x40400000  3.0
    4866:	2b00      	cmp	r3, #0
    4868:	d04e      	beq.n	4908 <tnt_thd+0xadc>
    486a:	ed94 6ab5 	vldr	s12, [r4, #724]	; 0x2d4
    486e:	edd4 6ad4 	vldr	s13, [r4, #848]	; 0x350
    4872:	eeb0 6ac6 	vabs.f32	s12, s12
    4876:	eef3 5a04 	vmov.f32	s11, #52	; 0x41a00000  20.0
    487a:	eeb4 6ae5 	vcmpe.f32	s12, s11
    487e:	eef1 fa10 	vmrs	APSR_nzcv, fpscr
    4882:	eef0 6ae6 	vabs.f32	s13, s13
    4886:	d506      	bpl.n	4896 <tnt_thd+0xa6a>
    4888:	eeb1 6a08 	vmov.f32	s12, #24	; 0x40c00000  6.0
    488c:	eef4 6a46 	vcmp.f32	s13, s12
    4890:	eef1 fa10 	vmrs	APSR_nzcv, fpscr
    4894:	d03b      	beq.n	490e <tnt_thd+0xae2>
    4896:	eef4 6a67 	vcmp.f32	s13, s15
    489a:	eef1 fa10 	vmrs	APSR_nzcv, fpscr
    489e:	f000 8733 	beq.w	5708 <tnt_thd+0x18dc>
    48a2:	2300      	movs	r3, #0
    48a4:	f884 3360 	strb.w	r3, [r4, #864]	; 0x360
    48a8:	ed84 9ad6 	vstr	s18, [r4, #856]	; 0x358
    48ac:	f894 3354 	ldrb.w	r3, [r4, #852]	; 0x354
    48b0:	2b00      	cmp	r3, #0
    48b2:	f000 8701 	beq.w	56b8 <tnt_thd+0x188c>
    48b6:	eef5 bac0 	vcmpe.f32	s23, #0.0
    48ba:	eef1 fa10 	vmrs	APSR_nzcv, fpscr
    48be:	f140 86e5 	bpl.w	568c <tnt_thd+0x1860>
    48c2:	eeb5 8ac0 	vcmpe.f32	s16, #0.0
    48c6:	eef1 fa10 	vmrs	APSR_nzcv, fpscr
    48ca:	f140 86e4 	bpl.w	5696 <tnt_thd+0x186a>
    48ce:	f000 bee8 	b.w	56a2 <tnt_thd+0x1876>
    48d2:	ed94 7a4d 	vldr	s14, [r4, #308]	; 0x134
    48d6:	e75d      	b.n	4794 <tnt_thd+0x968>
    48d8:	ed94 7a4e 	vldr	s14, [r4, #312]	; 0x138
    48dc:	e75a      	b.n	4794 <tnt_thd+0x968>
    48de:	ed94 7a4f 	vldr	s14, [r4, #316]	; 0x13c
    48e2:	e757      	b.n	4794 <tnt_thd+0x968>
    48e4:	ed94 7a50 	vldr	s14, [r4, #320]	; 0x140
    48e8:	e754      	b.n	4794 <tnt_thd+0x968>
    48ea:	ed9f 7a19 	vldr	s14, [pc, #100]	; 4950 <tnt_thd+0xb24>
    48ee:	e751      	b.n	4794 <tnt_thd+0x968>
    48f0:	eeb5 6ac0 	vcmpe.f32	s12, #0.0
    48f4:	eef1 fa10 	vmrs	APSR_nzcv, fpscr
    48f8:	bfcc      	ite	gt
    48fa:	ee77 7a87 	vaddgt.f32	s15, s15, s14
    48fe:	ee77 7ac7 	vsuble.f32	s15, s15, s14
    4902:	edc4 7ab2 	vstr	s15, [r4, #712]	; 0x2c8
    4906:	e74d      	b.n	47a4 <tnt_thd+0x978>
    4908:	2301      	movs	r3, #1
    490a:	f884 3354 	strb.w	r3, [r4, #852]	; 0x354
    490e:	eeb5 7ac0 	vcmpe.f32	s14, #0.0
    4912:	eef1 fa10 	vmrs	APSR_nzcv, fpscr
    4916:	eebf 7a00 	vmov.f32	s14, #240	; 0xbf800000 -1.0
    491a:	eef7 6a00 	vmov.f32	s13, #112	; 0x3f800000  1.0
    491e:	bf58      	it	pl
    4920:	eeb0 7a66 	vmovpl.f32	s14, s13
    4924:	ee67 7a27 	vmul.f32	s15, s14, s15
    4928:	edc4 7ad4 	vstr	s15, [r4, #848]	; 0x350
    492c:	e7b9      	b.n	48a2 <tnt_thd+0xa76>
    492e:	2301      	movs	r3, #1
    4930:	f884 3360 	strb.w	r3, [r4, #864]	; 0x360
    4934:	2300      	movs	r3, #0
    4936:	f884 3354 	strb.w	r3, [r4, #852]	; 0x354
    493a:	f000 bebd 	b.w	56b8 <tnt_thd+0x188c>
    493e:	bf00      	nop
    4940:	3d4ccccd 	stclcc	12, cr12, [ip, #-820]	; 0xfffffccc
    4944:	3a83126f 	bcc	fe0c9308 <memset+0xfe0c1f94>
    4948:	3f733333 	svccc	0x00733333
    494c:	3c23d70a 	stccc	7, cr13, [r3], #-40	; 0xffffffd8
    4950:	00000000 	andeq	r0, r0, r0
    4954:	3f333333 	svccc	0x00333333
    4958:	3b89a027 	blcc	fe26c9fc <memset+0xfe265688>
    495c:	3da3d70a 	stccc	7, cr13, [r3, #40]!	; 0x28
    4960:	3f666666 	svccc	0x00666666
    4964:	42b40000 	adcsmi	r0, r4, #0
    4968:	443b8000 	ldrtmi	r8, [fp], #-0
    496c:	ee20 0a27 	vmul.f32	s0, s0, s15
    4970:	3201      	adds	r2, #1
    4972:	429a      	cmp	r2, r3
    4974:	dbfa      	blt.n	496c <tnt_thd+0xb40>
    4976:	ee07 3a10 	vmov	s14, r3
    497a:	eeb8 7ac7 	vcvt.f32.s32	s14, s14
    497e:	eef7 6a08 	vmov.f32	s13, #120	; 0x3fc00000  1.5
    4982:	eee7 6a27 	vfma.f32	s13, s14, s15
    4986:	ed94 6a51 	vldr	s12, [r4, #324]	; 0x144
    498a:	ee20 7a20 	vmul.f32	s14, s0, s1
    498e:	eef4 6acc 	vcmpe.f32	s13, s24
    4992:	ee38 0ac0 	vsub.f32	s0, s17, s0
    4996:	eef1 fa10 	vmrs	APSR_nzcv, fpscr
    499a:	ee20 0a06 	vmul.f32	s0, s0, s12
    499e:	f340 8219 	ble.w	4dd4 <tnt_thd+0xfa8>
    49a2:	ee6b 7a27 	vmul.f32	s15, s22, s15
    49a6:	eea7 0a87 	vfma.f32	s0, s15, s14
    49aa:	eef0 7ae7 	vabs.f32	s15, s15
    49ae:	ee67 0aa0 	vmul.f32	s1, s15, s1
    49b2:	ed84 0a51 	vstr	s0, [r4, #324]	; 0x144
    49b6:	eeb0 0ac0 	vabs.f32	s0, s0
    49ba:	f001 fea5 	bl	6708 <fminf>
    49be:	eeb5 bac0 	vcmpe.f32	s22, #0.0
    49c2:	eef1 fa10 	vmrs	APSR_nzcv, fpscr
    49c6:	eeff 7a00 	vmov.f32	s15, #240	; 0xbf800000 -1.0
    49ca:	eeb7 7a00 	vmov.f32	s14, #112	; 0x3f800000  1.0
    49ce:	bf58      	it	pl
    49d0:	eef0 7a47 	vmovpl.f32	s15, s14
    49d4:	ee20 0a27 	vmul.f32	s0, s0, s15
    49d8:	eef0 7ac0 	vabs.f32	s15, s0
    49dc:	eef4 7acc 	vcmpe.f32	s15, s24
    49e0:	eef1 fa10 	vmrs	APSR_nzcv, fpscr
    49e4:	dc01      	bgt.n	49ea <tnt_thd+0xbbe>
    49e6:	ee3b 8a80 	vadd.f32	s16, s23, s0
    49ea:	f894 32a1 	ldrb.w	r3, [r4, #673]	; 0x2a1
    49ee:	ed94 ca73 	vldr	s24, [r4, #460]	; 0x1cc
    49f2:	ed84 8ab3 	vstr	s16, [r4, #716]	; 0x2cc
    49f6:	2b03      	cmp	r3, #3
    49f8:	ee3a ba88 	vadd.f32	s22, s21, s16
    49fc:	d02e      	beq.n	4a5c <tnt_thd+0xc30>
    49fe:	f8b4 30c0 	ldrh.w	r3, [r4, #192]	; 0xc0
    4a02:	ee07 3a90 	vmov	s15, r3
    4a06:	eef8 7ae7 	vcvt.f32.s32	s15, s15
    4a0a:	eeb0 7acc 	vabs.f32	s14, s24
    4a0e:	eeb4 7ae7 	vcmpe.f32	s14, s15
    4a12:	eef1 fa10 	vmrs	APSR_nzcv, fpscr
    4a16:	f340 81ed 	ble.w	4df4 <tnt_thd+0xfc8>
    4a1a:	eeb5 cac0 	vcmpe.f32	s24, #0.0
    4a1e:	eef7 6a00 	vmov.f32	s13, #112	; 0x3f800000  1.0
    4a22:	ed94 7a2f 	vldr	s14, [r4, #188]	; 0xbc
    4a26:	eef1 fa10 	vmrs	APSR_nzcv, fpscr
    4a2a:	eeff 7a00 	vmov.f32	s15, #240	; 0xbf800000 -1.0
    4a2e:	bf58      	it	pl
    4a30:	eef0 7a66 	vmovpl.f32	s15, s13
    4a34:	eef0 6a49 	vmov.f32	s13, s18
    4a38:	eee7 6a27 	vfma.f32	s13, s14, s15
    4a3c:	edd4 7ab4 	vldr	s15, [r4, #720]	; 0x2d0
    4a40:	ed94 7a53 	vldr	s14, [r4, #332]	; 0x14c
    4a44:	ee36 6ae7 	vsub.f32	s12, s13, s15
    4a48:	eef0 5ac6 	vabs.f32	s11, s12
    4a4c:	eef4 5ac7 	vcmpe.f32	s11, s14
    4a50:	eef1 fa10 	vmrs	APSR_nzcv, fpscr
    4a54:	f140 81d1 	bpl.w	4dfa <tnt_thd+0xfce>
    4a58:	edc4 6ab4 	vstr	s13, [r4, #720]	; 0x2d0
    4a5c:	edd4 7ab4 	vldr	s15, [r4, #720]	; 0x2d0
    4a60:	ed5f 6a44 	vldr	s13, [pc, #-272]	; 4954 <tnt_thd+0xb28>
    4a64:	edd4 caad 	vldr	s25, [r4, #692]	; 0x2b4
    4a68:	ee3b ba27 	vadd.f32	s22, s22, s15
    4a6c:	edd4 7a67 	vldr	s15, [r4, #412]	; 0x19c
    4a70:	ed84 bab0 	vstr	s22, [r4, #704]	; 0x2c0
    4a74:	f604 021c 	addw	r2, r4, #2076	; 0x81c
    4a78:	ed92 7a00 	vldr	s14, [r2]
    4a7c:	ee3b ba67 	vsub.f32	s22, s22, s15
    4a80:	ed5f 7a4b 	vldr	s15, [pc, #-300]	; 4958 <tnt_thd+0xb2c>
    4a84:	ed84 baa9 	vstr	s22, [r4, #676]	; 0x2a4
    4a88:	ee37 7a27 	vadd.f32	s14, s14, s15
    4a8c:	f604 0318 	addw	r3, r4, #2072	; 0x818
    4a90:	ee77 6a26 	vadd.f32	s13, s14, s13
    4a94:	edd3 ba00 	vldr	s23, [r3]
    4a98:	eec8 7aa6 	vdiv.f32	s15, s17, s13
    4a9c:	ee7b 6a6b 	vsub.f32	s13, s22, s23
    4aa0:	ee67 7a87 	vmul.f32	s15, s15, s14
    4aa4:	ee7b ca6c 	vsub.f32	s25, s22, s25
    4aa8:	eee7 baa6 	vfma.f32	s23, s15, s13
    4aac:	ee78 7ae7 	vsub.f32	s15, s17, s15
    4ab0:	ee67 7a87 	vmul.f32	s15, s15, s14
    4ab4:	edc2 7a00 	vstr	s15, [r2]
    4ab8:	f604 0224 	addw	r2, r4, #2084	; 0x824
    4abc:	edd2 6a00 	vldr	s13, [r2]
    4ac0:	ed5f 7a5a 	vldr	s15, [pc, #-360]	; 495c <tnt_thd+0xb30>
    4ac4:	edc3 ba00 	vstr	s23, [r3]
    4ac8:	ee76 6aa7 	vadd.f32	s13, s13, s15
    4acc:	f504 6302 	add.w	r3, r4, #2080	; 0x820
    4ad0:	ee36 6aa8 	vadd.f32	s12, s13, s17
    4ad4:	ed93 7a00 	vldr	s14, [r3]
    4ad8:	eec8 7a86 	vdiv.f32	s15, s17, s12
    4adc:	ee3c 6ac7 	vsub.f32	s12, s25, s14
    4ae0:	ee67 7aa6 	vmul.f32	s15, s15, s13
    4ae4:	eea7 7a86 	vfma.f32	s14, s15, s12
    4ae8:	ee78 7ae7 	vsub.f32	s15, s17, s15
    4aec:	ee67 7aa6 	vmul.f32	s15, s15, s13
    4af0:	edc2 7a00 	vstr	s15, [r2]
    4af4:	ed5f 7a66 	vldr	s15, [pc, #-408]	; 4960 <tnt_thd+0xb34>
    4af8:	ed83 7a00 	vstr	s14, [r3]
    4afc:	eee7 ba27 	vfma.f32	s23, s14, s15
    4b00:	f604 0328 	addw	r3, r4, #2088	; 0x828
    4b04:	edd4 7a0b 	vldr	s15, [r4, #44]	; 0x2c
    4b08:	edc3 ba00 	vstr	s23, [r3]
    4b0c:	eef4 7aeb 	vcmpe.f32	s15, s23
    4b10:	eef1 fa10 	vmrs	APSR_nzcv, fpscr
    4b14:	d51c      	bpl.n	4b50 <tnt_thd+0xd24>
    4b16:	edd4 0a07 	vldr	s1, [r4, #28]
    4b1a:	eef5 0ac0 	vcmpe.f32	s1, #0.0
    4b1e:	eef1 fa10 	vmrs	APSR_nzcv, fpscr
    4b22:	dd15      	ble.n	4b50 <tnt_thd+0xd24>
    4b24:	ed94 7a06 	vldr	s14, [r4, #24]
    4b28:	eeb5 7ac0 	vcmpe.f32	s14, #0.0
    4b2c:	eef1 fa10 	vmrs	APSR_nzcv, fpscr
    4b30:	dd0e      	ble.n	4b50 <tnt_thd+0xd24>
    4b32:	ed94 7a05 	vldr	s14, [r4, #20]
    4b36:	eeb5 7ac0 	vcmpe.f32	s14, #0.0
    4b3a:	eef1 fa10 	vmrs	APSR_nzcv, fpscr
    4b3e:	dd07      	ble.n	4b50 <tnt_thd+0xd24>
    4b40:	ed94 7a04 	vldr	s14, [r4, #16]
    4b44:	eeb5 7ac0 	vcmpe.f32	s14, #0.0
    4b48:	eef1 fa10 	vmrs	APSR_nzcv, fpscr
    4b4c:	f300 8174 	bgt.w	4e38 <tnt_thd+0x100c>
    4b50:	ed94 7a0a 	vldr	s14, [r4, #40]	; 0x28
    4b54:	eeb4 7aeb 	vcmpe.f32	s14, s23
    4b58:	eef1 fa10 	vmrs	APSR_nzcv, fpscr
    4b5c:	d51c      	bpl.n	4b98 <tnt_thd+0xd6c>
    4b5e:	edd4 6a07 	vldr	s13, [r4, #28]
    4b62:	eef5 6ac0 	vcmpe.f32	s13, #0.0
    4b66:	eef1 fa10 	vmrs	APSR_nzcv, fpscr
    4b6a:	dd15      	ble.n	4b98 <tnt_thd+0xd6c>
    4b6c:	edd4 0a06 	vldr	s1, [r4, #24]
    4b70:	eef5 0ac0 	vcmpe.f32	s1, #0.0
    4b74:	eef1 fa10 	vmrs	APSR_nzcv, fpscr
    4b78:	dd0e      	ble.n	4b98 <tnt_thd+0xd6c>
    4b7a:	ed94 6a05 	vldr	s12, [r4, #20]
    4b7e:	eeb5 6ac0 	vcmpe.f32	s12, #0.0
    4b82:	eef1 fa10 	vmrs	APSR_nzcv, fpscr
    4b86:	dd07      	ble.n	4b98 <tnt_thd+0xd6c>
    4b88:	ed94 6a04 	vldr	s12, [r4, #16]
    4b8c:	eeb5 6ac0 	vcmpe.f32	s12, #0.0
    4b90:	eef1 fa10 	vmrs	APSR_nzcv, fpscr
    4b94:	f300 8155 	bgt.w	4e42 <tnt_thd+0x1016>
    4b98:	edd4 7a09 	vldr	s15, [r4, #36]	; 0x24
    4b9c:	eef4 7aeb 	vcmpe.f32	s15, s23
    4ba0:	eef1 fa10 	vmrs	APSR_nzcv, fpscr
    4ba4:	f140 8135 	bpl.w	4e12 <tnt_thd+0xfe6>
    4ba8:	edd4 6a06 	vldr	s13, [r4, #24]
    4bac:	ed94 6a05 	vldr	s12, [r4, #20]
    4bb0:	eef5 6ac0 	vcmpe.f32	s13, #0.0
    4bb4:	eef1 fa10 	vmrs	APSR_nzcv, fpscr
    4bb8:	dd0d      	ble.n	4bd6 <tnt_thd+0xdaa>
    4bba:	eeb5 6ac0 	vcmpe.f32	s12, #0.0
    4bbe:	eef1 fa10 	vmrs	APSR_nzcv, fpscr
    4bc2:	eef0 0a46 	vmov.f32	s1, s12
    4bc6:	dd06      	ble.n	4bd6 <tnt_thd+0xdaa>
    4bc8:	edd4 5a04 	vldr	s11, [r4, #16]
    4bcc:	eef5 5ac0 	vcmpe.f32	s11, #0.0
    4bd0:	eef1 fa10 	vmrs	APSR_nzcv, fpscr
    4bd4:	dc13      	bgt.n	4bfe <tnt_thd+0xdd2>
    4bd6:	eeb5 6ac0 	vcmpe.f32	s12, #0.0
    4bda:	eef1 fa10 	vmrs	APSR_nzcv, fpscr
    4bde:	eef0 6a46 	vmov.f32	s13, s12
    4be2:	f340 8116 	ble.w	4e12 <tnt_thd+0xfe6>
    4be6:	edd4 0a04 	vldr	s1, [r4, #16]
    4bea:	eef5 0ac0 	vcmpe.f32	s1, #0.0
    4bee:	eef1 fa10 	vmrs	APSR_nzcv, fpscr
    4bf2:	f340 810e 	ble.w	4e12 <tnt_thd+0xfe6>
    4bf6:	eeb0 7a67 	vmov.f32	s14, s15
    4bfa:	edd4 7a08 	vldr	s15, [r4, #32]
    4bfe:	eef4 7a47 	vcmp.f32	s15, s14
    4c02:	eef1 fa10 	vmrs	APSR_nzcv, fpscr
    4c06:	d01e      	beq.n	4c46 <tnt_thd+0xe1a>
    4c08:	eef4 7ac7 	vcmpe.f32	s15, s14
    4c0c:	eef1 fa10 	vmrs	APSR_nzcv, fpscr
    4c10:	dc19      	bgt.n	4c46 <tnt_thd+0xe1a>
    4c12:	eeb0 8a60 	vmov.f32	s16, s1
    4c16:	eef0 0a66 	vmov.f32	s1, s13
    4c1a:	ee30 6ac8 	vsub.f32	s12, s1, s16
    4c1e:	ee77 7a67 	vsub.f32	s15, s14, s15
    4c22:	eeb0 0a60 	vmov.f32	s0, s1
    4c26:	eec6 6a27 	vdiv.f32	s13, s12, s15
    4c2a:	eef0 7aeb 	vabs.f32	s15, s23
    4c2e:	eea6 0ac7 	vfms.f32	s0, s13, s14
    4c32:	eea6 0aa7 	vfma.f32	s0, s13, s15
    4c36:	f001 fd67 	bl	6708 <fminf>
    4c3a:	eef0 0a48 	vmov.f32	s1, s16
    4c3e:	f001 fd45 	bl	66cc <fmaxf>
    4c42:	eef0 0a40 	vmov.f32	s1, s0
    4c46:	ee6b aa20 	vmul.f32	s21, s22, s1
    4c4a:	f8d4 3120 	ldr.w	r3, [r4, #288]	; 0x120
    4c4e:	edc4 0aeb 	vstr	s1, [r4, #940]	; 0x3ac
    4c52:	edc4 aaaa 	vstr	s21, [r4, #680]	; 0x2a8
    4c56:	edc4 cadb 	vstr	s25, [r4, #876]	; 0x36c
    4c5a:	2b00      	cmp	r3, #0
    4c5c:	f040 8190 	bne.w	4f80 <tnt_thd+0x1154>
    4c60:	edd4 7a05 	vldr	s15, [r4, #20]
    4c64:	edd4 ca6f 	vldr	s25, [r4, #444]	; 0x1bc
    4c68:	edd4 6a6a 	vldr	s13, [r4, #424]	; 0x1a8
    4c6c:	eeb5 bac0 	vcmpe.f32	s22, #0.0
    4c70:	eef1 fa10 	vmrs	APSR_nzcv, fpscr
    4c74:	eeb7 7a00 	vmov.f32	s14, #112	; 0x3f800000  1.0
    4c78:	eeb5 cac0 	vcmpe.f32	s24, #0.0
    4c7c:	ee6c cae7 	vnmul.f32	s25, s25, s15
    4c80:	eeff 7a00 	vmov.f32	s15, #240	; 0xbf800000 -1.0
    4c84:	bf54      	ite	pl
    4c86:	eeb0 6a47 	vmovpl.f32	s12, s14
    4c8a:	eeb0 6a67 	vmovmi.f32	s12, s15
    4c8e:	eef1 fa10 	vmrs	APSR_nzcv, fpscr
    4c92:	bf58      	it	pl
    4c94:	eef0 7a47 	vmovpl.f32	s15, s14
    4c98:	eeb4 6a67 	vcmp.f32	s12, s15
    4c9c:	eef1 fa10 	vmrs	APSR_nzcv, fpscr
    4ca0:	f000 811b 	beq.w	4eda <tnt_thd+0x10ae>
    4ca4:	edd4 7a1c 	vldr	s15, [r4, #112]	; 0x70
    4ca8:	eef4 7ae6 	vcmpe.f32	s15, s13
    4cac:	eef1 fa10 	vmrs	APSR_nzcv, fpscr
    4cb0:	f140 80d5 	bpl.w	4e5e <tnt_thd+0x1032>
    4cb4:	ed94 8a19 	vldr	s16, [r4, #100]	; 0x64
    4cb8:	eeb5 8ac0 	vcmpe.f32	s16, #0.0
    4cbc:	eef1 fa10 	vmrs	APSR_nzcv, fpscr
    4cc0:	f340 80cd 	ble.w	4e5e <tnt_thd+0x1032>
    4cc4:	ed94 7a18 	vldr	s14, [r4, #96]	; 0x60
    4cc8:	eeb5 7ac0 	vcmpe.f32	s14, #0.0
    4ccc:	eef1 fa10 	vmrs	APSR_nzcv, fpscr
    4cd0:	f340 80c5 	ble.w	4e5e <tnt_thd+0x1032>
    4cd4:	eeb1 8a48 	vneg.f32	s16, s16
    4cd8:	ed1f 7ade 	vldr	s14, [pc, #-888]	; 4964 <tnt_thd+0xb38>
    4cdc:	eef0 0a48 	vmov.f32	s1, s16
    4ce0:	ed5f 6adf 	vldr	s13, [pc, #-892]	; 4968 <tnt_thd+0xb3c>
    4ce4:	eeb4 cae6 	vcmpe.f32	s24, s13
    4ce8:	eef1 fa10 	vmrs	APSR_nzcv, fpscr
    4cec:	f100 813c 	bmi.w	4f68 <tnt_thd+0x113c>
    4cf0:	eef4 7a47 	vcmp.f32	s15, s14
    4cf4:	eef1 fa10 	vmrs	APSR_nzcv, fpscr
    4cf8:	d024      	beq.n	4d44 <tnt_thd+0xf18>
    4cfa:	eef4 7ac7 	vcmpe.f32	s15, s14
    4cfe:	eef1 fa10 	vmrs	APSR_nzcv, fpscr
    4d02:	dc1f      	bgt.n	4d44 <tnt_thd+0xf18>
    4d04:	eef0 6ae0 	vabs.f32	s13, s1
    4d08:	eeb0 6ac8 	vabs.f32	s12, s16
    4d0c:	eef4 6ac6 	vcmpe.f32	s13, s12
    4d10:	eef1 fa10 	vmrs	APSR_nzcv, fpscr
    4d14:	f100 8131 	bmi.w	4f7a <tnt_thd+0x114e>
    4d18:	ee30 6ac8 	vsub.f32	s12, s1, s16
    4d1c:	ee77 7a67 	vsub.f32	s15, s14, s15
    4d20:	eeb0 0a60 	vmov.f32	s0, s1
    4d24:	eec6 6a27 	vdiv.f32	s13, s12, s15
    4d28:	eef0 baeb 	vabs.f32	s23, s23
    4d2c:	eea6 0ac7 	vfms.f32	s0, s13, s14
    4d30:	eea6 0aab 	vfma.f32	s0, s13, s23
    4d34:	f001 fce8 	bl	6708 <fminf>
    4d38:	eef0 0a48 	vmov.f32	s1, s16
    4d3c:	f001 fcc6 	bl	66cc <fmaxf>
    4d40:	eeb0 8a40 	vmov.f32	s16, s0
    4d44:	ed84 8aec 	vstr	s16, [r4, #944]	; 0x3b0
    4d48:	ee38 8a28 	vadd.f32	s16, s16, s17
    4d4c:	edd4 7a56 	vldr	s15, [r4, #344]	; 0x158
    4d50:	eeea ca88 	vfma.f32	s25, s21, s16
    4d54:	ed94 8acc 	vldr	s16, [r4, #816]	; 0x330
    4d58:	edc4 caac 	vstr	s25, [r4, #688]	; 0x2b0
    4d5c:	eeb4 8ae7 	vcmpe.f32	s16, s15
    4d60:	eef1 fa10 	vmrs	APSR_nzcv, fpscr
    4d64:	d51a      	bpl.n	4d9c <tnt_thd+0xf70>
    4d66:	eef0 0aec 	vabs.f32	s1, s25
    4d6a:	eeb0 0a48 	vmov.f32	s0, s16
    4d6e:	f001 fccb 	bl	6708 <fminf>
    4d72:	eef5 cac0 	vcmpe.f32	s25, #0.0
    4d76:	eef1 fa10 	vmrs	APSR_nzcv, fpscr
    4d7a:	eeff 7a00 	vmov.f32	s15, #240	; 0xbf800000 -1.0
    4d7e:	eeb7 7a00 	vmov.f32	s14, #112	; 0x3f800000  1.0
    4d82:	bf58      	it	pl
    4d84:	eef0 7a47 	vmovpl.f32	s15, s14
    4d88:	ee20 0a27 	vmul.f32	s0, s0, s15
    4d8c:	ed84 0aac 	vstr	s0, [r4, #688]	; 0x2b0
    4d90:	ed94 0acd 	vldr	s0, [r4, #820]	; 0x334
    4d94:	ee30 0a08 	vadd.f32	s0, s0, s16
    4d98:	ed84 0acc 	vstr	s0, [r4, #816]	; 0x330
    4d9c:	edd4 7aac 	vldr	s15, [r4, #688]	; 0x2b0
    4da0:	ee7a aaa7 	vadd.f32	s21, s21, s15
    4da4:	eeb5 bac0 	vcmpe.f32	s22, #0.0
    4da8:	eef1 fa10 	vmrs	APSR_nzcv, fpscr
    4dac:	f140 84c4 	bpl.w	5738 <tnt_thd+0x190c>
    4db0:	eeb5 cac0 	vcmpe.f32	s24, #0.0
    4db4:	eef1 fa10 	vmrs	APSR_nzcv, fpscr
    4db8:	f100 80e5 	bmi.w	4f86 <tnt_thd+0x115a>
    4dbc:	eebf 7a00 	vmov.f32	s14, #240	; 0xbf800000 -1.0
    4dc0:	eef7 7a00 	vmov.f32	s15, #112	; 0x3f800000  1.0
    4dc4:	f000 bcc2 	b.w	574c <tnt_thd+0x1920>
    4dc8:	ed9f 0abc 	vldr	s0, [pc, #752]	; 50bc <tnt_thd+0x1290>
    4dcc:	2201      	movs	r2, #1
    4dce:	eef6 7a00 	vmov.f32	s15, #96	; 0x3f000000  0.5
    4dd2:	e5ce      	b.n	4972 <tnt_thd+0xb46>
    4dd4:	eeb5 bac0 	vcmpe.f32	s22, #0.0
    4dd8:	eef1 fa10 	vmrs	APSR_nzcv, fpscr
    4ddc:	eeff 7a00 	vmov.f32	s15, #240	; 0xbf800000 -1.0
    4de0:	eef7 6a00 	vmov.f32	s13, #112	; 0x3f800000  1.0
    4de4:	bf58      	it	pl
    4de6:	eef0 7a66 	vmovpl.f32	s15, s13
    4dea:	eea7 0a87 	vfma.f32	s0, s15, s14
    4dee:	ed84 0a51 	vstr	s0, [r4, #324]	; 0x144
    4df2:	e5f8      	b.n	49e6 <tnt_thd+0xbba>
    4df4:	eddf 6aba 	vldr	s13, [pc, #744]	; 50e0 <tnt_thd+0x12b4>
    4df8:	e620      	b.n	4a3c <tnt_thd+0xc10>
    4dfa:	eeb5 6ac0 	vcmpe.f32	s12, #0.0
    4dfe:	eef1 fa10 	vmrs	APSR_nzcv, fpscr
    4e02:	bfcc      	ite	gt
    4e04:	ee77 7a87 	vaddgt.f32	s15, s15, s14
    4e08:	ee77 7ac7 	vsuble.f32	s15, s15, s14
    4e0c:	edc4 7ab4 	vstr	s15, [r4, #720]	; 0x2d0
    4e10:	e624      	b.n	4a5c <tnt_thd+0xc30>
    4e12:	ed94 7a08 	vldr	s14, [r4, #32]
    4e16:	edd4 0a03 	vldr	s1, [r4, #12]
    4e1a:	eeb4 7aeb 	vcmpe.f32	s14, s23
    4e1e:	eef1 fa10 	vmrs	APSR_nzcv, fpscr
    4e22:	d515      	bpl.n	4e50 <tnt_thd+0x1024>
    4e24:	edd4 6a04 	vldr	s13, [r4, #16]
    4e28:	eef5 6ac0 	vcmpe.f32	s13, #0.0
    4e2c:	eef1 fa10 	vmrs	APSR_nzcv, fpscr
    4e30:	dd0e      	ble.n	4e50 <tnt_thd+0x1024>
    4e32:	eddf 7aab 	vldr	s15, [pc, #684]	; 50e0 <tnt_thd+0x12b4>
    4e36:	e6e2      	b.n	4bfe <tnt_thd+0xdd2>
    4e38:	ed9f 7aa1 	vldr	s14, [pc, #644]	; 50c0 <tnt_thd+0x1294>
    4e3c:	eef0 6a60 	vmov.f32	s13, s1
    4e40:	e6dd      	b.n	4bfe <tnt_thd+0xdd2>
    4e42:	eeb0 6a67 	vmov.f32	s12, s15
    4e46:	eef0 7a47 	vmov.f32	s15, s14
    4e4a:	eeb0 7a46 	vmov.f32	s14, s12
    4e4e:	e6d6      	b.n	4bfe <tnt_thd+0xdd2>
    4e50:	eddf 7aa3 	vldr	s15, [pc, #652]	; 50e0 <tnt_thd+0x12b4>
    4e54:	eeb0 8a60 	vmov.f32	s16, s1
    4e58:	eeb7 7a00 	vmov.f32	s14, #112	; 0x3f800000  1.0
    4e5c:	e6dd      	b.n	4c1a <tnt_thd+0xdee>
    4e5e:	ed94 7a1b 	vldr	s14, [r4, #108]	; 0x6c
    4e62:	eeb4 7ae6 	vcmpe.f32	s14, s13
    4e66:	eef1 fa10 	vmrs	APSR_nzcv, fpscr
    4e6a:	d518      	bpl.n	4e9e <tnt_thd+0x1072>
    4e6c:	edd4 0a19 	vldr	s1, [r4, #100]	; 0x64
    4e70:	eef5 0ac0 	vcmpe.f32	s1, #0.0
    4e74:	eef1 fa10 	vmrs	APSR_nzcv, fpscr
    4e78:	dd11      	ble.n	4e9e <tnt_thd+0x1072>
    4e7a:	ed94 8a18 	vldr	s16, [r4, #96]	; 0x60
    4e7e:	eeb5 8ac0 	vcmpe.f32	s16, #0.0
    4e82:	eef1 fa10 	vmrs	APSR_nzcv, fpscr
    4e86:	dd0a      	ble.n	4e9e <tnt_thd+0x1072>
    4e88:	eef0 6a67 	vmov.f32	s13, s15
    4e8c:	eeb1 8a48 	vneg.f32	s16, s16
    4e90:	eef0 7a47 	vmov.f32	s15, s14
    4e94:	eef1 0a60 	vneg.f32	s1, s1
    4e98:	eeb0 7a66 	vmov.f32	s14, s13
    4e9c:	e720      	b.n	4ce0 <tnt_thd+0xeb4>
    4e9e:	edd4 7a1a 	vldr	s15, [r4, #104]	; 0x68
    4ea2:	eef4 7ae6 	vcmpe.f32	s15, s13
    4ea6:	eef1 fa10 	vmrs	APSR_nzcv, fpscr
    4eaa:	d50d      	bpl.n	4ec8 <tnt_thd+0x109c>
    4eac:	edd4 0a18 	vldr	s1, [r4, #96]	; 0x60
    4eb0:	eef5 0ac0 	vcmpe.f32	s1, #0.0
    4eb4:	eef1 fa10 	vmrs	APSR_nzcv, fpscr
    4eb8:	dd06      	ble.n	4ec8 <tnt_thd+0x109c>
    4eba:	ed94 8a17 	vldr	s16, [r4, #92]	; 0x5c
    4ebe:	eef1 0a60 	vneg.f32	s1, s1
    4ec2:	eeb1 8a48 	vneg.f32	s16, s16
    4ec6:	e70b      	b.n	4ce0 <tnt_thd+0xeb4>
    4ec8:	eddf 0a85 	vldr	s1, [pc, #532]	; 50e0 <tnt_thd+0x12b4>
    4ecc:	eeb7 7a00 	vmov.f32	s14, #112	; 0x3f800000  1.0
    4ed0:	eef0 7a60 	vmov.f32	s15, s1
    4ed4:	eeb0 8a60 	vmov.f32	s16, s1
    4ed8:	e702      	b.n	4ce0 <tnt_thd+0xeb4>
    4eda:	edd4 7a16 	vldr	s15, [r4, #88]	; 0x58
    4ede:	eef4 7ae6 	vcmpe.f32	s15, s13
    4ee2:	eef1 fa10 	vmrs	APSR_nzcv, fpscr
    4ee6:	d50d      	bpl.n	4f04 <tnt_thd+0x10d8>
    4ee8:	ed94 8a13 	vldr	s16, [r4, #76]	; 0x4c
    4eec:	eeb5 8ac0 	vcmpe.f32	s16, #0.0
    4ef0:	eef1 fa10 	vmrs	APSR_nzcv, fpscr
    4ef4:	dd06      	ble.n	4f04 <tnt_thd+0x10d8>
    4ef6:	ed94 7a12 	vldr	s14, [r4, #72]	; 0x48
    4efa:	eeb5 7ac0 	vcmpe.f32	s14, #0.0
    4efe:	eef1 fa10 	vmrs	APSR_nzcv, fpscr
    4f02:	dc25      	bgt.n	4f50 <tnt_thd+0x1124>
    4f04:	ed94 7a15 	vldr	s14, [r4, #84]	; 0x54
    4f08:	eeb4 7ae6 	vcmpe.f32	s14, s13
    4f0c:	eef1 fa10 	vmrs	APSR_nzcv, fpscr
    4f10:	d50d      	bpl.n	4f2e <tnt_thd+0x1102>
    4f12:	edd4 0a13 	vldr	s1, [r4, #76]	; 0x4c
    4f16:	eef5 0ac0 	vcmpe.f32	s1, #0.0
    4f1a:	eef1 fa10 	vmrs	APSR_nzcv, fpscr
    4f1e:	dd06      	ble.n	4f2e <tnt_thd+0x1102>
    4f20:	ed94 8a12 	vldr	s16, [r4, #72]	; 0x48
    4f24:	eeb5 8ac0 	vcmpe.f32	s16, #0.0
    4f28:	eef1 fa10 	vmrs	APSR_nzcv, fpscr
    4f2c:	dc15      	bgt.n	4f5a <tnt_thd+0x112e>
    4f2e:	edd4 7a14 	vldr	s15, [r4, #80]	; 0x50
    4f32:	eef4 7ae6 	vcmpe.f32	s15, s13
    4f36:	eef1 fa10 	vmrs	APSR_nzcv, fpscr
    4f3a:	d515      	bpl.n	4f68 <tnt_thd+0x113c>
    4f3c:	edd4 0a12 	vldr	s1, [r4, #72]	; 0x48
    4f40:	eef5 0ac0 	vcmpe.f32	s1, #0.0
    4f44:	eef1 fa10 	vmrs	APSR_nzcv, fpscr
    4f48:	dd0e      	ble.n	4f68 <tnt_thd+0x113c>
    4f4a:	ed94 8a11 	vldr	s16, [r4, #68]	; 0x44
    4f4e:	e6cf      	b.n	4cf0 <tnt_thd+0xec4>
    4f50:	ed9f 7a5b 	vldr	s14, [pc, #364]	; 50c0 <tnt_thd+0x1294>
    4f54:	eef0 0a48 	vmov.f32	s1, s16
    4f58:	e6ca      	b.n	4cf0 <tnt_thd+0xec4>
    4f5a:	eef0 6a67 	vmov.f32	s13, s15
    4f5e:	eef0 7a47 	vmov.f32	s15, s14
    4f62:	eeb0 7a66 	vmov.f32	s14, s13
    4f66:	e6c3      	b.n	4cf0 <tnt_thd+0xec4>
    4f68:	ed9f 8a5d 	vldr	s16, [pc, #372]	; 50e0 <tnt_thd+0x12b4>
    4f6c:	eeb7 7a00 	vmov.f32	s14, #112	; 0x3f800000  1.0
    4f70:	eef0 0a48 	vmov.f32	s1, s16
    4f74:	eef0 7a48 	vmov.f32	s15, s16
    4f78:	e6c4      	b.n	4d04 <tnt_thd+0xed8>
    4f7a:	ed9f 8a59 	vldr	s16, [pc, #356]	; 50e0 <tnt_thd+0x12b4>
    4f7e:	e6e1      	b.n	4d44 <tnt_thd+0xf18>
    4f80:	ed84 9aac 	vstr	s18, [r4, #688]	; 0x2b0
    4f84:	e70e      	b.n	4da4 <tnt_thd+0xf78>
    4f86:	edd4 7a56 	vldr	s15, [r4, #344]	; 0x158
    4f8a:	e3e7      	b.n	575c <tnt_thd+0x1930>
    4f8c:	ed94 7ab5 	vldr	s14, [r4, #724]	; 0x2d4
    4f90:	edd4 6a58 	vldr	s13, [r4, #352]	; 0x160
    4f94:	edd4 7ab7 	vldr	s15, [r4, #732]	; 0x2dc
    4f98:	eeb0 7ac7 	vabs.f32	s14, s14
    4f9c:	eeb4 7ae6 	vcmpe.f32	s14, s13
    4fa0:	eef1 fa10 	vmrs	APSR_nzcv, fpscr
    4fa4:	d50d      	bpl.n	4fc2 <tnt_thd+0x1196>
    4fa6:	f894 3164 	ldrb.w	r3, [r4, #356]	; 0x164
    4faa:	edc4 7ac7 	vstr	s15, [r4, #796]	; 0x31c
    4fae:	2b00      	cmp	r3, #0
    4fb0:	f000 83eb 	beq.w	578a <tnt_thd+0x195e>
    4fb4:	2100      	movs	r1, #0
    4fb6:	f884 1164 	strb.w	r1, [r4, #356]	; 0x164
    4fba:	4620      	mov	r0, r4
    4fbc:	f7fe ff18 	bl	3df0 <beep_off>
    4fc0:	e3e3      	b.n	578a <tnt_thd+0x195e>
    4fc2:	ed94 7ac7 	vldr	s14, [r4, #796]	; 0x31c
    4fc6:	ee77 7ac7 	vsub.f32	s15, s15, s14
    4fca:	eef4 7acb 	vcmpe.f32	s15, s22
    4fce:	eef1 fa10 	vmrs	APSR_nzcv, fpscr
    4fd2:	f340 83da 	ble.w	578a <tnt_thd+0x195e>
    4fd6:	2101      	movs	r1, #1
    4fd8:	4620      	mov	r0, r4
    4fda:	f7fe ff17 	bl	3e0c <beep_on>
    4fde:	2301      	movs	r3, #1
    4fe0:	f884 3164 	strb.w	r3, [r4, #356]	; 0x164
    4fe4:	e3d1      	b.n	578a <tnt_thd+0x195e>
    4fe6:	f894 27ec 	ldrb.w	r2, [r4, #2028]	; 0x7ec
    4fea:	b13a      	cbz	r2, 4ffc <tnt_thd+0x11d0>
    4fec:	2200      	movs	r2, #0
    4fee:	f884 27ec 	strb.w	r2, [r4, #2028]	; 0x7ec
    4ff2:	f204 72f4 	addw	r2, r4, #2036	; 0x7f4
    4ff6:	f8d4 12dc 	ldr.w	r1, [r4, #732]	; 0x2dc
    4ffa:	6011      	str	r1, [r2, #0]
    4ffc:	ed83 9a00 	vstr	s18, [r3]
    5000:	f000 bc38 	b.w	5874 <tnt_thd+0x1a48>
    5004:	2309      	movs	r3, #9
    5006:	f000 bc4b 	b.w	58a0 <tnt_thd+0x1a74>
    500a:	edd4 7aed 	vldr	s15, [r4, #948]	; 0x3b4
    500e:	ee75 7ae7 	vsub.f32	s15, s11, s15
    5012:	eef4 7ac7 	vcmpe.f32	s15, s14
    5016:	eef1 fa10 	vmrs	APSR_nzcv, fpscr
    501a:	dd07      	ble.n	502c <tnt_thd+0x1200>
    501c:	2301      	movs	r3, #1
    501e:	f884 32a1 	strb.w	r3, [r4, #673]	; 0x2a1
    5022:	edc4 5aee 	vstr	s11, [r4, #952]	; 0x3b8
    5026:	4b27      	ldr	r3, [pc, #156]	; (50c4 <tnt_thd+0x1298>)
    5028:	f000 bc5d 	b.w	58e6 <tnt_thd+0x1aba>
    502c:	eb04 0081 	add.w	r0, r4, r1, lsl #2
    5030:	ed90 7af3 	vldr	s14, [r0, #972]	; 0x3cc
    5034:	f894 03bd 	ldrb.w	r0, [r4, #957]	; 0x3bd
    5038:	2800      	cmp	r0, #0
    503a:	d053      	beq.n	50e4 <tnt_thd+0x12b8>
    503c:	edd4 6af2 	vldr	s13, [r4, #968]	; 0x3c8
    5040:	eef5 6ac0 	vcmpe.f32	s13, #0.0
    5044:	eef1 fa10 	vmrs	APSR_nzcv, fpscr
    5048:	f140 836d 	bpl.w	5726 <tnt_thd+0x18fa>
    504c:	eeb5 7ac0 	vcmpe.f32	s14, #0.0
    5050:	eef1 fa10 	vmrs	APSR_nzcv, fpscr
    5054:	d508      	bpl.n	5068 <tnt_thd+0x123c>
    5056:	eebf 7a00 	vmov.f32	s14, #240	; 0xbf800000 -1.0
    505a:	eeff 6a00 	vmov.f32	s13, #240	; 0xbf800000 -1.0
    505e:	eeb4 7a66 	vcmp.f32	s14, s13
    5062:	eef1 fa10 	vmrs	APSR_nzcv, fpscr
    5066:	d01a      	beq.n	509e <tnt_thd+0x1272>
    5068:	2300      	movs	r3, #0
    506a:	f884 33bd 	strb.w	r3, [r4, #957]	; 0x3bd
    506e:	edc4 7ae2 	vstr	s15, [r4, #904]	; 0x388
    5072:	f894 33bc 	ldrb.w	r3, [r4, #956]	; 0x3bc
    5076:	2b00      	cmp	r3, #0
    5078:	f040 809a 	bne.w	51b0 <tnt_thd+0x1384>
    507c:	eef0 7ac6 	vabs.f32	s15, s12
    5080:	eeb1 7a08 	vmov.f32	s14, #24	; 0x40c00000  6.0
    5084:	eef4 7ac7 	vcmpe.f32	s15, s14
    5088:	eef1 fa10 	vmrs	APSR_nzcv, fpscr
    508c:	dd50      	ble.n	5130 <tnt_thd+0x1304>
    508e:	2301      	movs	r3, #1
    5090:	f884 32a1 	strb.w	r3, [r4, #673]	; 0x2a1
    5094:	edc4 5aee 	vstr	s11, [r4, #952]	; 0x3b8
    5098:	4b0b      	ldr	r3, [pc, #44]	; (50c8 <tnt_thd+0x129c>)
    509a:	f000 bc24 	b.w	58e6 <tnt_thd+0x1aba>
    509e:	ed9f 7a0b 	vldr	s14, [pc, #44]	; 50cc <tnt_thd+0x12a0>
    50a2:	eef4 7ac7 	vcmpe.f32	s15, s14
    50a6:	eef1 fa10 	vmrs	APSR_nzcv, fpscr
    50aa:	dde2      	ble.n	5072 <tnt_thd+0x1246>
    50ac:	2301      	movs	r3, #1
    50ae:	f884 32a1 	strb.w	r3, [r4, #673]	; 0x2a1
    50b2:	edc4 5aee 	vstr	s11, [r4, #952]	; 0x3b8
    50b6:	4b06      	ldr	r3, [pc, #24]	; (50d0 <tnt_thd+0x12a4>)
    50b8:	f000 bc15 	b.w	58e6 <tnt_thd+0x1aba>
    50bc:	3ca3d70a 	stccc	7, cr13, [r3], #40	; 0x28
    50c0:	42b40000 	adcsmi	r0, r4, #0
    50c4:	459c4000 	ldrmi	r4, [ip]
    50c8:	450ae000 	strmi	lr, [sl, #-0]
    50cc:	3e3851ec 	rsfcc<illegal precision>z	f5, f0, #4.0
    50d0:	44e10000 	strbtmi	r0, [r1], #0
    50d4:	420c0000 	andmi	r0, ip, #0
    50d8:	3e4ccccd 	cdpcc	12, 4, cr12, cr12, cr13, {6}
    50dc:	3f4ccccd 	svccc	0x004ccccd
    50e0:	00000000 	andeq	r0, r0, r0
    50e4:	eb04 0383 	add.w	r3, r4, r3, lsl #2
    50e8:	ed93 5af3 	vldr	s10, [r3, #972]	; 0x3cc
    50ec:	eeb5 7ac0 	vcmpe.f32	s14, #0.0
    50f0:	eef1 fa10 	vmrs	APSR_nzcv, fpscr
    50f4:	eeff 6a00 	vmov.f32	s13, #240	; 0xbf800000 -1.0
    50f8:	eef7 4a00 	vmov.f32	s9, #112	; 0x3f800000  1.0
    50fc:	eeb5 5ac0 	vcmpe.f32	s10, #0.0
    5100:	bf54      	ite	pl
    5102:	eeb0 4a64 	vmovpl.f32	s8, s9
    5106:	eeb0 4a66 	vmovmi.f32	s8, s13
    510a:	eef1 fa10 	vmrs	APSR_nzcv, fpscr
    510e:	bf58      	it	pl
    5110:	eef0 6a64 	vmovpl.f32	s13, s9
    5114:	eeb4 4a66 	vcmp.f32	s8, s13
    5118:	eef1 fa10 	vmrs	APSR_nzcv, fpscr
    511c:	d0a9      	beq.n	5072 <tnt_thd+0x1246>
    511e:	2301      	movs	r3, #1
    5120:	f884 32a1 	strb.w	r3, [r4, #673]	; 0x2a1
    5124:	edc4 5aee 	vstr	s11, [r4, #952]	; 0x3b8
    5128:	ed84 5ae5 	vstr	s10, [r4, #916]	; 0x394
    512c:	ed84 7ae9 	vstr	s14, [r4, #932]	; 0x3a4
    5130:	ed94 5a76 	vldr	s10, [r4, #472]	; 0x1d8
    5134:	ed1f 7a19 	vldr	s14, [pc, #-100]	; 50d4 <tnt_thd+0x12a8>
    5138:	eeb5 5ac0 	vcmpe.f32	s10, #0.0
    513c:	eef1 fa10 	vmrs	APSR_nzcv, fpscr
    5140:	eeff 7a00 	vmov.f32	s15, #240	; 0xbf800000 -1.0
    5144:	eef7 4a00 	vmov.f32	s9, #112	; 0x3f800000  1.0
    5148:	bf54      	ite	pl
    514a:	eef0 6a64 	vmovpl.f32	s13, s9
    514e:	eef0 6a67 	vmovmi.f32	s13, s15
    5152:	ee66 5a86 	vmul.f32	s11, s13, s12
    5156:	ee20 7a07 	vmul.f32	s14, s0, s14
    515a:	eef4 5ac7 	vcmpe.f32	s11, s14
    515e:	eef1 fa10 	vmrs	APSR_nzcv, fpscr
    5162:	edd4 5aa9 	vldr	s11, [r4, #676]	; 0x2a4
    5166:	f340 81f3 	ble.w	5550 <tnt_thd+0x1724>
    516a:	f894 32a1 	ldrb.w	r3, [r4, #673]	; 0x2a1
    516e:	2b03      	cmp	r3, #3
    5170:	f000 81ee 	beq.w	5550 <tnt_thd+0x1724>
    5174:	eb04 0181 	add.w	r1, r4, r1, lsl #2
    5178:	ed91 7af3 	vldr	s14, [r1, #972]	; 0x3cc
    517c:	eeb5 7ac0 	vcmpe.f32	s14, #0.0
    5180:	eef1 fa10 	vmrs	APSR_nzcv, fpscr
    5184:	bf58      	it	pl
    5186:	eef0 7a64 	vmovpl.f32	s15, s9
    518a:	eef4 6a67 	vcmp.f32	s13, s15
    518e:	eef1 fa10 	vmrs	APSR_nzcv, fpscr
    5192:	f040 81dd 	bne.w	5550 <tnt_thd+0x1724>
    5196:	eef5 5ac0 	vcmpe.f32	s11, #0.0
    519a:	eef1 fa10 	vmrs	APSR_nzcv, fpscr
    519e:	f140 81a7 	bpl.w	54f0 <tnt_thd+0x16c4>
    51a2:	eeb5 8ac0 	vcmpe.f32	s16, #0.0
    51a6:	eef1 fa10 	vmrs	APSR_nzcv, fpscr
    51aa:	f140 81d1 	bpl.w	5550 <tnt_thd+0x1724>
    51ae:	e1a4      	b.n	54fa <tnt_thd+0x16ce>
    51b0:	ed94 7af2 	vldr	s14, [r4, #968]	; 0x3c8
    51b4:	eeb5 7ac0 	vcmpe.f32	s14, #0.0
    51b8:	eef1 fa10 	vmrs	APSR_nzcv, fpscr
    51bc:	eebf 7a00 	vmov.f32	s14, #240	; 0xbf800000 -1.0
    51c0:	eef7 6a00 	vmov.f32	s13, #112	; 0x3f800000  1.0
    51c4:	bf58      	it	pl
    51c6:	eeb0 7a66 	vmovpl.f32	s14, s13
    51ca:	ee27 7a06 	vmul.f32	s14, s14, s12
    51ce:	eeb4 7aeb 	vcmpe.f32	s14, s23
    51d2:	eef1 fa10 	vmrs	APSR_nzcv, fpscr
    51d6:	d505      	bpl.n	51e4 <tnt_thd+0x13b8>
    51d8:	2300      	movs	r3, #0
    51da:	f884 33bc 	strb.w	r3, [r4, #956]	; 0x3bc
    51de:	edc4 7ae8 	vstr	s15, [r4, #928]	; 0x3a0
    51e2:	e7a5      	b.n	5130 <tnt_thd+0x1304>
    51e4:	ed1f 7a44 	vldr	s14, [pc, #-272]	; 50d8 <tnt_thd+0x12ac>
    51e8:	eef4 7ac7 	vcmpe.f32	s15, s14
    51ec:	eef1 fa10 	vmrs	APSR_nzcv, fpscr
    51f0:	dd9e      	ble.n	5130 <tnt_thd+0x1304>
    51f2:	2301      	movs	r3, #1
    51f4:	f884 32a1 	strb.w	r3, [r4, #673]	; 0x2a1
    51f8:	edc4 5aee 	vstr	s11, [r4, #952]	; 0x3b8
    51fc:	edc4 8ae5 	vstr	s17, [r4, #916]	; 0x394
    5200:	ed84 6ae9 	vstr	s12, [r4, #932]	; 0x3a4
    5204:	e794      	b.n	5130 <tnt_thd+0x1304>
    5206:	eef5 7ac0 	vcmpe.f32	s15, #0.0
    520a:	eef1 fa10 	vmrs	APSR_nzcv, fpscr
    520e:	f140 81d6 	bpl.w	55be <tnt_thd+0x1792>
    5212:	ed84 9ae0 	vstr	s18, [r4, #896]	; 0x380
    5216:	f894 2368 	ldrb.w	r2, [r4, #872]	; 0x368
    521a:	2a00      	cmp	r2, #0
    521c:	f040 8201 	bne.w	5622 <tnt_thd+0x17f6>
    5220:	2b03      	cmp	r3, #3
    5222:	edc4 5aad 	vstr	s11, [r4, #692]	; 0x2b4
    5226:	ed84 8a7d 	vstr	s16, [r4, #500]	; 0x1f4
    522a:	d033      	beq.n	5294 <tnt_thd+0x1468>
    522c:	edd4 7aaf 	vldr	s15, [r4, #700]	; 0x2bc
    5230:	ed94 0ace 	vldr	s0, [r4, #824]	; 0x338
    5234:	ee37 7aea 	vsub.f32	s14, s15, s21
    5238:	ee27 7a24 	vmul.f32	s14, s14, s9
    523c:	eeb4 7ac0 	vcmpe.f32	s14, s0
    5240:	eef1 fa10 	vmrs	APSR_nzcv, fpscr
    5244:	dd1d      	ble.n	5282 <tnt_thd+0x1456>
    5246:	eef4 7aea 	vcmpe.f32	s15, s21
    524a:	eef1 fa10 	vmrs	APSR_nzcv, fpscr
    524e:	bf4c      	ite	mi
    5250:	ee37 0a80 	vaddmi.f32	s0, s15, s0
    5254:	ee37 0ac0 	vsubpl.f32	s0, s15, s0
    5258:	f8d4 3120 	ldr.w	r3, [r4, #288]	; 0x120
    525c:	ed84 0aaf 	vstr	s0, [r4, #700]	; 0x2bc
    5260:	b1db      	cbz	r3, 529a <tnt_thd+0x146e>
    5262:	edd4 7a3c 	vldr	s15, [r4, #240]	; 0xf0
    5266:	3b01      	subs	r3, #1
    5268:	f8c4 3120 	str.w	r3, [r4, #288]	; 0x120
    526c:	07db      	lsls	r3, r3, #31
    526e:	bf54      	ite	pl
    5270:	ee30 0a67 	vsubpl.f32	s0, s0, s15
    5274:	ee30 0a27 	vaddmi.f32	s0, s0, s15
    5278:	4620      	mov	r0, r4
    527a:	f7fe f8bb 	bl	33f4 <set_current>
    527e:	f7fe bff2 	b.w	4266 <tnt_thd+0x43a>
    5282:	ed1f 0a6b 	vldr	s0, [pc, #-428]	; 50d8 <tnt_thd+0x12ac>
    5286:	ed1f 7a6b 	vldr	s14, [pc, #-428]	; 50dc <tnt_thd+0x12b0>
    528a:	ee2a 0a80 	vmul.f32	s0, s21, s0
    528e:	eea7 0a87 	vfma.f32	s0, s15, s14
    5292:	e7e1      	b.n	5258 <tnt_thd+0x142c>
    5294:	ed1f 0a6e 	vldr	s0, [pc, #-440]	; 50e0 <tnt_thd+0x12b4>
    5298:	e7de      	b.n	5258 <tnt_thd+0x142c>
    529a:	f894 6368 	ldrb.w	r6, [r4, #872]	; 0x368
    529e:	b3be      	cbz	r6, 5310 <tnt_thd+0x14e4>
    52a0:	4e84      	ldr	r6, [pc, #528]	; (54b4 <tnt_thd+0x1688>)
    52a2:	ed94 8a71 	vldr	s16, [r4, #452]	; 0x1c4
    52a6:	f8d6 32e0 	ldr.w	r3, [r6, #736]	; 0x2e0
    52aa:	2016      	movs	r0, #22
    52ac:	4798      	blx	r3
    52ae:	eeb4 8ac0 	vcmpe.f32	s16, s0
    52b2:	eef1 fa10 	vmrs	APSR_nzcv, fpscr
    52b6:	dd14      	ble.n	52e2 <tnt_thd+0x14b6>
    52b8:	f8d6 32e0 	ldr.w	r3, [r6, #736]	; 0x2e0
    52bc:	2016      	movs	r0, #22
    52be:	4798      	blx	r3
    52c0:	eeb0 8a40 	vmov.f32	s16, s0
    52c4:	f8d6 32bc 	ldr.w	r3, [r6, #700]	; 0x2bc
    52c8:	4798      	blx	r3
    52ca:	f8d6 3218 	ldr.w	r3, [r6, #536]	; 0x218
    52ce:	ed94 0ac5 	vldr	s0, [r4, #788]	; 0x314
    52d2:	4798      	blx	r3
    52d4:	f8d6 317c 	ldr.w	r3, [r6, #380]	; 0x17c
    52d8:	eeb0 0a48 	vmov.f32	s0, s16
    52dc:	4798      	blx	r3
    52de:	f7fe bfc2 	b.w	4266 <tnt_thd+0x43a>
    52e2:	eeb5 8ac0 	vcmpe.f32	s16, #0.0
    52e6:	eef1 fa10 	vmrs	APSR_nzcv, fpscr
    52ea:	d5eb      	bpl.n	52c4 <tnt_thd+0x1498>
    52ec:	f8d6 32e0 	ldr.w	r3, [r6, #736]	; 0x2e0
    52f0:	2016      	movs	r0, #22
    52f2:	4798      	blx	r3
    52f4:	eeb1 0a40 	vneg.f32	s0, s0
    52f8:	eeb4 8ac0 	vcmpe.f32	s16, s0
    52fc:	eef1 fa10 	vmrs	APSR_nzcv, fpscr
    5300:	d5e0      	bpl.n	52c4 <tnt_thd+0x1498>
    5302:	f8d6 32e0 	ldr.w	r3, [r6, #736]	; 0x2e0
    5306:	2016      	movs	r0, #22
    5308:	4798      	blx	r3
    530a:	eeb1 8a40 	vneg.f32	s16, s0
    530e:	e7d9      	b.n	52c4 <tnt_thd+0x1498>
    5310:	4620      	mov	r0, r4
    5312:	f7fe f86f 	bl	33f4 <set_current>
    5316:	f884 6368 	strb.w	r6, [r4, #872]	; 0x368
    531a:	f7fe bfa4 	b.w	4266 <tnt_thd+0x43a>
    531e:	edd4 7ab7 	vldr	s15, [r4, #732]	; 0x2dc
    5322:	ed94 7abb 	vldr	s14, [r4, #748]	; 0x2ec
    5326:	eddf 6a64 	vldr	s13, [pc, #400]	; 54b8 <tnt_thd+0x168c>
    532a:	ee37 7ac7 	vsub.f32	s14, s15, s14
    532e:	eeb4 7ae6 	vcmpe.f32	s14, s13
    5332:	eef1 fa10 	vmrs	APSR_nzcv, fpscr
    5336:	dd7e      	ble.n	5436 <tnt_thd+0x160a>
    5338:	ed94 7abc 	vldr	s14, [r4, #752]	; 0x2f0
    533c:	eddf 6a5f 	vldr	s13, [pc, #380]	; 54bc <tnt_thd+0x1690>
    5340:	ee37 7ac7 	vsub.f32	s14, s15, s14
    5344:	eeb4 7ae6 	vcmpe.f32	s14, s13
    5348:	eef1 fa10 	vmrs	APSR_nzcv, fpscr
    534c:	dd0d      	ble.n	536a <tnt_thd+0x153e>
    534e:	edc4 7abc 	vstr	s15, [r4, #752]	; 0x2f0
    5352:	f8d5 31e0 	ldr.w	r3, [r5, #480]	; 0x1e0
    5356:	4798      	blx	r3
    5358:	edd4 7abd 	vldr	s15, [r4, #756]	; 0x2f4
    535c:	eef4 7ac0 	vcmpe.f32	s15, s0
    5360:	eef1 fa10 	vmrs	APSR_nzcv, fpscr
    5364:	d561      	bpl.n	542a <tnt_thd+0x15fe>
    5366:	ed84 0abd 	vstr	s0, [r4, #756]	; 0x2f4
    536a:	edd4 7ab7 	vldr	s15, [r4, #732]	; 0x2dc
    536e:	ed94 7ac1 	vldr	s14, [r4, #772]	; 0x304
    5372:	ee77 7ac7 	vsub.f32	s15, s15, s14
    5376:	eef4 7ae8 	vcmpe.f32	s15, s17
    537a:	eef1 fa10 	vmrs	APSR_nzcv, fpscr
    537e:	bfc4      	itt	gt
    5380:	f8d4 30e4 	ldrgt.w	r3, [r4, #228]	; 0xe4
    5384:	f8c4 312c 	strgt.w	r3, [r4, #300]	; 0x12c
    5388:	f8d4 3340 	ldr.w	r3, [r4, #832]	; 0x340
    538c:	2b00      	cmp	r3, #0
    538e:	dd2d      	ble.n	53ec <tnt_thd+0x15c0>
    5390:	f8d5 3210 	ldr.w	r3, [r5, #528]	; 0x210
    5394:	4798      	blx	r3
    5396:	f7fd fc1b 	bl	2bd0 <__aeabi_ul2f>
    539a:	e9d4 67d2 	ldrd	r6, r7, [r4, #840]	; 0x348
    539e:	ee08 0a10 	vmov	s16, r0
    53a2:	f116 00c8 	adds.w	r0, r6, #200	; 0xc8
    53a6:	f147 0100 	adc.w	r1, r7, #0
    53aa:	f7fd fc11 	bl	2bd0 <__aeabi_ul2f>
    53ae:	ee07 0a90 	vmov	s15, r0
    53b2:	eeb4 8ae7 	vcmpe.f32	s16, s15
    53b6:	eef1 fa10 	vmrs	APSR_nzcv, fpscr
    53ba:	dc0c      	bgt.n	53d6 <tnt_thd+0x15aa>
    53bc:	4840      	ldr	r0, [pc, #256]	; (54c0 <tnt_thd+0x1694>)
    53be:	1830      	adds	r0, r6, r0
    53c0:	f167 0100 	sbc.w	r1, r7, #0
    53c4:	f7fd fc04 	bl	2bd0 <__aeabi_ul2f>
    53c8:	ee07 0a90 	vmov	s15, r0
    53cc:	eeb4 8ae7 	vcmpe.f32	s16, s15
    53d0:	eef1 fa10 	vmrs	APSR_nzcv, fpscr
    53d4:	d50a      	bpl.n	53ec <tnt_thd+0x15c0>
    53d6:	f8d4 3340 	ldr.w	r3, [r4, #832]	; 0x340
    53da:	edd4 7ab7 	vldr	s15, [r4, #732]	; 0x2dc
    53de:	2b01      	cmp	r3, #1
    53e0:	d12e      	bne.n	5440 <tnt_thd+0x1614>
    53e2:	edc4 7acf 	vstr	s15, [r4, #828]	; 0x33c
    53e6:	2302      	movs	r3, #2
    53e8:	f8c4 3340 	str.w	r3, [r4, #832]	; 0x340
    53ec:	edd4 7a67 	vldr	s15, [r4, #412]	; 0x19c
    53f0:	ed94 7a4b 	vldr	s14, [r4, #300]	; 0x12c
    53f4:	eef0 7ae7 	vabs.f32	s15, s15
    53f8:	eef4 7ac7 	vcmpe.f32	s15, s14
    53fc:	eef1 fa10 	vmrs	APSR_nzcv, fpscr
    5400:	d531      	bpl.n	5466 <tnt_thd+0x163a>
    5402:	ed94 7a69 	vldr	s14, [r4, #420]	; 0x1a4
    5406:	edd4 6a3a 	vldr	s13, [r4, #232]	; 0xe8
    540a:	eeb0 7ac7 	vabs.f32	s14, s14
    540e:	eeb4 7ae6 	vcmpe.f32	s14, s13
    5412:	eef1 fa10 	vmrs	APSR_nzcv, fpscr
    5416:	d526      	bpl.n	5466 <tnt_thd+0x163a>
    5418:	f894 31ec 	ldrb.w	r3, [r4, #492]	; 0x1ec
    541c:	2b02      	cmp	r3, #2
    541e:	d122      	bne.n	5466 <tnt_thd+0x163a>
    5420:	4620      	mov	r0, r4
    5422:	f7fd ff73 	bl	330c <reset_vars>
    5426:	f7fe bf1e 	b.w	4266 <tnt_thd+0x43a>
    542a:	2201      	movs	r2, #1
    542c:	2102      	movs	r1, #2
    542e:	4620      	mov	r0, r4
    5430:	f7fe f9b8 	bl	37a4 <beep_alert>
    5434:	e799      	b.n	536a <tnt_thd+0x153e>
    5436:	edc4 7abc 	vstr	s15, [r4, #752]	; 0x2f0
    543a:	ed84 9abd 	vstr	s18, [r4, #756]	; 0x2f4
    543e:	e794      	b.n	536a <tnt_thd+0x153e>
    5440:	ed94 7acf 	vldr	s14, [r4, #828]	; 0x33c
    5444:	ee77 7ac7 	vsub.f32	s15, s15, s14
    5448:	eef4 7aea 	vcmpe.f32	s15, s21
    544c:	eef1 fa10 	vmrs	APSR_nzcv, fpscr
    5450:	ddcc      	ble.n	53ec <tnt_thd+0x15c0>
    5452:	f8d5 3344 	ldr.w	r3, [r5, #836]	; 0x344
    5456:	4798      	blx	r3
    5458:	f8d5 3210 	ldr.w	r3, [r5, #528]	; 0x210
    545c:	4798      	blx	r3
    545e:	2300      	movs	r3, #0
    5460:	e9c4 01d2 	strd	r0, r1, [r4, #840]	; 0x348
    5464:	e7c0      	b.n	53e8 <tnt_thd+0x15bc>
    5466:	f894 30f5 	ldrb.w	r3, [r4, #245]	; 0xf5
    546a:	2b00      	cmp	r3, #0
    546c:	f43e aefb 	beq.w	4266 <tnt_thd+0x43a>
    5470:	edd4 6a74 	vldr	s13, [r4, #464]	; 0x1d0
    5474:	ed9f 7a13 	vldr	s14, [pc, #76]	; 54c4 <tnt_thd+0x1698>
    5478:	eef4 6ac7 	vcmpe.f32	s13, s14
    547c:	eef1 fa10 	vmrs	APSR_nzcv, fpscr
    5480:	f77e aef1 	ble.w	4266 <tnt_thd+0x43a>
    5484:	f894 31ec 	ldrb.w	r3, [r4, #492]	; 0x1ec
    5488:	2b02      	cmp	r3, #2
    548a:	f47e aeec 	bne.w	4266 <tnt_thd+0x43a>
    548e:	ed9f 7a0e 	vldr	s14, [pc, #56]	; 54c8 <tnt_thd+0x169c>
    5492:	eef4 7ac7 	vcmpe.f32	s15, s14
    5496:	eef1 fa10 	vmrs	APSR_nzcv, fpscr
    549a:	f57e aee4 	bpl.w	4266 <tnt_thd+0x43a>
    549e:	edd4 7a69 	vldr	s15, [r4, #420]	; 0x1a4
    54a2:	eef0 7ae7 	vabs.f32	s15, s15
    54a6:	eef4 7ac7 	vcmpe.f32	s15, s14
    54aa:	eef1 fa10 	vmrs	APSR_nzcv, fpscr
    54ae:	f57e aeda 	bpl.w	4266 <tnt_thd+0x43a>
    54b2:	e7b5      	b.n	5420 <tnt_thd+0x15f4>
    54b4:	1000f800 	andne	pc, r0, r0, lsl #16
    54b8:	44e10000 	strbtmi	r0, [r1], #0
    54bc:	42700000 	rsbsmi	r0, r0, #0
    54c0:	ffffd8f0 			; <UNDEFINED> instruction: 0xffffd8f0
    54c4:	447a0000 	ldrbtmi	r0, [sl], #-0
    54c8:	42340000 	eorsmi	r0, r4, #0
    54cc:	3e4ccccd 	cdpcc	12, 4, cr12, cr12, cr13, {6}
    54d0:	42480000 	submi	r0, r8, #0
    54d4:	3e99999a 			; <UNDEFINED> instruction: 0x3e99999a
    54d8:	3fa66666 	svccc	0x00a66666
    54dc:	bd4ccccd 	stcllt	12, cr12, [ip, #-820]	; 0xfffffccc
    54e0:	3a83126f 	bcc	fe0c9ea4 <memset+0xfe0c2b30>
    54e4:	3f7fbe77 	svccc	0x007fbe77
    54e8:	3f6b851f 	svccc	0x006b851f
    54ec:	44fa0000 	ldrbtmi	r0, [sl], #0
    54f0:	eeb5 8ac0 	vcmpe.f32	s16, #0.0
    54f4:	eef1 fa10 	vmrs	APSR_nzcv, fpscr
    54f8:	d42a      	bmi.n	5550 <tnt_thd+0x1724>
    54fa:	ed94 7ab7 	vldr	s14, [r4, #732]	; 0x2dc
    54fe:	edd4 7aee 	vldr	s15, [r4, #952]	; 0x3b8
    5502:	ed5f 6a0e 	vldr	s13, [pc, #-56]	; 54cc <tnt_thd+0x16a0>
    5506:	ee77 7a67 	vsub.f32	s15, s14, s15
    550a:	eef4 7ae6 	vcmpe.f32	s15, s13
    550e:	eef1 fa10 	vmrs	APSR_nzcv, fpscr
    5512:	dd1d      	ble.n	5550 <tnt_thd+0x1724>
    5514:	2303      	movs	r3, #3
    5516:	eb04 0282 	add.w	r2, r4, r2, lsl #2
    551a:	f884 32a1 	strb.w	r3, [r4, #673]	; 0x2a1
    551e:	f240 1301 	movw	r3, #257	; 0x101
    5522:	f8a4 33bc 	strh.w	r3, [r4, #956]	; 0x3bc
    5526:	f8d2 33fc 	ldr.w	r3, [r2, #1020]	; 0x3fc
    552a:	f8c4 3390 	str.w	r3, [r4, #912]	; 0x390
    552e:	2300      	movs	r3, #0
    5530:	ed84 6af2 	vstr	s12, [r4, #968]	; 0x3c8
    5534:	ed84 7aed 	vstr	s14, [r4, #948]	; 0x3b4
    5538:	ed84 6ae7 	vstr	s12, [r4, #924]	; 0x39c
    553c:	f8c4 3388 	str.w	r3, [r4, #904]	; 0x388
    5540:	ed84 0ae3 	vstr	s0, [r4, #908]	; 0x38c
    5544:	f8c4 3394 	str.w	r3, [r4, #916]	; 0x394
    5548:	f8c4 33a4 	str.w	r3, [r4, #932]	; 0x3a4
    554c:	ed84 8aea 	vstr	s16, [r4, #936]	; 0x3a8
    5550:	f8b4 3074 	ldrh.w	r3, [r4, #116]	; 0x74
    5554:	ed5f 6a22 	vldr	s13, [pc, #-136]	; 54d0 <tnt_thd+0x16a4>
    5558:	edd4 7adb 	vldr	s15, [r4, #876]	; 0x36c
    555c:	ed1f 4a23 	vldr	s8, [pc, #-140]	; 54d4 <tnt_thd+0x16a8>
    5560:	ed5f 3a23 	vldr	s7, [pc, #-140]	; 54d8 <tnt_thd+0x16ac>
    5564:	ed84 4add 	vstr	s8, [r4, #884]	; 0x374
    5568:	eeb5 8ac0 	vcmpe.f32	s16, #0.0
    556c:	eef1 fa10 	vmrs	APSR_nzcv, fpscr
    5570:	eeb7 7a00 	vmov.f32	s14, #112	; 0x3f800000  1.0
    5574:	eeff 4a00 	vmov.f32	s9, #240	; 0xbf800000 -1.0
    5578:	bf58      	it	pl
    557a:	eef0 4a47 	vmovpl.f32	s9, s14
    557e:	ee07 3a10 	vmov	s14, r3
    5582:	eeb8 7ac7 	vcvt.f32.s32	s14, s14
    5586:	ee67 7aa4 	vmul.f32	s15, s15, s9
    558a:	ee86 3a87 	vdiv.f32	s6, s13, s14
    558e:	f894 32a1 	ldrb.w	r3, [r4, #673]	; 0x2a1
    5592:	eeb6 6a08 	vmov.f32	s12, #104	; 0x3f400000  0.750
    5596:	eef4 7ac3 	vcmpe.f32	s15, s6
    559a:	eef1 fa10 	vmrs	APSR_nzcv, fpscr
    559e:	ed84 6adc 	vstr	s12, [r4, #880]	; 0x370
    55a2:	edc4 6ade 	vstr	s13, [r4, #888]	; 0x378
    55a6:	ed84 badf 	vstr	s22, [r4, #892]	; 0x37c
    55aa:	edc4 3ae1 	vstr	s7, [r4, #900]	; 0x384
    55ae:	f77f ae2a 	ble.w	5206 <tnt_thd+0x13da>
    55b2:	ed94 7ae0 	vldr	s14, [r4, #896]	; 0x380
    55b6:	ee37 7a27 	vadd.f32	s14, s14, s15
    55ba:	ed84 7ae0 	vstr	s14, [r4, #896]	; 0x380
    55be:	ed94 7ae0 	vldr	s14, [r4, #896]	; 0x380
    55c2:	eeb4 7acb 	vcmpe.f32	s14, s22
    55c6:	eef1 fa10 	vmrs	APSR_nzcv, fpscr
    55ca:	f6ff ae24 	blt.w	5216 <tnt_thd+0x13ea>
    55ce:	eeb8 7a08 	vmov.f32	s14, #136	; 0xc0400000 -3.0
    55d2:	eea4 7aa5 	vfma.f32	s14, s9, s11
    55d6:	eeb5 7ac0 	vcmpe.f32	s14, #0.0
    55da:	eef1 fa10 	vmrs	APSR_nzcv, fpscr
    55de:	f77f ae1a 	ble.w	5216 <tnt_thd+0x13ea>
    55e2:	f894 22a0 	ldrb.w	r2, [r4, #672]	; 0x2a0
    55e6:	2a00      	cmp	r2, #0
    55e8:	f47f ae15 	bne.w	5216 <tnt_thd+0x13ea>
    55ec:	edd4 6ab7 	vldr	s13, [r4, #732]	; 0x2dc
    55f0:	ed94 7ad9 	vldr	s14, [r4, #868]	; 0x364
    55f4:	ee36 7ac7 	vsub.f32	s14, s13, s14
    55f8:	eeb4 7ac6 	vcmpe.f32	s14, s12
    55fc:	eef1 fa10 	vmrs	APSR_nzcv, fpscr
    5600:	f77f ae09 	ble.w	5216 <tnt_thd+0x13ea>
    5604:	2b03      	cmp	r3, #3
    5606:	f43f ae06 	beq.w	5216 <tnt_thd+0x13ea>
    560a:	f894 22d8 	ldrb.w	r2, [r4, #728]	; 0x2d8
    560e:	2a00      	cmp	r2, #0
    5610:	f43f ae01 	beq.w	5216 <tnt_thd+0x13ea>
    5614:	2201      	movs	r2, #1
    5616:	edc4 6ad9 	vstr	s13, [r4, #868]	; 0x364
    561a:	f884 2368 	strb.w	r2, [r4, #872]	; 0x368
    561e:	ed84 9ae6 	vstr	s18, [r4, #920]	; 0x398
    5622:	ed94 7ab7 	vldr	s14, [r4, #732]	; 0x2dc
    5626:	edd4 6ad9 	vldr	s13, [r4, #868]	; 0x364
    562a:	edc4 4a71 	vstr	s9, [r4, #452]	; 0x1c4
    562e:	ee37 7a66 	vsub.f32	s14, s14, s13
    5632:	ed84 9ae0 	vstr	s18, [r4, #896]	; 0x380
    5636:	eeb4 7ac4 	vcmpe.f32	s14, s8
    563a:	eef1 fa10 	vmrs	APSR_nzcv, fpscr
    563e:	dc18      	bgt.n	5672 <tnt_thd+0x1846>
    5640:	2b03      	cmp	r3, #3
    5642:	d016      	beq.n	5672 <tnt_thd+0x1846>
    5644:	ed5f 6a5b 	vldr	s13, [pc, #-364]	; 54dc <tnt_thd+0x16b0>
    5648:	eee4 6aa5 	vfma.f32	s13, s9, s11
    564c:	eef5 6ac0 	vcmpe.f32	s13, #0.0
    5650:	eef1 fa10 	vmrs	APSR_nzcv, fpscr
    5654:	d40d      	bmi.n	5672 <tnt_thd+0x1846>
    5656:	eec5 6a23 	vdiv.f32	s13, s10, s7
    565a:	eef4 aae6 	vcmpe.f32	s21, s13
    565e:	eef1 fa10 	vmrs	APSR_nzcv, fpscr
    5662:	f63f addd 	bhi.w	5220 <tnt_thd+0x13f4>
    5666:	eef5 7ac0 	vcmpe.f32	s15, #0.0
    566a:	eef1 fa10 	vmrs	APSR_nzcv, fpscr
    566e:	f57f add7 	bpl.w	5220 <tnt_thd+0x13f4>
    5672:	eeb4 7ac4 	vcmpe.f32	s14, s8
    5676:	2200      	movs	r2, #0
    5678:	eef1 fa10 	vmrs	APSR_nzcv, fpscr
    567c:	f884 2368 	strb.w	r2, [r4, #872]	; 0x368
    5680:	ed84 5aaf 	vstr	s10, [r4, #700]	; 0x2bc
    5684:	bf48      	it	mi
    5686:	ed84 7ae6 	vstrmi	s14, [r4, #920]	; 0x398
    568a:	e5c9      	b.n	5220 <tnt_thd+0x13f4>
    568c:	eeb5 8ac0 	vcmpe.f32	s16, #0.0
    5690:	eef1 fa10 	vmrs	APSR_nzcv, fpscr
    5694:	d505      	bpl.n	56a2 <tnt_thd+0x1876>
    5696:	eeb5 ba40 	vcmp.f32	s22, #0.0
    569a:	eef1 fa10 	vmrs	APSR_nzcv, fpscr
    569e:	f47f a946 	bne.w	492e <tnt_thd+0xb02>
    56a2:	edd4 7ad4 	vldr	s15, [r4, #848]	; 0x350
    56a6:	eeb0 7ac8 	vabs.f32	s14, s16
    56aa:	eef0 6ae7 	vabs.f32	s13, s15
    56ae:	eef4 6ac7 	vcmpe.f32	s13, s14
    56b2:	eef1 fa10 	vmrs	APSR_nzcv, fpscr
    56b6:	da01      	bge.n	56bc <tnt_thd+0x1890>
    56b8:	eef0 7a48 	vmov.f32	s15, s16
    56bc:	ed84 bad7 	vstr	s22, [r4, #860]	; 0x35c
    56c0:	eeb0 8a67 	vmov.f32	s16, s15
    56c4:	ee38 ba6b 	vsub.f32	s22, s16, s23
    56c8:	f8b4 30cc 	ldrh.w	r3, [r4, #204]	; 0xcc
    56cc:	edd4 0a52 	vldr	s1, [r4, #328]	; 0x148
    56d0:	eeb0 cacb 	vabs.f32	s24, s22
    56d4:	2b00      	cmp	r3, #0
    56d6:	f47f ab77 	bne.w	4dc8 <tnt_thd+0xf9c>
    56da:	eeb4 cae0 	vcmpe.f32	s24, s1
    56de:	eef1 fa10 	vmrs	APSR_nzcv, fpscr
    56e2:	f53f a982 	bmi.w	49ea <tnt_thd+0xbbe>
    56e6:	eeb5 bac0 	vcmpe.f32	s22, #0.0
    56ea:	eef1 fa10 	vmrs	APSR_nzcv, fpscr
    56ee:	eeff 7a00 	vmov.f32	s15, #240	; 0xbf800000 -1.0
    56f2:	eeb7 7a00 	vmov.f32	s14, #112	; 0x3f800000  1.0
    56f6:	bf58      	it	pl
    56f8:	eef0 7a47 	vmovpl.f32	s15, s14
    56fc:	eeb0 8a6b 	vmov.f32	s16, s23
    5700:	eea7 8aa0 	vfma.f32	s16, s15, s1
    5704:	f7ff b971 	b.w	49ea <tnt_thd+0xbbe>
    5708:	eeb5 7ac0 	vcmpe.f32	s14, #0.0
    570c:	eef7 7a00 	vmov.f32	s15, #112	; 0x3f800000  1.0
    5710:	eef1 fa10 	vmrs	APSR_nzcv, fpscr
    5714:	eebf 7a00 	vmov.f32	s14, #240	; 0xbf800000 -1.0
    5718:	bf58      	it	pl
    571a:	eeb0 7a67 	vmovpl.f32	s14, s15
    571e:	eef1 7a08 	vmov.f32	s15, #24	; 0x40c00000  6.0
    5722:	f7ff b8ff 	b.w	4924 <tnt_thd+0xaf8>
    5726:	eeb5 7ac0 	vcmpe.f32	s14, #0.0
    572a:	eef1 fa10 	vmrs	APSR_nzcv, fpscr
    572e:	f57f acb6 	bpl.w	509e <tnt_thd+0x1272>
    5732:	eeb7 7a00 	vmov.f32	s14, #112	; 0x3f800000  1.0
    5736:	e490      	b.n	505a <tnt_thd+0x122e>
    5738:	eeb5 cac0 	vcmpe.f32	s24, #0.0
    573c:	eef1 fa10 	vmrs	APSR_nzcv, fpscr
    5740:	f57f ac21 	bpl.w	4f86 <tnt_thd+0x115a>
    5744:	eeb7 7a00 	vmov.f32	s14, #112	; 0x3f800000  1.0
    5748:	eeff 7a00 	vmov.f32	s15, #240	; 0xbf800000 -1.0
    574c:	eef4 7a47 	vcmp.f32	s15, s14
    5750:	eef1 fa10 	vmrs	APSR_nzcv, fpscr
    5754:	f43f ac17 	beq.w	4f86 <tnt_thd+0x115a>
    5758:	edd4 7a57 	vldr	s15, [r4, #348]	; 0x15c
    575c:	eeb0 7aea 	vabs.f32	s14, s21
    5760:	eeb4 7ae7 	vcmpe.f32	s14, s15
    5764:	eef1 fa10 	vmrs	APSR_nzcv, fpscr
    5768:	eeb0 ba08 	vmov.f32	s22, #8	; 0x40400000  3.0
    576c:	f77f ac0e 	ble.w	4f8c <tnt_thd+0x1160>
    5770:	eef5 aac0 	vcmpe.f32	s21, #0.0
    5774:	eef1 fa10 	vmrs	APSR_nzcv, fpscr
    5778:	eeff 0a00 	vmov.f32	s1, #240	; 0xbf800000 -1.0
    577c:	eeb7 7a00 	vmov.f32	s14, #112	; 0x3f800000  1.0
    5780:	bf58      	it	pl
    5782:	eef0 0a47 	vmovpl.f32	s1, s14
    5786:	ee67 aaa0 	vmul.f32	s21, s15, s1
    578a:	f604 0708 	addw	r7, r4, #2056	; 0x808
    578e:	f504 66ff 	add.w	r6, r4, #2040	; 0x7f8
    5792:	683b      	ldr	r3, [r7, #0]
    5794:	6033      	str	r3, [r6, #0]
    5796:	f504 6000 	add.w	r0, r4, #2048	; 0x800
    579a:	f8d5 3288 	ldr.w	r3, [r5, #648]	; 0x288
    579e:	4798      	blx	r3
    57a0:	ed94 0a69 	vldr	s0, [r4, #420]	; 0x1a4
    57a4:	ee20 0a29 	vmul.f32	s0, s0, s19
    57a8:	f000 feee 	bl	6588 <cosf>
    57ac:	eeb0 8a40 	vmov.f32	s16, s0
    57b0:	ed94 0a67 	vldr	s0, [r4, #412]	; 0x19c
    57b4:	ee20 0a29 	vmul.f32	s0, s0, s19
    57b8:	f000 fee6 	bl	6588 <cosf>
    57bc:	f504 6301 	add.w	r3, r4, #2064	; 0x810
    57c0:	edd3 7a00 	vldr	s15, [r3]
    57c4:	ee28 0a00 	vmul.f32	s0, s16, s0
    57c8:	eef1 ba04 	vmov.f32	s23, #20	; 0x40a00000  5.0
    57cc:	eeb4 0ae7 	vcmpe.f32	s0, s15
    57d0:	eef1 fa10 	vmrs	APSR_nzcv, fpscr
    57d4:	bf5f      	itttt	pl
    57d6:	ed1f 7abe 	vldrpl	s14, [pc, #-760]	; 54e0 <tnt_thd+0x16b4>
    57da:	ee20 0a07 	vmulpl.f32	s0, s0, s14
    57de:	ed1f 7abf 	vldrpl	s14, [pc, #-764]	; 54e4 <tnt_thd+0x16b8>
    57e2:	eea7 0a87 	vfmapl.f32	s0, s15, s14
    57e6:	ed1f 7ac0 	vldr	s14, [pc, #-768]	; 54e8 <tnt_thd+0x16bc>
    57ea:	ed83 0a00 	vstr	s0, [r3]
    57ee:	edd7 7a00 	vldr	s15, [r7]
    57f2:	ee20 0a07 	vmul.f32	s0, s0, s14
    57f6:	f604 0314 	addw	r3, r4, #2068	; 0x814
    57fa:	eef4 7ac0 	vcmpe.f32	s15, s0
    57fe:	eef1 fa10 	vmrs	APSR_nzcv, fpscr
    5802:	ed83 7a00 	vstr	s14, [r3]
    5806:	f604 030c 	addw	r3, r4, #2060	; 0x80c
    580a:	f57f abec 	bpl.w	4fe6 <tnt_thd+0x11ba>
    580e:	ed96 7a00 	vldr	s14, [r6]
    5812:	eef4 7ac7 	vcmpe.f32	s15, s14
    5816:	eef1 fa10 	vmrs	APSR_nzcv, fpscr
    581a:	f63f abe4 	bhi.w	4fe6 <tnt_thd+0x11ba>
    581e:	f204 72f4 	addw	r2, r4, #2036	; 0x7f4
    5822:	ed94 7ab7 	vldr	s14, [r4, #732]	; 0x2dc
    5826:	edd2 7a00 	vldr	s15, [r2]
    582a:	ee77 7a67 	vsub.f32	s15, s14, s15
    582e:	eef6 6a00 	vmov.f32	s13, #96	; 0x3f000000  0.5
    5832:	eef4 7ae6 	vcmpe.f32	s15, s13
    5836:	eef1 fa10 	vmrs	APSR_nzcv, fpscr
    583a:	f77f abd4 	ble.w	4fe6 <tnt_thd+0x11ba>
    583e:	edd3 7a00 	vldr	s15, [r3]
    5842:	ee77 7aa8 	vadd.f32	s15, s15, s17
    5846:	eef4 7aeb 	vcmpe.f32	s15, s23
    584a:	eef1 fa10 	vmrs	APSR_nzcv, fpscr
    584e:	edc3 7a00 	vstr	s15, [r3]
    5852:	dd0f      	ble.n	5874 <tnt_thd+0x1a48>
    5854:	2301      	movs	r3, #1
    5856:	f884 37ec 	strb.w	r3, [r4, #2028]	; 0x7ec
    585a:	f504 63fe 	add.w	r3, r4, #2032	; 0x7f0
    585e:	edd3 7a00 	vldr	s15, [r3]
    5862:	ee77 7a67 	vsub.f32	s15, s14, s15
    5866:	eef4 7acb 	vcmpe.f32	s15, s22
    586a:	eef1 fa10 	vmrs	APSR_nzcv, fpscr
    586e:	dd01      	ble.n	5874 <tnt_thd+0x1a48>
    5870:	ed83 7a00 	vstr	s14, [r3]
    5874:	ed94 8a73 	vldr	s16, [r4, #460]	; 0x1cc
    5878:	ed5f 8ae4 	vldr	s17, [pc, #-912]	; 54ec <tnt_thd+0x16c0>
    587c:	ee88 0a28 	vdiv.f32	s0, s16, s17
    5880:	eef1 0a00 	vmov.f32	s1, #16	; 0x40800000  4.0
    5884:	eeb0 0ac0 	vabs.f32	s0, s0
    5888:	ee20 0a20 	vmul.f32	s0, s0, s1
    588c:	f000 ff3c 	bl	6708 <fminf>
    5890:	f8d4 13f8 	ldr.w	r1, [r4, #1016]	; 0x3f8
    5894:	ee3b 0ac0 	vsub.f32	s0, s23, s0
    5898:	2900      	cmp	r1, #0
    589a:	f43f abb3 	beq.w	5004 <tnt_thd+0x11d8>
    589e:	1e4b      	subs	r3, r1, #1
    58a0:	f8d4 27e8 	ldr.w	r2, [r4, #2024]	; 0x7e8
    58a4:	f894 02a1 	ldrb.w	r0, [r4, #673]	; 0x2a1
    58a8:	ed94 6afd 	vldr	s12, [r4, #1012]	; 0x3f4
    58ac:	2af9      	cmp	r2, #249	; 0xf9
    58ae:	bfd4      	ite	le
    58b0:	3202      	addle	r2, #2
    58b2:	2200      	movgt	r2, #0
    58b4:	2803      	cmp	r0, #3
    58b6:	f47f ac3b 	bne.w	5130 <tnt_thd+0x1304>
    58ba:	f204 70f4 	addw	r0, r4, #2036	; 0x7f4
    58be:	edd4 5ab7 	vldr	s11, [r4, #732]	; 0x2dc
    58c2:	edd0 7a00 	vldr	s15, [r0]
    58c6:	ee75 7ae7 	vsub.f32	s15, s11, s15
    58ca:	eeb6 7a00 	vmov.f32	s14, #96	; 0x3f000000  0.5
    58ce:	eef4 7ac7 	vcmpe.f32	s15, s14
    58d2:	eef1 fa10 	vmrs	APSR_nzcv, fpscr
    58d6:	f57f ab98 	bpl.w	500a <tnt_thd+0x11de>
    58da:	2301      	movs	r3, #1
    58dc:	f884 32a1 	strb.w	r3, [r4, #673]	; 0x2a1
    58e0:	4b1b      	ldr	r3, [pc, #108]	; (5950 <tnt_thd+0x1b24>)
    58e2:	edc4 5aee 	vstr	s11, [r4, #952]	; 0x3b8
    58e6:	f8c4 3394 	str.w	r3, [r4, #916]	; 0x394
    58ea:	e489      	b.n	5200 <tnt_thd+0x13d4>
    58ec:	2301      	movs	r3, #1
    58ee:	f7fe beb0 	b.w	4652 <tnt_thd+0x826>
    58f2:	eef1 fa10 	vmrs	APSR_nzcv, fpscr
    58f6:	edd4 6a77 	vldr	s13, [r4, #476]	; 0x1dc
    58fa:	f43e ac0c 	beq.w	4116 <tnt_thd+0x2ea>
    58fe:	eeb4 7ae6 	vcmpe.f32	s14, s13
    5902:	ed94 7a78 	vldr	s14, [r4, #480]	; 0x1e0
    5906:	eef1 fa10 	vmrs	APSR_nzcv, fpscr
    590a:	eeb4 7ae7 	vcmpe.f32	s14, s15
    590e:	f57e ac3a 	bpl.w	4186 <tnt_thd+0x35a>
    5912:	eef1 fa10 	vmrs	APSR_nzcv, fpscr
    5916:	f73e abc4 	bgt.w	40a2 <tnt_thd+0x276>
    591a:	f894 30f4 	ldrb.w	r3, [r4, #244]	; 0xf4
    591e:	b16b      	cbz	r3, 593c <tnt_thd+0x1b10>
    5920:	ed94 7abb 	vldr	s14, [r4, #748]	; 0x2ec
    5924:	edd4 7ab7 	vldr	s15, [r4, #732]	; 0x2dc
    5928:	ee77 7ac7 	vsub.f32	s15, s15, s14
    592c:	eeb1 7a04 	vmov.f32	s14, #20	; 0x40a00000  5.0
    5930:	eef4 7ac7 	vcmpe.f32	s15, s14
    5934:	eef1 fa10 	vmrs	APSR_nzcv, fpscr
    5938:	f73e abb3 	bgt.w	40a2 <tnt_thd+0x276>
    593c:	f894 6092 	ldrb.w	r6, [r4, #146]	; 0x92
    5940:	3601      	adds	r6, #1
    5942:	b2f6      	uxtb	r6, r6
    5944:	2100      	movs	r1, #0
    5946:	4620      	mov	r0, r4
    5948:	f7fe fa52 	bl	3df0 <beep_off>
    594c:	f7fe bbfa 	b.w	4144 <tnt_thd+0x318>
    5950:	45d05000 	ldrbmi	r5, [r0]

Disassembly of section .text.buffer_append_int16:

00005954 <buffer_append_int16>:
    5954:	6813      	ldr	r3, [r2, #0]
    5956:	b510      	push	{r4, lr}
    5958:	1c5c      	adds	r4, r3, #1
    595a:	6014      	str	r4, [r2, #0]
    595c:	120c      	asrs	r4, r1, #8
    595e:	54c4      	strb	r4, [r0, r3]
    5960:	6813      	ldr	r3, [r2, #0]
    5962:	1c5c      	adds	r4, r3, #1
    5964:	6014      	str	r4, [r2, #0]
    5966:	54c1      	strb	r1, [r0, r3]
    5968:	bd10      	pop	{r4, pc}

Disassembly of section .text.buffer_append_uint16:

0000596a <buffer_append_uint16>:
    596a:	6813      	ldr	r3, [r2, #0]
    596c:	b510      	push	{r4, lr}
    596e:	1c5c      	adds	r4, r3, #1
    5970:	6014      	str	r4, [r2, #0]
    5972:	0a0c      	lsrs	r4, r1, #8
    5974:	54c4      	strb	r4, [r0, r3]
    5976:	6813      	ldr	r3, [r2, #0]
    5978:	1c5c      	adds	r4, r3, #1
    597a:	6014      	str	r4, [r2, #0]
    597c:	54c1      	strb	r1, [r0, r3]
    597e:	bd10      	pop	{r4, pc}

Disassembly of section .text.buffer_append_uint32:

00005980 <buffer_append_uint32>:
    5980:	6813      	ldr	r3, [r2, #0]
    5982:	b510      	push	{r4, lr}
    5984:	1c5c      	adds	r4, r3, #1
    5986:	6014      	str	r4, [r2, #0]
    5988:	0e0c      	lsrs	r4, r1, #24
    598a:	54c4      	strb	r4, [r0, r3]
    598c:	6813      	ldr	r3, [r2, #0]
    598e:	1c5c      	adds	r4, r3, #1
    5990:	6014      	str	r4, [r2, #0]
    5992:	0c0c      	lsrs	r4, r1, #16
    5994:	54c4      	strb	r4, [r0, r3]
    5996:	6813      	ldr	r3, [r2, #0]
    5998:	1c5c      	adds	r4, r3, #1
    599a:	6014      	str	r4, [r2, #0]
    599c:	0a0c      	lsrs	r4, r1, #8
    599e:	54c4      	strb	r4, [r0, r3]
    59a0:	6813      	ldr	r3, [r2, #0]
    59a2:	1c5c      	adds	r4, r3, #1
    59a4:	6014      	str	r4, [r2, #0]
    59a6:	54c1      	strb	r1, [r0, r3]
    59a8:	bd10      	pop	{r4, pc}

Disassembly of section .text.buffer_append_float16:

000059aa <buffer_append_float16>:
    59aa:	ee20 0a20 	vmul.f32	s0, s0, s1
    59ae:	460a      	mov	r2, r1
    59b0:	eebd 0ac0 	vcvt.s32.f32	s0, s0
    59b4:	ee10 3a10 	vmov	r3, s0
    59b8:	b219      	sxth	r1, r3
    59ba:	f7ff bfcb 	b.w	5954 <buffer_append_int16>

Disassembly of section .text.buffer_append_float32_auto:

000059c0 <buffer_append_float32_auto>:
    59c0:	b573      	push	{r0, r1, r4, r5, r6, lr}
    59c2:	eddf 7a21 	vldr	s15, [pc, #132]	; 5a48 <buffer_append_float32_auto+0x88>
    59c6:	eeb0 7ac0 	vabs.f32	s14, s0
    59ca:	eeb4 7a67 	vcmp.f32	s14, s15
    59ce:	eddf 7a1f 	vldr	s15, [pc, #124]	; 5a4c <buffer_append_float32_auto+0x8c>
    59d2:	eef1 fa10 	vmrs	APSR_nzcv, fpscr
    59d6:	bf48      	it	mi
    59d8:	eeb0 0a67 	vmovmi.f32	s0, s15
    59dc:	4605      	mov	r5, r0
    59de:	2400      	movs	r4, #0
    59e0:	a801      	add	r0, sp, #4
    59e2:	460e      	mov	r6, r1
    59e4:	9401      	str	r4, [sp, #4]
    59e6:	f000 fe07 	bl	65f8 <frexpf>
    59ea:	eeb6 7a00 	vmov.f32	s14, #96	; 0x3f000000  0.5
    59ee:	eef0 7ac0 	vabs.f32	s15, s0
    59f2:	eef4 7ac7 	vcmpe.f32	s15, s14
    59f6:	eef1 fa10 	vmrs	APSR_nzcv, fpscr
    59fa:	db0e      	blt.n	5a1a <buffer_append_float32_auto+0x5a>
    59fc:	ee77 7ac7 	vsub.f32	s15, s15, s14
    5a00:	ed9f 7a13 	vldr	s14, [pc, #76]	; 5a50 <buffer_append_float32_auto+0x90>
    5a04:	9b01      	ldr	r3, [sp, #4]
    5a06:	ee77 7aa7 	vadd.f32	s15, s15, s15
    5a0a:	337e      	adds	r3, #126	; 0x7e
    5a0c:	ee67 7a87 	vmul.f32	s15, s15, s14
    5a10:	9301      	str	r3, [sp, #4]
    5a12:	eefc 7ae7 	vcvt.u32.f32	s15, s15
    5a16:	ee17 4a90 	vmov	r4, s15
    5a1a:	9b01      	ldr	r3, [sp, #4]
    5a1c:	05db      	lsls	r3, r3, #23
    5a1e:	f003 43ff 	and.w	r3, r3, #2139095040	; 0x7f800000
    5a22:	f3c4 0416 	ubfx	r4, r4, #0, #23
    5a26:	eeb5 0ac0 	vcmpe.f32	s0, #0.0
    5a2a:	ea43 0104 	orr.w	r1, r3, r4
    5a2e:	eef1 fa10 	vmrs	APSR_nzcv, fpscr
    5a32:	bf48      	it	mi
    5a34:	f041 4100 	orrmi.w	r1, r1, #2147483648	; 0x80000000
    5a38:	4632      	mov	r2, r6
    5a3a:	4628      	mov	r0, r5
    5a3c:	b002      	add	sp, #8
    5a3e:	e8bd 4070 	ldmia.w	sp!, {r4, r5, r6, lr}
    5a42:	f7ff bf9d 	b.w	5980 <buffer_append_uint32>
    5a46:	bf00      	nop
    5a48:	00a355e6 	adceq	r5, r3, r6, ror #11
    5a4c:	00000000 	andeq	r0, r0, r0
    5a50:	4b000000 	blmi	5a58 <buffer_get_int16+0x4>

Disassembly of section .text.buffer_get_int16:

00005a54 <buffer_get_int16>:
    5a54:	680b      	ldr	r3, [r1, #0]
    5a56:	5cc2      	ldrb	r2, [r0, r3]
    5a58:	4418      	add	r0, r3
    5a5a:	3302      	adds	r3, #2
    5a5c:	7840      	ldrb	r0, [r0, #1]
    5a5e:	600b      	str	r3, [r1, #0]
    5a60:	ea40 2002 	orr.w	r0, r0, r2, lsl #8
    5a64:	b200      	sxth	r0, r0
    5a66:	4770      	bx	lr

Disassembly of section .text.buffer_get_uint16:

00005a68 <buffer_get_uint16>:
    5a68:	b510      	push	{r4, lr}
    5a6a:	680b      	ldr	r3, [r1, #0]
    5a6c:	5cc4      	ldrb	r4, [r0, r3]
    5a6e:	4418      	add	r0, r3
    5a70:	3302      	adds	r3, #2
    5a72:	7840      	ldrb	r0, [r0, #1]
    5a74:	600b      	str	r3, [r1, #0]
    5a76:	ea40 2004 	orr.w	r0, r0, r4, lsl #8
    5a7a:	bd10      	pop	{r4, pc}

Disassembly of section .text.buffer_get_uint32:

00005a7c <buffer_get_uint32>:
    5a7c:	b530      	push	{r4, r5, lr}
    5a7e:	680c      	ldr	r4, [r1, #0]
    5a80:	1903      	adds	r3, r0, r4
    5a82:	5d05      	ldrb	r5, [r0, r4]
    5a84:	78da      	ldrb	r2, [r3, #3]
    5a86:	7858      	ldrb	r0, [r3, #1]
    5a88:	ea42 6205 	orr.w	r2, r2, r5, lsl #24
    5a8c:	ea42 4200 	orr.w	r2, r2, r0, lsl #16
    5a90:	7898      	ldrb	r0, [r3, #2]
    5a92:	3404      	adds	r4, #4
    5a94:	600c      	str	r4, [r1, #0]
    5a96:	ea42 2000 	orr.w	r0, r2, r0, lsl #8
    5a9a:	bd30      	pop	{r4, r5, pc}

Disassembly of section .text.buffer_get_float16:

00005a9c <buffer_get_float16>:
    5a9c:	b508      	push	{r3, lr}
    5a9e:	ed2d 8b02 	vpush	{d8}
    5aa2:	eeb0 8a40 	vmov.f32	s16, s0
    5aa6:	f7ff ffd5 	bl	5a54 <buffer_get_int16>
    5aaa:	ee00 0a10 	vmov	s0, r0
    5aae:	eeb8 0ac0 	vcvt.f32.s32	s0, s0
    5ab2:	ee80 0a08 	vdiv.f32	s0, s0, s16
    5ab6:	ecbd 8b02 	vpop	{d8}
    5aba:	bd08      	pop	{r3, pc}

Disassembly of section .text.confparser_serialize_tnt_config:

00005abc <confparser_serialize_tnt_config>:
    5abc:	b570      	push	{r4, r5, r6, lr}
    5abe:	ed2d 8b04 	vpush	{d8-d9}
    5ac2:	b082      	sub	sp, #8
    5ac4:	ae01      	add	r6, sp, #4
    5ac6:	460c      	mov	r4, r1
    5ac8:	4605      	mov	r5, r0
    5aca:	2300      	movs	r3, #0
    5acc:	4632      	mov	r2, r6
    5ace:	49f7      	ldr	r1, [pc, #988]	; (5eac <confparser_serialize_tnt_config+0x3f0>)
    5ad0:	9301      	str	r3, [sp, #4]
    5ad2:	f7ff ff55 	bl	5980 <buffer_append_uint32>
    5ad6:	ed94 0a02 	vldr	s0, [r4, #8]
    5ada:	ed9f 8af5 	vldr	s16, [pc, #980]	; 5eb0 <confparser_serialize_tnt_config+0x3f4>
    5ade:	ed9f 9af5 	vldr	s18, [pc, #980]	; 5eb4 <confparser_serialize_tnt_config+0x3f8>
    5ae2:	eddf 8af5 	vldr	s17, [pc, #980]	; 5eb8 <confparser_serialize_tnt_config+0x3fc>
    5ae6:	4631      	mov	r1, r6
    5ae8:	4628      	mov	r0, r5
    5aea:	eef2 0a04 	vmov.f32	s1, #36	; 0x41200000  10.0
    5aee:	f7ff ff5c 	bl	59aa <buffer_append_float16>
    5af2:	ed94 0a03 	vldr	s0, [r4, #12]
    5af6:	4631      	mov	r1, r6
    5af8:	4628      	mov	r0, r5
    5afa:	eef2 0a04 	vmov.f32	s1, #36	; 0x41200000  10.0
    5afe:	f7ff ff54 	bl	59aa <buffer_append_float16>
    5b02:	ed94 0a04 	vldr	s0, [r4, #16]
    5b06:	4631      	mov	r1, r6
    5b08:	4628      	mov	r0, r5
    5b0a:	eef2 0a04 	vmov.f32	s1, #36	; 0x41200000  10.0
    5b0e:	f7ff ff4c 	bl	59aa <buffer_append_float16>
    5b12:	ed94 0a05 	vldr	s0, [r4, #20]
    5b16:	4631      	mov	r1, r6
    5b18:	4628      	mov	r0, r5
    5b1a:	eef2 0a04 	vmov.f32	s1, #36	; 0x41200000  10.0
    5b1e:	f7ff ff44 	bl	59aa <buffer_append_float16>
    5b22:	ed94 0a06 	vldr	s0, [r4, #24]
    5b26:	4631      	mov	r1, r6
    5b28:	4628      	mov	r0, r5
    5b2a:	eef2 0a04 	vmov.f32	s1, #36	; 0x41200000  10.0
    5b2e:	f7ff ff3c 	bl	59aa <buffer_append_float16>
    5b32:	ed94 0a07 	vldr	s0, [r4, #28]
    5b36:	4631      	mov	r1, r6
    5b38:	4628      	mov	r0, r5
    5b3a:	eef2 0a04 	vmov.f32	s1, #36	; 0x41200000  10.0
    5b3e:	f7ff ff34 	bl	59aa <buffer_append_float16>
    5b42:	ed94 0a08 	vldr	s0, [r4, #32]
    5b46:	4631      	mov	r1, r6
    5b48:	4628      	mov	r0, r5
    5b4a:	eef2 0a04 	vmov.f32	s1, #36	; 0x41200000  10.0
    5b4e:	f7ff ff2c 	bl	59aa <buffer_append_float16>
    5b52:	ed94 0a09 	vldr	s0, [r4, #36]	; 0x24
    5b56:	4631      	mov	r1, r6
    5b58:	4628      	mov	r0, r5
    5b5a:	eef2 0a04 	vmov.f32	s1, #36	; 0x41200000  10.0
    5b5e:	f7ff ff24 	bl	59aa <buffer_append_float16>
    5b62:	ed94 0a0a 	vldr	s0, [r4, #40]	; 0x28
    5b66:	4631      	mov	r1, r6
    5b68:	4628      	mov	r0, r5
    5b6a:	eef2 0a04 	vmov.f32	s1, #36	; 0x41200000  10.0
    5b6e:	f7ff ff1c 	bl	59aa <buffer_append_float16>
    5b72:	ed94 0a0b 	vldr	s0, [r4, #44]	; 0x2c
    5b76:	4631      	mov	r1, r6
    5b78:	eef0 0a48 	vmov.f32	s1, s16
    5b7c:	4628      	mov	r0, r5
    5b7e:	f7ff ff14 	bl	59aa <buffer_append_float16>
    5b82:	ed94 0a0c 	vldr	s0, [r4, #48]	; 0x30
    5b86:	4631      	mov	r1, r6
    5b88:	eef0 0a48 	vmov.f32	s1, s16
    5b8c:	4628      	mov	r0, r5
    5b8e:	f7ff ff0c 	bl	59aa <buffer_append_float16>
    5b92:	ed94 0a0d 	vldr	s0, [r4, #52]	; 0x34
    5b96:	4631      	mov	r1, r6
    5b98:	eef0 0a49 	vmov.f32	s1, s18
    5b9c:	4628      	mov	r0, r5
    5b9e:	f7ff ff04 	bl	59aa <buffer_append_float16>
    5ba2:	ed94 0a0e 	vldr	s0, [r4, #56]	; 0x38
    5ba6:	4631      	mov	r1, r6
    5ba8:	eef0 0a49 	vmov.f32	s1, s18
    5bac:	4628      	mov	r0, r5
    5bae:	f7ff fefc 	bl	59aa <buffer_append_float16>
    5bb2:	ed94 0a0f 	vldr	s0, [r4, #60]	; 0x3c
    5bb6:	4631      	mov	r1, r6
    5bb8:	eef0 0a48 	vmov.f32	s1, s16
    5bbc:	4628      	mov	r0, r5
    5bbe:	f7ff fef4 	bl	59aa <buffer_append_float16>
    5bc2:	ed94 0a10 	vldr	s0, [r4, #64]	; 0x40
    5bc6:	4631      	mov	r1, r6
    5bc8:	eef0 0a48 	vmov.f32	s1, s16
    5bcc:	4628      	mov	r0, r5
    5bce:	f7ff feec 	bl	59aa <buffer_append_float16>
    5bd2:	ed94 0a11 	vldr	s0, [r4, #68]	; 0x44
    5bd6:	4631      	mov	r1, r6
    5bd8:	eef0 0a48 	vmov.f32	s1, s16
    5bdc:	4628      	mov	r0, r5
    5bde:	f7ff fee4 	bl	59aa <buffer_append_float16>
    5be2:	ed94 0a12 	vldr	s0, [r4, #72]	; 0x48
    5be6:	4631      	mov	r1, r6
    5be8:	eef0 0a48 	vmov.f32	s1, s16
    5bec:	4628      	mov	r0, r5
    5bee:	f7ff fedc 	bl	59aa <buffer_append_float16>
    5bf2:	ed94 0a13 	vldr	s0, [r4, #76]	; 0x4c
    5bf6:	4631      	mov	r1, r6
    5bf8:	eef0 0a48 	vmov.f32	s1, s16
    5bfc:	4628      	mov	r0, r5
    5bfe:	f7ff fed4 	bl	59aa <buffer_append_float16>
    5c02:	ed94 0a14 	vldr	s0, [r4, #80]	; 0x50
    5c06:	4631      	mov	r1, r6
    5c08:	eef0 0a48 	vmov.f32	s1, s16
    5c0c:	4628      	mov	r0, r5
    5c0e:	f7ff fecc 	bl	59aa <buffer_append_float16>
    5c12:	ed94 0a15 	vldr	s0, [r4, #84]	; 0x54
    5c16:	4631      	mov	r1, r6
    5c18:	eef0 0a48 	vmov.f32	s1, s16
    5c1c:	4628      	mov	r0, r5
    5c1e:	f7ff fec4 	bl	59aa <buffer_append_float16>
    5c22:	ed94 0a16 	vldr	s0, [r4, #88]	; 0x58
    5c26:	4631      	mov	r1, r6
    5c28:	eef0 0a48 	vmov.f32	s1, s16
    5c2c:	4628      	mov	r0, r5
    5c2e:	f7ff febc 	bl	59aa <buffer_append_float16>
    5c32:	ed94 0a17 	vldr	s0, [r4, #92]	; 0x5c
    5c36:	4631      	mov	r1, r6
    5c38:	eef0 0a48 	vmov.f32	s1, s16
    5c3c:	4628      	mov	r0, r5
    5c3e:	f7ff feb4 	bl	59aa <buffer_append_float16>
    5c42:	ed94 0a18 	vldr	s0, [r4, #96]	; 0x60
    5c46:	4631      	mov	r1, r6
    5c48:	eef0 0a48 	vmov.f32	s1, s16
    5c4c:	4628      	mov	r0, r5
    5c4e:	f7ff feac 	bl	59aa <buffer_append_float16>
    5c52:	ed94 0a19 	vldr	s0, [r4, #100]	; 0x64
    5c56:	4631      	mov	r1, r6
    5c58:	eef0 0a48 	vmov.f32	s1, s16
    5c5c:	4628      	mov	r0, r5
    5c5e:	f7ff fea4 	bl	59aa <buffer_append_float16>
    5c62:	ed94 0a1a 	vldr	s0, [r4, #104]	; 0x68
    5c66:	4631      	mov	r1, r6
    5c68:	eef0 0a48 	vmov.f32	s1, s16
    5c6c:	4628      	mov	r0, r5
    5c6e:	f7ff fe9c 	bl	59aa <buffer_append_float16>
    5c72:	ed94 0a1b 	vldr	s0, [r4, #108]	; 0x6c
    5c76:	eef0 0a48 	vmov.f32	s1, s16
    5c7a:	4631      	mov	r1, r6
    5c7c:	4628      	mov	r0, r5
    5c7e:	f7ff fe94 	bl	59aa <buffer_append_float16>
    5c82:	4632      	mov	r2, r6
    5c84:	f8b4 1070 	ldrh.w	r1, [r4, #112]	; 0x70
    5c88:	4628      	mov	r0, r5
    5c8a:	f7ff fe6e 	bl	596a <buffer_append_uint16>
    5c8e:	ed94 0a1d 	vldr	s0, [r4, #116]	; 0x74
    5c92:	4631      	mov	r1, r6
    5c94:	4628      	mov	r0, r5
    5c96:	eef2 0a04 	vmov.f32	s1, #36	; 0x41200000  10.0
    5c9a:	f7ff fe86 	bl	59aa <buffer_append_float16>
    5c9e:	ed94 0a1e 	vldr	s0, [r4, #120]	; 0x78
    5ca2:	4631      	mov	r1, r6
    5ca4:	4628      	mov	r0, r5
    5ca6:	eef2 0a04 	vmov.f32	s1, #36	; 0x41200000  10.0
    5caa:	f7ff fe7e 	bl	59aa <buffer_append_float16>
    5cae:	ed94 0a1f 	vldr	s0, [r4, #124]	; 0x7c
    5cb2:	4631      	mov	r1, r6
    5cb4:	eef0 0a68 	vmov.f32	s1, s17
    5cb8:	4628      	mov	r0, r5
    5cba:	f7ff fe76 	bl	59aa <buffer_append_float16>
    5cbe:	ed94 0a20 	vldr	s0, [r4, #128]	; 0x80
    5cc2:	eef0 0a68 	vmov.f32	s1, s17
    5cc6:	4631      	mov	r1, r6
    5cc8:	4628      	mov	r0, r5
    5cca:	f7ff fe6e 	bl	59aa <buffer_append_float16>
    5cce:	9b01      	ldr	r3, [sp, #4]
    5cd0:	f894 20fa 	ldrb.w	r2, [r4, #250]	; 0xfa
    5cd4:	54ea      	strb	r2, [r5, r3]
    5cd6:	1c59      	adds	r1, r3, #1
    5cd8:	9101      	str	r1, [sp, #4]
    5cda:	4632      	mov	r2, r6
    5cdc:	f8b4 1084 	ldrh.w	r1, [r4, #132]	; 0x84
    5ce0:	4628      	mov	r0, r5
    5ce2:	f7ff fe42 	bl	596a <buffer_append_uint16>
    5ce6:	f8b4 1086 	ldrh.w	r1, [r4, #134]	; 0x86
    5cea:	4632      	mov	r2, r6
    5cec:	4628      	mov	r0, r5
    5cee:	f7ff fe3c 	bl	596a <buffer_append_uint16>
    5cf2:	f8b4 1088 	ldrh.w	r1, [r4, #136]	; 0x88
    5cf6:	4632      	mov	r2, r6
    5cf8:	4628      	mov	r0, r5
    5cfa:	f7ff fe36 	bl	596a <buffer_append_uint16>
    5cfe:	f8b4 108a 	ldrh.w	r1, [r4, #138]	; 0x8a
    5d02:	4632      	mov	r2, r6
    5d04:	4628      	mov	r0, r5
    5d06:	f7ff fe30 	bl	596a <buffer_append_uint16>
    5d0a:	f8b4 108c 	ldrh.w	r1, [r4, #140]	; 0x8c
    5d0e:	4632      	mov	r2, r6
    5d10:	4628      	mov	r0, r5
    5d12:	f7ff fe2a 	bl	596a <buffer_append_uint16>
    5d16:	9b01      	ldr	r3, [sp, #4]
    5d18:	f894 208e 	ldrb.w	r2, [r4, #142]	; 0x8e
    5d1c:	54ea      	strb	r2, [r5, r3]
    5d1e:	1c99      	adds	r1, r3, #2
    5d20:	442b      	add	r3, r5
    5d22:	f894 208f 	ldrb.w	r2, [r4, #143]	; 0x8f
    5d26:	705a      	strb	r2, [r3, #1]
    5d28:	ed94 0a24 	vldr	s0, [r4, #144]	; 0x90
    5d2c:	9101      	str	r1, [sp, #4]
    5d2e:	eef0 0a48 	vmov.f32	s1, s16
    5d32:	4631      	mov	r1, r6
    5d34:	4628      	mov	r0, r5
    5d36:	f7ff fe38 	bl	59aa <buffer_append_float16>
    5d3a:	ed94 0a25 	vldr	s0, [r4, #148]	; 0x94
    5d3e:	4631      	mov	r1, r6
    5d40:	eef0 0a48 	vmov.f32	s1, s16
    5d44:	4628      	mov	r0, r5
    5d46:	f7ff fe30 	bl	59aa <buffer_append_float16>
    5d4a:	ed94 0a26 	vldr	s0, [r4, #152]	; 0x98
    5d4e:	4631      	mov	r1, r6
    5d50:	eef0 0a68 	vmov.f32	s1, s17
    5d54:	4628      	mov	r0, r5
    5d56:	f7ff fe28 	bl	59aa <buffer_append_float16>
    5d5a:	9b01      	ldr	r3, [sp, #4]
    5d5c:	f894 20f9 	ldrb.w	r2, [r4, #249]	; 0xf9
    5d60:	54ea      	strb	r2, [r5, r3]
    5d62:	1c59      	adds	r1, r3, #1
    5d64:	ed94 0a27 	vldr	s0, [r4, #156]	; 0x9c
    5d68:	9101      	str	r1, [sp, #4]
    5d6a:	eef0 0a48 	vmov.f32	s1, s16
    5d6e:	4631      	mov	r1, r6
    5d70:	4628      	mov	r0, r5
    5d72:	f7ff fe1a 	bl	59aa <buffer_append_float16>
    5d76:	ed94 0a28 	vldr	s0, [r4, #160]	; 0xa0
    5d7a:	4631      	mov	r1, r6
    5d7c:	eef0 0a48 	vmov.f32	s1, s16
    5d80:	4628      	mov	r0, r5
    5d82:	f7ff fe12 	bl	59aa <buffer_append_float16>
    5d86:	ed94 0a29 	vldr	s0, [r4, #164]	; 0xa4
    5d8a:	4631      	mov	r1, r6
    5d8c:	4628      	mov	r0, r5
    5d8e:	eef2 0a04 	vmov.f32	s1, #36	; 0x41200000  10.0
    5d92:	f7ff fe0a 	bl	59aa <buffer_append_float16>
    5d96:	ed94 0a2a 	vldr	s0, [r4, #168]	; 0xa8
    5d9a:	4631      	mov	r1, r6
    5d9c:	eef0 0a48 	vmov.f32	s1, s16
    5da0:	4628      	mov	r0, r5
    5da2:	f7ff fe02 	bl	59aa <buffer_append_float16>
    5da6:	ed94 0a2b 	vldr	s0, [r4, #172]	; 0xac
    5daa:	4631      	mov	r1, r6
    5dac:	eef0 0a48 	vmov.f32	s1, s16
    5db0:	4628      	mov	r0, r5
    5db2:	f7ff fdfa 	bl	59aa <buffer_append_float16>
    5db6:	ed94 0a2c 	vldr	s0, [r4, #176]	; 0xb0
    5dba:	4631      	mov	r1, r6
    5dbc:	4628      	mov	r0, r5
    5dbe:	eef2 0a04 	vmov.f32	s1, #36	; 0x41200000  10.0
    5dc2:	f7ff fdf2 	bl	59aa <buffer_append_float16>
    5dc6:	ed94 0a2d 	vldr	s0, [r4, #180]	; 0xb4
    5dca:	4631      	mov	r1, r6
    5dcc:	eef0 0a48 	vmov.f32	s1, s16
    5dd0:	4628      	mov	r0, r5
    5dd2:	f7ff fdea 	bl	59aa <buffer_append_float16>
    5dd6:	ed94 0a2e 	vldr	s0, [r4, #184]	; 0xb8
    5dda:	eef0 0a68 	vmov.f32	s1, s17
    5dde:	4631      	mov	r1, r6
    5de0:	4628      	mov	r0, r5
    5de2:	f7ff fde2 	bl	59aa <buffer_append_float16>
    5de6:	4632      	mov	r2, r6
    5de8:	f8b4 10bc 	ldrh.w	r1, [r4, #188]	; 0xbc
    5dec:	4628      	mov	r0, r5
    5dee:	f7ff fdbc 	bl	596a <buffer_append_uint16>
    5df2:	ed94 0a37 	vldr	s0, [r4, #220]	; 0xdc
    5df6:	4631      	mov	r1, r6
    5df8:	eef0 0a48 	vmov.f32	s1, s16
    5dfc:	4628      	mov	r0, r5
    5dfe:	f7ff fdd4 	bl	59aa <buffer_append_float16>
    5e02:	9b01      	ldr	r3, [sp, #4]
    5e04:	1c5a      	adds	r2, r3, #1
    5e06:	9201      	str	r2, [sp, #4]
    5e08:	f894 20be 	ldrb.w	r2, [r4, #190]	; 0xbe
    5e0c:	54ea      	strb	r2, [r5, r3]
    5e0e:	4631      	mov	r1, r6
    5e10:	ed94 0a31 	vldr	s0, [r4, #196]	; 0xc4
    5e14:	eef0 0a48 	vmov.f32	s1, s16
    5e18:	4628      	mov	r0, r5
    5e1a:	f7ff fdc6 	bl	59aa <buffer_append_float16>
    5e1e:	ed94 0a30 	vldr	s0, [r4, #192]	; 0xc0
    5e22:	4631      	mov	r1, r6
    5e24:	eef0 0a48 	vmov.f32	s1, s16
    5e28:	4628      	mov	r0, r5
    5e2a:	f7ff fdbe 	bl	59aa <buffer_append_float16>
    5e2e:	9b01      	ldr	r3, [sp, #4]
    5e30:	f8b4 20c8 	ldrh.w	r2, [r4, #200]	; 0xc8
    5e34:	54ea      	strb	r2, [r5, r3]
    5e36:	1c99      	adds	r1, r3, #2
    5e38:	442b      	add	r3, r5
    5e3a:	f894 20ca 	ldrb.w	r2, [r4, #202]	; 0xca
    5e3e:	705a      	strb	r2, [r3, #1]
    5e40:	ed94 0a33 	vldr	s0, [r4, #204]	; 0xcc
    5e44:	9101      	str	r1, [sp, #4]
    5e46:	eef0 0a49 	vmov.f32	s1, s18
    5e4a:	4631      	mov	r1, r6
    5e4c:	4628      	mov	r0, r5
    5e4e:	f7ff fdac 	bl	59aa <buffer_append_float16>
    5e52:	ed94 0a34 	vldr	s0, [r4, #208]	; 0xd0
    5e56:	4631      	mov	r1, r6
    5e58:	4628      	mov	r0, r5
    5e5a:	eef2 0a04 	vmov.f32	s1, #36	; 0x41200000  10.0
    5e5e:	f7ff fda4 	bl	59aa <buffer_append_float16>
    5e62:	ed94 0a35 	vldr	s0, [r4, #212]	; 0xd4
    5e66:	4631      	mov	r1, r6
    5e68:	4628      	mov	r0, r5
    5e6a:	eef2 0a04 	vmov.f32	s1, #36	; 0x41200000  10.0
    5e6e:	f7ff fd9c 	bl	59aa <buffer_append_float16>
    5e72:	9b01      	ldr	r3, [sp, #4]
    5e74:	f894 20d8 	ldrb.w	r2, [r4, #216]	; 0xd8
    5e78:	54ea      	strb	r2, [r5, r3]
    5e7a:	1c59      	adds	r1, r3, #1
    5e7c:	ed94 0a38 	vldr	s0, [r4, #224]	; 0xe0
    5e80:	9101      	str	r1, [sp, #4]
    5e82:	eef0 0a48 	vmov.f32	s1, s16
    5e86:	4631      	mov	r1, r6
    5e88:	4628      	mov	r0, r5
    5e8a:	f7ff fd8e 	bl	59aa <buffer_append_float16>
    5e8e:	ed94 0a39 	vldr	s0, [r4, #228]	; 0xe4
    5e92:	4631      	mov	r1, r6
    5e94:	eef0 0a48 	vmov.f32	s1, s16
    5e98:	4628      	mov	r0, r5
    5e9a:	f7ff fd86 	bl	59aa <buffer_append_float16>
    5e9e:	ed94 0a3a 	vldr	s0, [r4, #232]	; 0xe8
    5ea2:	4631      	mov	r1, r6
    5ea4:	eef0 0a48 	vmov.f32	s1, s16
    5ea8:	4628      	mov	r0, r5
    5eaa:	e007      	b.n	5ebc <confparser_serialize_tnt_config+0x400>
    5eac:	963d893c 			; <UNDEFINED> instruction: 0x963d893c
    5eb0:	42c80000 	sbcmi	r0, r8, #0
    5eb4:	461c4000 	ldrmi	r4, [ip], -r0
    5eb8:	447a0000 	ldrbtmi	r0, [sl], #-0
    5ebc:	f7ff fd75 	bl	59aa <buffer_append_float16>
    5ec0:	edd4 7a3b 	vldr	s15, [r4, #236]	; 0xec
    5ec4:	9b01      	ldr	r3, [sp, #4]
    5ec6:	eefc 7ae7 	vcvt.u32.f32	s15, s15
    5eca:	eef0 0a48 	vmov.f32	s1, s16
    5ece:	ee17 2a90 	vmov	r2, s15
    5ed2:	54ea      	strb	r2, [r5, r3]
    5ed4:	18ea      	adds	r2, r5, r3
    5ed6:	f894 10f0 	ldrb.w	r1, [r4, #240]	; 0xf0
    5eda:	7051      	strb	r1, [r2, #1]
    5edc:	f894 10f1 	ldrb.w	r1, [r4, #241]	; 0xf1
    5ee0:	7091      	strb	r1, [r2, #2]
    5ee2:	f894 10f2 	ldrb.w	r1, [r4, #242]	; 0xf2
    5ee6:	70d1      	strb	r1, [r2, #3]
    5ee8:	ed94 0a3d 	vldr	s0, [r4, #244]	; 0xf4
    5eec:	3304      	adds	r3, #4
    5eee:	4631      	mov	r1, r6
    5ef0:	4628      	mov	r0, r5
    5ef2:	9301      	str	r3, [sp, #4]
    5ef4:	f7ff fd59 	bl	59aa <buffer_append_float16>
    5ef8:	9b01      	ldr	r3, [sp, #4]
    5efa:	f894 20f8 	ldrb.w	r2, [r4, #248]	; 0xf8
    5efe:	54ea      	strb	r2, [r5, r3]
    5f00:	edd4 7a01 	vldr	s15, [r4, #4]
    5f04:	eefc 7ae7 	vcvt.u32.f32	s15, s15
    5f08:	1c9a      	adds	r2, r3, #2
    5f0a:	9201      	str	r2, [sp, #4]
    5f0c:	442b      	add	r3, r5
    5f0e:	ee17 2a90 	vmov	r2, s15
    5f12:	705a      	strb	r2, [r3, #1]
    5f14:	4628      	mov	r0, r5
    5f16:	ed94 0a00 	vldr	s0, [r4]
    5f1a:	4631      	mov	r1, r6
    5f1c:	eef0 0a68 	vmov.f32	s1, s17
    5f20:	f7ff fd43 	bl	59aa <buffer_append_float16>
    5f24:	9801      	ldr	r0, [sp, #4]
    5f26:	b002      	add	sp, #8
    5f28:	ecbd 8b04 	vpop	{d8-d9}
    5f2c:	bd70      	pop	{r4, r5, r6, pc}
    5f2e:	bf00      	nop

Disassembly of section .text.confparser_deserialize_tnt_config:

00005f30 <confparser_deserialize_tnt_config>:
    5f30:	b5f7      	push	{r0, r1, r2, r4, r5, r6, r7, lr}
    5f32:	ae01      	add	r6, sp, #4
    5f34:	460c      	mov	r4, r1
    5f36:	2700      	movs	r7, #0
    5f38:	4631      	mov	r1, r6
    5f3a:	4605      	mov	r5, r0
    5f3c:	9701      	str	r7, [sp, #4]
    5f3e:	f7ff fd9d 	bl	5a7c <buffer_get_uint32>
    5f42:	4bef      	ldr	r3, [pc, #956]	; (6300 <confparser_deserialize_tnt_config+0x3d0>)
    5f44:	4298      	cmp	r0, r3
    5f46:	f040 8243 	bne.w	63d0 <confparser_deserialize_tnt_config+0x4a0>
    5f4a:	4631      	mov	r1, r6
    5f4c:	4628      	mov	r0, r5
    5f4e:	eeb2 0a04 	vmov.f32	s0, #36	; 0x41200000  10.0
    5f52:	f7ff fda3 	bl	5a9c <buffer_get_float16>
    5f56:	4631      	mov	r1, r6
    5f58:	ed84 0a02 	vstr	s0, [r4, #8]
    5f5c:	4628      	mov	r0, r5
    5f5e:	eeb2 0a04 	vmov.f32	s0, #36	; 0x41200000  10.0
    5f62:	f7ff fd9b 	bl	5a9c <buffer_get_float16>
    5f66:	4631      	mov	r1, r6
    5f68:	ed84 0a03 	vstr	s0, [r4, #12]
    5f6c:	4628      	mov	r0, r5
    5f6e:	eeb2 0a04 	vmov.f32	s0, #36	; 0x41200000  10.0
    5f72:	f7ff fd93 	bl	5a9c <buffer_get_float16>
    5f76:	4631      	mov	r1, r6
    5f78:	ed84 0a04 	vstr	s0, [r4, #16]
    5f7c:	4628      	mov	r0, r5
    5f7e:	eeb2 0a04 	vmov.f32	s0, #36	; 0x41200000  10.0
    5f82:	f7ff fd8b 	bl	5a9c <buffer_get_float16>
    5f86:	4631      	mov	r1, r6
    5f88:	ed84 0a05 	vstr	s0, [r4, #20]
    5f8c:	4628      	mov	r0, r5
    5f8e:	eeb2 0a04 	vmov.f32	s0, #36	; 0x41200000  10.0
    5f92:	f7ff fd83 	bl	5a9c <buffer_get_float16>
    5f96:	4631      	mov	r1, r6
    5f98:	ed84 0a06 	vstr	s0, [r4, #24]
    5f9c:	4628      	mov	r0, r5
    5f9e:	eeb2 0a04 	vmov.f32	s0, #36	; 0x41200000  10.0
    5fa2:	f7ff fd7b 	bl	5a9c <buffer_get_float16>
    5fa6:	4631      	mov	r1, r6
    5fa8:	ed84 0a07 	vstr	s0, [r4, #28]
    5fac:	4628      	mov	r0, r5
    5fae:	eeb2 0a04 	vmov.f32	s0, #36	; 0x41200000  10.0
    5fb2:	f7ff fd73 	bl	5a9c <buffer_get_float16>
    5fb6:	4631      	mov	r1, r6
    5fb8:	ed84 0a08 	vstr	s0, [r4, #32]
    5fbc:	4628      	mov	r0, r5
    5fbe:	eeb2 0a04 	vmov.f32	s0, #36	; 0x41200000  10.0
    5fc2:	f7ff fd6b 	bl	5a9c <buffer_get_float16>
    5fc6:	4631      	mov	r1, r6
    5fc8:	ed84 0a09 	vstr	s0, [r4, #36]	; 0x24
    5fcc:	4628      	mov	r0, r5
    5fce:	eeb2 0a04 	vmov.f32	s0, #36	; 0x41200000  10.0
    5fd2:	f7ff fd63 	bl	5a9c <buffer_get_float16>
    5fd6:	4631      	mov	r1, r6
    5fd8:	ed84 0a0a 	vstr	s0, [r4, #40]	; 0x28
    5fdc:	4628      	mov	r0, r5
    5fde:	ed9f 0aca 	vldr	s0, [pc, #808]	; 6308 <confparser_deserialize_tnt_config+0x3d8>
    5fe2:	f7ff fd5b 	bl	5a9c <buffer_get_float16>
    5fe6:	4631      	mov	r1, r6
    5fe8:	ed84 0a0b 	vstr	s0, [r4, #44]	; 0x2c
    5fec:	4628      	mov	r0, r5
    5fee:	ed9f 0ac6 	vldr	s0, [pc, #792]	; 6308 <confparser_deserialize_tnt_config+0x3d8>
    5ff2:	f7ff fd53 	bl	5a9c <buffer_get_float16>
    5ff6:	4631      	mov	r1, r6
    5ff8:	ed84 0a0c 	vstr	s0, [r4, #48]	; 0x30
    5ffc:	4628      	mov	r0, r5
    5ffe:	ed9f 0ac1 	vldr	s0, [pc, #772]	; 6304 <confparser_deserialize_tnt_config+0x3d4>
    6002:	f7ff fd4b 	bl	5a9c <buffer_get_float16>
    6006:	4631      	mov	r1, r6
    6008:	ed84 0a0d 	vstr	s0, [r4, #52]	; 0x34
    600c:	4628      	mov	r0, r5
    600e:	ed9f 0abd 	vldr	s0, [pc, #756]	; 6304 <confparser_deserialize_tnt_config+0x3d4>
    6012:	f7ff fd43 	bl	5a9c <buffer_get_float16>
    6016:	4631      	mov	r1, r6
    6018:	ed84 0a0e 	vstr	s0, [r4, #56]	; 0x38
    601c:	4628      	mov	r0, r5
    601e:	ed9f 0aba 	vldr	s0, [pc, #744]	; 6308 <confparser_deserialize_tnt_config+0x3d8>
    6022:	f7ff fd3b 	bl	5a9c <buffer_get_float16>
    6026:	4631      	mov	r1, r6
    6028:	ed84 0a0f 	vstr	s0, [r4, #60]	; 0x3c
    602c:	4628      	mov	r0, r5
    602e:	ed9f 0ab6 	vldr	s0, [pc, #728]	; 6308 <confparser_deserialize_tnt_config+0x3d8>
    6032:	f7ff fd33 	bl	5a9c <buffer_get_float16>
    6036:	4631      	mov	r1, r6
    6038:	ed84 0a10 	vstr	s0, [r4, #64]	; 0x40
    603c:	4628      	mov	r0, r5
    603e:	ed9f 0ab2 	vldr	s0, [pc, #712]	; 6308 <confparser_deserialize_tnt_config+0x3d8>
    6042:	f7ff fd2b 	bl	5a9c <buffer_get_float16>
    6046:	4631      	mov	r1, r6
    6048:	ed84 0a11 	vstr	s0, [r4, #68]	; 0x44
    604c:	4628      	mov	r0, r5
    604e:	ed9f 0aae 	vldr	s0, [pc, #696]	; 6308 <confparser_deserialize_tnt_config+0x3d8>
    6052:	f7ff fd23 	bl	5a9c <buffer_get_float16>
    6056:	4631      	mov	r1, r6
    6058:	ed84 0a12 	vstr	s0, [r4, #72]	; 0x48
    605c:	4628      	mov	r0, r5
    605e:	ed9f 0aaa 	vldr	s0, [pc, #680]	; 6308 <confparser_deserialize_tnt_config+0x3d8>
    6062:	f7ff fd1b 	bl	5a9c <buffer_get_float16>
    6066:	4631      	mov	r1, r6
    6068:	ed84 0a13 	vstr	s0, [r4, #76]	; 0x4c
    606c:	4628      	mov	r0, r5
    606e:	ed9f 0aa6 	vldr	s0, [pc, #664]	; 6308 <confparser_deserialize_tnt_config+0x3d8>
    6072:	f7ff fd13 	bl	5a9c <buffer_get_float16>
    6076:	4631      	mov	r1, r6
    6078:	ed84 0a14 	vstr	s0, [r4, #80]	; 0x50
    607c:	4628      	mov	r0, r5
    607e:	ed9f 0aa2 	vldr	s0, [pc, #648]	; 6308 <confparser_deserialize_tnt_config+0x3d8>
    6082:	f7ff fd0b 	bl	5a9c <buffer_get_float16>
    6086:	4631      	mov	r1, r6
    6088:	ed84 0a15 	vstr	s0, [r4, #84]	; 0x54
    608c:	4628      	mov	r0, r5
    608e:	ed9f 0a9e 	vldr	s0, [pc, #632]	; 6308 <confparser_deserialize_tnt_config+0x3d8>
    6092:	f7ff fd03 	bl	5a9c <buffer_get_float16>
    6096:	4631      	mov	r1, r6
    6098:	ed84 0a16 	vstr	s0, [r4, #88]	; 0x58
    609c:	4628      	mov	r0, r5
    609e:	ed9f 0a9a 	vldr	s0, [pc, #616]	; 6308 <confparser_deserialize_tnt_config+0x3d8>
    60a2:	f7ff fcfb 	bl	5a9c <buffer_get_float16>
    60a6:	4631      	mov	r1, r6
    60a8:	ed84 0a17 	vstr	s0, [r4, #92]	; 0x5c
    60ac:	4628      	mov	r0, r5
    60ae:	ed9f 0a96 	vldr	s0, [pc, #600]	; 6308 <confparser_deserialize_tnt_config+0x3d8>
    60b2:	f7ff fcf3 	bl	5a9c <buffer_get_float16>
    60b6:	4631      	mov	r1, r6
    60b8:	ed84 0a18 	vstr	s0, [r4, #96]	; 0x60
    60bc:	4628      	mov	r0, r5
    60be:	ed9f 0a92 	vldr	s0, [pc, #584]	; 6308 <confparser_deserialize_tnt_config+0x3d8>
    60c2:	f7ff fceb 	bl	5a9c <buffer_get_float16>
    60c6:	4631      	mov	r1, r6
    60c8:	ed84 0a19 	vstr	s0, [r4, #100]	; 0x64
    60cc:	4628      	mov	r0, r5
    60ce:	ed9f 0a8e 	vldr	s0, [pc, #568]	; 6308 <confparser_deserialize_tnt_config+0x3d8>
    60d2:	f7ff fce3 	bl	5a9c <buffer_get_float16>
    60d6:	4631      	mov	r1, r6
    60d8:	ed84 0a1a 	vstr	s0, [r4, #104]	; 0x68
    60dc:	4628      	mov	r0, r5
    60de:	ed9f 0a8a 	vldr	s0, [pc, #552]	; 6308 <confparser_deserialize_tnt_config+0x3d8>
    60e2:	f7ff fcdb 	bl	5a9c <buffer_get_float16>
    60e6:	4631      	mov	r1, r6
    60e8:	ed84 0a1b 	vstr	s0, [r4, #108]	; 0x6c
    60ec:	4628      	mov	r0, r5
    60ee:	f7ff fcbb 	bl	5a68 <buffer_get_uint16>
    60f2:	4631      	mov	r1, r6
    60f4:	f8a4 0070 	strh.w	r0, [r4, #112]	; 0x70
    60f8:	eeb2 0a04 	vmov.f32	s0, #36	; 0x41200000  10.0
    60fc:	4628      	mov	r0, r5
    60fe:	f7ff fccd 	bl	5a9c <buffer_get_float16>
    6102:	4631      	mov	r1, r6
    6104:	ed84 0a1d 	vstr	s0, [r4, #116]	; 0x74
    6108:	4628      	mov	r0, r5
    610a:	eeb2 0a04 	vmov.f32	s0, #36	; 0x41200000  10.0
    610e:	f7ff fcc5 	bl	5a9c <buffer_get_float16>
    6112:	4631      	mov	r1, r6
    6114:	ed84 0a1e 	vstr	s0, [r4, #120]	; 0x78
    6118:	4628      	mov	r0, r5
    611a:	ed9f 0a7c 	vldr	s0, [pc, #496]	; 630c <confparser_deserialize_tnt_config+0x3dc>
    611e:	f7ff fcbd 	bl	5a9c <buffer_get_float16>
    6122:	4631      	mov	r1, r6
    6124:	ed84 0a1f 	vstr	s0, [r4, #124]	; 0x7c
    6128:	4628      	mov	r0, r5
    612a:	ed9f 0a78 	vldr	s0, [pc, #480]	; 630c <confparser_deserialize_tnt_config+0x3dc>
    612e:	f7ff fcb5 	bl	5a9c <buffer_get_float16>
    6132:	9b01      	ldr	r3, [sp, #4]
    6134:	ed84 0a20 	vstr	s0, [r4, #128]	; 0x80
    6138:	1c5a      	adds	r2, r3, #1
    613a:	5ceb      	ldrb	r3, [r5, r3]
    613c:	9201      	str	r2, [sp, #4]
    613e:	1bdb      	subs	r3, r3, r7
    6140:	bf18      	it	ne
    6142:	2301      	movne	r3, #1
    6144:	f884 30fa 	strb.w	r3, [r4, #250]	; 0xfa
    6148:	4631      	mov	r1, r6
    614a:	4628      	mov	r0, r5
    614c:	f7ff fc8c 	bl	5a68 <buffer_get_uint16>
    6150:	4631      	mov	r1, r6
    6152:	f8a4 0084 	strh.w	r0, [r4, #132]	; 0x84
    6156:	4628      	mov	r0, r5
    6158:	f7ff fc86 	bl	5a68 <buffer_get_uint16>
    615c:	4631      	mov	r1, r6
    615e:	f8a4 0086 	strh.w	r0, [r4, #134]	; 0x86
    6162:	4628      	mov	r0, r5
    6164:	f7ff fc80 	bl	5a68 <buffer_get_uint16>
    6168:	4631      	mov	r1, r6
    616a:	f8a4 0088 	strh.w	r0, [r4, #136]	; 0x88
    616e:	4628      	mov	r0, r5
    6170:	f7ff fc7a 	bl	5a68 <buffer_get_uint16>
    6174:	4631      	mov	r1, r6
    6176:	f8a4 008a 	strh.w	r0, [r4, #138]	; 0x8a
    617a:	4628      	mov	r0, r5
    617c:	f7ff fc74 	bl	5a68 <buffer_get_uint16>
    6180:	9b01      	ldr	r3, [sp, #4]
    6182:	f8a4 008c 	strh.w	r0, [r4, #140]	; 0x8c
    6186:	5cea      	ldrb	r2, [r5, r3]
    6188:	ed9f 0a5f 	vldr	s0, [pc, #380]	; 6308 <confparser_deserialize_tnt_config+0x3d8>
    618c:	1bd2      	subs	r2, r2, r7
    618e:	bf18      	it	ne
    6190:	2201      	movne	r2, #1
    6192:	f884 208e 	strb.w	r2, [r4, #142]	; 0x8e
    6196:	1c9a      	adds	r2, r3, #2
    6198:	442b      	add	r3, r5
    619a:	4631      	mov	r1, r6
    619c:	785b      	ldrb	r3, [r3, #1]
    619e:	9201      	str	r2, [sp, #4]
    61a0:	1bdb      	subs	r3, r3, r7
    61a2:	bf18      	it	ne
    61a4:	2301      	movne	r3, #1
    61a6:	f884 308f 	strb.w	r3, [r4, #143]	; 0x8f
    61aa:	4628      	mov	r0, r5
    61ac:	f7ff fc76 	bl	5a9c <buffer_get_float16>
    61b0:	4631      	mov	r1, r6
    61b2:	ed84 0a24 	vstr	s0, [r4, #144]	; 0x90
    61b6:	4628      	mov	r0, r5
    61b8:	ed9f 0a53 	vldr	s0, [pc, #332]	; 6308 <confparser_deserialize_tnt_config+0x3d8>
    61bc:	f7ff fc6e 	bl	5a9c <buffer_get_float16>
    61c0:	4631      	mov	r1, r6
    61c2:	ed84 0a25 	vstr	s0, [r4, #148]	; 0x94
    61c6:	4628      	mov	r0, r5
    61c8:	ed9f 0a50 	vldr	s0, [pc, #320]	; 630c <confparser_deserialize_tnt_config+0x3dc>
    61cc:	f7ff fc66 	bl	5a9c <buffer_get_float16>
    61d0:	9b01      	ldr	r3, [sp, #4]
    61d2:	ed84 0a26 	vstr	s0, [r4, #152]	; 0x98
    61d6:	1c5a      	adds	r2, r3, #1
    61d8:	5ceb      	ldrb	r3, [r5, r3]
    61da:	ed9f 0a4b 	vldr	s0, [pc, #300]	; 6308 <confparser_deserialize_tnt_config+0x3d8>
    61de:	9201      	str	r2, [sp, #4]
    61e0:	1bdb      	subs	r3, r3, r7
    61e2:	bf18      	it	ne
    61e4:	2301      	movne	r3, #1
    61e6:	f884 30f9 	strb.w	r3, [r4, #249]	; 0xf9
    61ea:	4631      	mov	r1, r6
    61ec:	4628      	mov	r0, r5
    61ee:	f7ff fc55 	bl	5a9c <buffer_get_float16>
    61f2:	4631      	mov	r1, r6
    61f4:	ed84 0a27 	vstr	s0, [r4, #156]	; 0x9c
    61f8:	4628      	mov	r0, r5
    61fa:	ed9f 0a43 	vldr	s0, [pc, #268]	; 6308 <confparser_deserialize_tnt_config+0x3d8>
    61fe:	f7ff fc4d 	bl	5a9c <buffer_get_float16>
    6202:	4631      	mov	r1, r6
    6204:	ed84 0a28 	vstr	s0, [r4, #160]	; 0xa0
    6208:	4628      	mov	r0, r5
    620a:	eeb2 0a04 	vmov.f32	s0, #36	; 0x41200000  10.0
    620e:	f7ff fc45 	bl	5a9c <buffer_get_float16>
    6212:	4631      	mov	r1, r6
    6214:	ed84 0a29 	vstr	s0, [r4, #164]	; 0xa4
    6218:	4628      	mov	r0, r5
    621a:	ed9f 0a3b 	vldr	s0, [pc, #236]	; 6308 <confparser_deserialize_tnt_config+0x3d8>
    621e:	f7ff fc3d 	bl	5a9c <buffer_get_float16>
    6222:	4631      	mov	r1, r6
    6224:	ed84 0a2a 	vstr	s0, [r4, #168]	; 0xa8
    6228:	4628      	mov	r0, r5
    622a:	ed9f 0a37 	vldr	s0, [pc, #220]	; 6308 <confparser_deserialize_tnt_config+0x3d8>
    622e:	f7ff fc35 	bl	5a9c <buffer_get_float16>
    6232:	4631      	mov	r1, r6
    6234:	ed84 0a2b 	vstr	s0, [r4, #172]	; 0xac
    6238:	4628      	mov	r0, r5
    623a:	eeb2 0a04 	vmov.f32	s0, #36	; 0x41200000  10.0
    623e:	f7ff fc2d 	bl	5a9c <buffer_get_float16>
    6242:	4631      	mov	r1, r6
    6244:	ed84 0a2c 	vstr	s0, [r4, #176]	; 0xb0
    6248:	4628      	mov	r0, r5
    624a:	ed9f 0a2f 	vldr	s0, [pc, #188]	; 6308 <confparser_deserialize_tnt_config+0x3d8>
    624e:	f7ff fc25 	bl	5a9c <buffer_get_float16>
    6252:	4631      	mov	r1, r6
    6254:	ed84 0a2d 	vstr	s0, [r4, #180]	; 0xb4
    6258:	4628      	mov	r0, r5
    625a:	ed9f 0a2c 	vldr	s0, [pc, #176]	; 630c <confparser_deserialize_tnt_config+0x3dc>
    625e:	f7ff fc1d 	bl	5a9c <buffer_get_float16>
    6262:	4631      	mov	r1, r6
    6264:	ed84 0a2e 	vstr	s0, [r4, #184]	; 0xb8
    6268:	4628      	mov	r0, r5
    626a:	f7ff fbfd 	bl	5a68 <buffer_get_uint16>
    626e:	4631      	mov	r1, r6
    6270:	f8a4 00bc 	strh.w	r0, [r4, #188]	; 0xbc
    6274:	ed9f 0a24 	vldr	s0, [pc, #144]	; 6308 <confparser_deserialize_tnt_config+0x3d8>
    6278:	4628      	mov	r0, r5
    627a:	f7ff fc0f 	bl	5a9c <buffer_get_float16>
    627e:	9b01      	ldr	r3, [sp, #4]
    6280:	ed84 0a37 	vstr	s0, [r4, #220]	; 0xdc
    6284:	1c5a      	adds	r2, r3, #1
    6286:	5ceb      	ldrb	r3, [r5, r3]
    6288:	f884 30be 	strb.w	r3, [r4, #190]	; 0xbe
    628c:	4631      	mov	r1, r6
    628e:	4628      	mov	r0, r5
    6290:	ed9f 0a1d 	vldr	s0, [pc, #116]	; 6308 <confparser_deserialize_tnt_config+0x3d8>
    6294:	9201      	str	r2, [sp, #4]
    6296:	f7ff fc01 	bl	5a9c <buffer_get_float16>
    629a:	4631      	mov	r1, r6
    629c:	ed84 0a31 	vstr	s0, [r4, #196]	; 0xc4
    62a0:	4628      	mov	r0, r5
    62a2:	ed9f 0a19 	vldr	s0, [pc, #100]	; 6308 <confparser_deserialize_tnt_config+0x3d8>
    62a6:	f7ff fbf9 	bl	5a9c <buffer_get_float16>
    62aa:	9b01      	ldr	r3, [sp, #4]
    62ac:	ed84 0a30 	vstr	s0, [r4, #192]	; 0xc0
    62b0:	5cea      	ldrb	r2, [r5, r3]
    62b2:	f8a4 20c8 	strh.w	r2, [r4, #200]	; 0xc8
    62b6:	1c9a      	adds	r2, r3, #2
    62b8:	442b      	add	r3, r5
    62ba:	4631      	mov	r1, r6
    62bc:	785b      	ldrb	r3, [r3, #1]
    62be:	ed9f 0a11 	vldr	s0, [pc, #68]	; 6304 <confparser_deserialize_tnt_config+0x3d4>
    62c2:	9201      	str	r2, [sp, #4]
    62c4:	1bdb      	subs	r3, r3, r7
    62c6:	bf18      	it	ne
    62c8:	2301      	movne	r3, #1
    62ca:	f884 30ca 	strb.w	r3, [r4, #202]	; 0xca
    62ce:	4628      	mov	r0, r5
    62d0:	f7ff fbe4 	bl	5a9c <buffer_get_float16>
    62d4:	4631      	mov	r1, r6
    62d6:	ed84 0a33 	vstr	s0, [r4, #204]	; 0xcc
    62da:	4628      	mov	r0, r5
    62dc:	eeb2 0a04 	vmov.f32	s0, #36	; 0x41200000  10.0
    62e0:	f7ff fbdc 	bl	5a9c <buffer_get_float16>
    62e4:	4631      	mov	r1, r6
    62e6:	ed84 0a34 	vstr	s0, [r4, #208]	; 0xd0
    62ea:	4628      	mov	r0, r5
    62ec:	eeb2 0a04 	vmov.f32	s0, #36	; 0x41200000  10.0
    62f0:	f7ff fbd4 	bl	5a9c <buffer_get_float16>
    62f4:	9b01      	ldr	r3, [sp, #4]
    62f6:	ed84 0a35 	vstr	s0, [r4, #212]	; 0xd4
    62fa:	1c5a      	adds	r2, r3, #1
    62fc:	e008      	b.n	6310 <confparser_deserialize_tnt_config+0x3e0>
    62fe:	bf00      	nop
    6300:	963d893c 			; <UNDEFINED> instruction: 0x963d893c
    6304:	461c4000 	ldrmi	r4, [ip], -r0
    6308:	42c80000 	sbcmi	r0, r8, #0
    630c:	447a0000 	ldrbtmi	r0, [sl], #-0
    6310:	5ceb      	ldrb	r3, [r5, r3]
    6312:	ed1f 0a03 	vldr	s0, [pc, #-12]	; 6308 <confparser_deserialize_tnt_config+0x3d8>
    6316:	9201      	str	r2, [sp, #4]
    6318:	1bdb      	subs	r3, r3, r7
    631a:	bf18      	it	ne
    631c:	2301      	movne	r3, #1
    631e:	f884 30d8 	strb.w	r3, [r4, #216]	; 0xd8
    6322:	4631      	mov	r1, r6
    6324:	4628      	mov	r0, r5
    6326:	f7ff fbb9 	bl	5a9c <buffer_get_float16>
    632a:	4631      	mov	r1, r6
    632c:	ed84 0a38 	vstr	s0, [r4, #224]	; 0xe0
    6330:	4628      	mov	r0, r5
    6332:	ed1f 0a0b 	vldr	s0, [pc, #-44]	; 6308 <confparser_deserialize_tnt_config+0x3d8>
    6336:	f7ff fbb1 	bl	5a9c <buffer_get_float16>
    633a:	4631      	mov	r1, r6
    633c:	ed84 0a39 	vstr	s0, [r4, #228]	; 0xe4
    6340:	4628      	mov	r0, r5
    6342:	ed1f 0a0f 	vldr	s0, [pc, #-60]	; 6308 <confparser_deserialize_tnt_config+0x3d8>
    6346:	f7ff fba9 	bl	5a9c <buffer_get_float16>
    634a:	9b01      	ldr	r3, [sp, #4]
    634c:	ed84 0a3a 	vstr	s0, [r4, #232]	; 0xe8
    6350:	5cea      	ldrb	r2, [r5, r3]
    6352:	ed1f 0a13 	vldr	s0, [pc, #-76]	; 6308 <confparser_deserialize_tnt_config+0x3d8>
    6356:	ee07 2a90 	vmov	s15, r2
    635a:	eef8 7a67 	vcvt.f32.u32	s15, s15
    635e:	18ea      	adds	r2, r5, r3
    6360:	edc4 7a3b 	vstr	s15, [r4, #236]	; 0xec
    6364:	7851      	ldrb	r1, [r2, #1]
    6366:	1bc9      	subs	r1, r1, r7
    6368:	bf18      	it	ne
    636a:	2101      	movne	r1, #1
    636c:	f884 10f0 	strb.w	r1, [r4, #240]	; 0xf0
    6370:	7891      	ldrb	r1, [r2, #2]
    6372:	1bc9      	subs	r1, r1, r7
    6374:	bf18      	it	ne
    6376:	2101      	movne	r1, #1
    6378:	f884 10f1 	strb.w	r1, [r4, #241]	; 0xf1
    637c:	3304      	adds	r3, #4
    637e:	9301      	str	r3, [sp, #4]
    6380:	78d3      	ldrb	r3, [r2, #3]
    6382:	1bdb      	subs	r3, r3, r7
    6384:	bf18      	it	ne
    6386:	2301      	movne	r3, #1
    6388:	f884 30f2 	strb.w	r3, [r4, #242]	; 0xf2
    638c:	4631      	mov	r1, r6
    638e:	4628      	mov	r0, r5
    6390:	f7ff fb84 	bl	5a9c <buffer_get_float16>
    6394:	9b01      	ldr	r3, [sp, #4]
    6396:	ed84 0a3d 	vstr	s0, [r4, #244]	; 0xf4
    639a:	5cea      	ldrb	r2, [r5, r3]
    639c:	ed1f 0a25 	vldr	s0, [pc, #-148]	; 630c <confparser_deserialize_tnt_config+0x3dc>
    63a0:	1bd2      	subs	r2, r2, r7
    63a2:	bf18      	it	ne
    63a4:	2201      	movne	r2, #1
    63a6:	f884 20f8 	strb.w	r2, [r4, #248]	; 0xf8
    63aa:	1c9a      	adds	r2, r3, #2
    63ac:	442b      	add	r3, r5
    63ae:	4628      	mov	r0, r5
    63b0:	785b      	ldrb	r3, [r3, #1]
    63b2:	9201      	str	r2, [sp, #4]
    63b4:	ee07 3a90 	vmov	s15, r3
    63b8:	eef8 7a67 	vcvt.f32.u32	s15, s15
    63bc:	4631      	mov	r1, r6
    63be:	edc4 7a01 	vstr	s15, [r4, #4]
    63c2:	f7ff fb6b 	bl	5a9c <buffer_get_float16>
    63c6:	2001      	movs	r0, #1
    63c8:	ed84 0a00 	vstr	s0, [r4]
    63cc:	b003      	add	sp, #12
    63ce:	bdf0      	pop	{r4, r5, r6, r7, pc}
    63d0:	4638      	mov	r0, r7
    63d2:	e7fb      	b.n	63cc <confparser_deserialize_tnt_config+0x49c>

Disassembly of section .text.confparser_set_defaults_tnt_config:

000063d4 <confparser_set_defaults_tnt_config>:
    63d4:	f04f 4180 	mov.w	r1, #1073741824	; 0x40000000
    63d8:	62c1      	str	r1, [r0, #44]	; 0x2c
    63da:	f04f 517c 	mov.w	r1, #1056964608	; 0x3f000000
    63de:	6301      	str	r1, [r0, #48]	; 0x30
    63e0:	4945      	ldr	r1, [pc, #276]	; (64f8 <confparser_set_defaults_tnt_config+0x124>)
    63e2:	6341      	str	r1, [r0, #52]	; 0x34
    63e4:	4945      	ldr	r1, [pc, #276]	; (64fc <confparser_set_defaults_tnt_config+0x128>)
    63e6:	6381      	str	r1, [r0, #56]	; 0x38
    63e8:	4945      	ldr	r1, [pc, #276]	; (6500 <confparser_set_defaults_tnt_config+0x12c>)
    63ea:	63c1      	str	r1, [r0, #60]	; 0x3c
    63ec:	4945      	ldr	r1, [pc, #276]	; (6504 <confparser_set_defaults_tnt_config+0x130>)
    63ee:	4b46      	ldr	r3, [pc, #280]	; (6508 <confparser_set_defaults_tnt_config+0x134>)
    63f0:	6441      	str	r1, [r0, #68]	; 0x44
    63f2:	b5f0      	push	{r4, r5, r6, r7, lr}
    63f4:	65c1      	str	r1, [r0, #92]	; 0x5c
    63f6:	f8df e134 	ldr.w	lr, [pc, #308]	; 652c <confparser_set_defaults_tnt_config+0x158>
    63fa:	4a44      	ldr	r2, [pc, #272]	; (650c <confparser_set_defaults_tnt_config+0x138>)
    63fc:	4f44      	ldr	r7, [pc, #272]	; (6510 <confparser_set_defaults_tnt_config+0x13c>)
    63fe:	4e45      	ldr	r6, [pc, #276]	; (6514 <confparser_set_defaults_tnt_config+0x140>)
    6400:	60c3      	str	r3, [r0, #12]
    6402:	f44f 7150 	mov.w	r1, #832	; 0x340
    6406:	2300      	movs	r3, #0
    6408:	f04f 547e 	mov.w	r4, #1065353216	; 0x3f800000
    640c:	2501      	movs	r5, #1
    640e:	f8a0 1070 	strh.w	r1, [r0, #112]	; 0x70
    6412:	f04f 1cfa 	mov.w	ip, #16384250	; 0xfa00fa
    6416:	2100      	movs	r1, #0
    6418:	6082      	str	r2, [r0, #8]
    641a:	64c2      	str	r2, [r0, #76]	; 0x4c
    641c:	6507      	str	r7, [r0, #80]	; 0x50
    641e:	6642      	str	r2, [r0, #100]	; 0x64
    6420:	6687      	str	r7, [r0, #104]	; 0x68
    6422:	f8c0 20dc 	str.w	r2, [r0, #220]	; 0xdc
    6426:	6746      	str	r6, [r0, #116]	; 0x74
    6428:	6103      	str	r3, [r0, #16]
    642a:	6143      	str	r3, [r0, #20]
    642c:	6183      	str	r3, [r0, #24]
    642e:	61c4      	str	r4, [r0, #28]
    6430:	6203      	str	r3, [r0, #32]
    6432:	6243      	str	r3, [r0, #36]	; 0x24
    6434:	6283      	str	r3, [r0, #40]	; 0x28
    6436:	6403      	str	r3, [r0, #64]	; 0x40
    6438:	6483      	str	r3, [r0, #72]	; 0x48
    643a:	6543      	str	r3, [r0, #84]	; 0x54
    643c:	6583      	str	r3, [r0, #88]	; 0x58
    643e:	6603      	str	r3, [r0, #96]	; 0x60
    6440:	66c3      	str	r3, [r0, #108]	; 0x6c
    6442:	f880 50fa 	strb.w	r5, [r0, #250]	; 0xfa
    6446:	f880 10f9 	strb.w	r1, [r0, #249]	; 0xf9
    644a:	6786      	str	r6, [r0, #120]	; 0x78
    644c:	e9c0 ec21 	strd	lr, ip, [r0, #132]	; 0x84
    6450:	f44f 7c96 	mov.w	ip, #300	; 0x12c
    6454:	f8c0 c08c 	str.w	ip, [r0, #140]	; 0x8c
    6458:	f8df c0d4 	ldr.w	ip, [pc, #212]	; 6530 <confparser_set_defaults_tnt_config+0x15c>
    645c:	f8c0 c098 	str.w	ip, [r0, #152]	; 0x98
    6460:	f04f 4c82 	mov.w	ip, #1090519040	; 0x41000000
    6464:	4e2c      	ldr	r6, [pc, #176]	; (6518 <confparser_set_defaults_tnt_config+0x144>)
    6466:	f8c0 c09c 	str.w	ip, [r0, #156]	; 0x9c
    646a:	f8c0 70a8 	str.w	r7, [r0, #168]	; 0xa8
    646e:	f8df c0c4 	ldr.w	ip, [pc, #196]	; 6534 <confparser_set_defaults_tnt_config+0x160>
    6472:	f8c0 70c4 	str.w	r7, [r0, #196]	; 0xc4
    6476:	4f29      	ldr	r7, [pc, #164]	; (651c <confparser_set_defaults_tnt_config+0x148>)
    6478:	67c6      	str	r6, [r0, #124]	; 0x7c
    647a:	f8c0 6080 	str.w	r6, [r0, #128]	; 0x80
    647e:	f8c0 2090 	str.w	r2, [r0, #144]	; 0x90
    6482:	f8c0 6094 	str.w	r6, [r0, #148]	; 0x94
    6486:	f8c0 c0a4 	str.w	ip, [r0, #164]	; 0xa4
    648a:	f8c0 20b4 	str.w	r2, [r0, #180]	; 0xb4
    648e:	f8df c0a8 	ldr.w	ip, [pc, #168]	; 6538 <confparser_set_defaults_tnt_config+0x164>
    6492:	f8c0 70c0 	str.w	r7, [r0, #192]	; 0xc0
    6496:	f8c0 60d0 	str.w	r6, [r0, #208]	; 0xd0
    649a:	f8c0 20e0 	str.w	r2, [r0, #224]	; 0xe0
    649e:	4e20      	ldr	r6, [pc, #128]	; (6520 <confparser_set_defaults_tnt_config+0x14c>)
    64a0:	4f20      	ldr	r7, [pc, #128]	; (6524 <confparser_set_defaults_tnt_config+0x150>)
    64a2:	4a21      	ldr	r2, [pc, #132]	; (6528 <confparser_set_defaults_tnt_config+0x154>)
    64a4:	f8c0 40a0 	str.w	r4, [r0, #160]	; 0xa0
    64a8:	f44f 7efa 	mov.w	lr, #500	; 0x1f4
    64ac:	f8c0 40ac 	str.w	r4, [r0, #172]	; 0xac
    64b0:	f8c0 c0b0 	str.w	ip, [r0, #176]	; 0xb0
    64b4:	f8c0 30b8 	str.w	r3, [r0, #184]	; 0xb8
    64b8:	f8a0 e0bc 	strh.w	lr, [r0, #188]	; 0xbc
    64bc:	f880 10be 	strb.w	r1, [r0, #190]	; 0xbe
    64c0:	f8a0 50c8 	strh.w	r5, [r0, #200]	; 0xc8
    64c4:	f880 50ca 	strb.w	r5, [r0, #202]	; 0xca
    64c8:	f8c0 70cc 	str.w	r7, [r0, #204]	; 0xcc
    64cc:	f8c0 60d4 	str.w	r6, [r0, #212]	; 0xd4
    64d0:	f880 50d8 	strb.w	r5, [r0, #216]	; 0xd8
    64d4:	f8c0 c0e4 	str.w	ip, [r0, #228]	; 0xe4
    64d8:	f8c0 20e8 	str.w	r2, [r0, #232]	; 0xe8
    64dc:	f8c0 30ec 	str.w	r3, [r0, #236]	; 0xec
    64e0:	f8a0 10f0 	strh.w	r1, [r0, #240]	; 0xf0
    64e4:	f880 10f2 	strb.w	r1, [r0, #242]	; 0xf2
    64e8:	f8c0 60f4 	str.w	r6, [r0, #244]	; 0xf4
    64ec:	f880 10f8 	strb.w	r1, [r0, #248]	; 0xf8
    64f0:	6043      	str	r3, [r0, #4]
    64f2:	6004      	str	r4, [r0, #0]
    64f4:	bdf0      	pop	{r4, r5, r6, r7, pc}
    64f6:	bf00      	nop
    64f8:	3b9a0275 	blcc	fe686ed4 <memset+0xfe67fb60>
    64fc:	3da3d70a 	stccc	7, cr13, [r3, #40]!	; 0x28
    6500:	3f666666 	svccc	0x00666666
    6504:	3e99999a 			; <UNDEFINED> instruction: 0x3e99999a
    6508:	41a00000 	movmi	r0, r0
    650c:	40a00000 	adcmi	r0, r0, r0
    6510:	41200000 			; <UNDEFINED> instruction: 0x41200000
    6514:	42b40000 	adcsmi	r0, r4, #0
    6518:	40400000 	submi	r0, r0, r0
    651c:	41c80000 	bicmi	r0, r8, r0
    6520:	40c00000 	sbcmi	r0, r0, r0
    6524:	3dcccccd 	stclcc	12, cr12, [ip, #820]	; 0x334
    6528:	42700000 	rsbsmi	r0, r0, #0
    652c:	03e803e8 	mvneq	r0, #232, 6	; 0xa0000003
    6530:	3f4ccccd 	svccc	0x004ccccd
    6534:	42810000 	addmi	r0, r1, #0
    6538:	42340000 	eorsmi	r0, r4, #0

Disassembly of section .text.roundf:

0000653c <roundf>:
    653c:	ee10 3a10 	vmov	r3, s0
    6540:	f3c3 52c7 	ubfx	r2, r3, #23, #8
    6544:	3a7f      	subs	r2, #127	; 0x7f
    6546:	2a16      	cmp	r2, #22
    6548:	4619      	mov	r1, r3
    654a:	dc15      	bgt.n	6578 <roundf+0x3c>
    654c:	2a00      	cmp	r2, #0
    654e:	db0c      	blt.n	656a <roundf+0x2e>
    6550:	480c      	ldr	r0, [pc, #48]	; (6584 <roundf+0x48>)
    6552:	4110      	asrs	r0, r2
    6554:	4218      	tst	r0, r3
    6556:	d005      	beq.n	6564 <roundf+0x28>
    6558:	f44f 0380 	mov.w	r3, #4194304	; 0x400000
    655c:	4113      	asrs	r3, r2
    655e:	440b      	add	r3, r1
    6560:	ea23 0300 	bic.w	r3, r3, r0
    6564:	ee00 3a10 	vmov	s0, r3
    6568:	4770      	bx	lr
    656a:	3201      	adds	r2, #1
    656c:	f003 4300 	and.w	r3, r3, #2147483648	; 0x80000000
    6570:	d1f8      	bne.n	6564 <roundf+0x28>
    6572:	f043 537e 	orr.w	r3, r3, #1065353216	; 0x3f800000
    6576:	e7f5      	b.n	6564 <roundf+0x28>
    6578:	2a80      	cmp	r2, #128	; 0x80
    657a:	d1f3      	bne.n	6564 <roundf+0x28>
    657c:	ee30 0a00 	vadd.f32	s0, s0, s0
    6580:	4770      	bx	lr
    6582:	bf00      	nop
    6584:	007fffff 	ldrshteq	pc, [pc], #-255	; <UNPREDICTABLE>

Disassembly of section .text.cosf:

00006588 <cosf>:
    6588:	ee10 3a10 	vmov	r3, s0
    658c:	4918      	ldr	r1, [pc, #96]	; (65f0 <cosf+0x68>)
    658e:	f023 4200 	bic.w	r2, r3, #2147483648	; 0x80000000
    6592:	428a      	cmp	r2, r1
    6594:	d91b      	bls.n	65ce <cosf+0x46>
    6596:	f1b2 4fff 	cmp.w	r2, #2139095040	; 0x7f800000
    659a:	d302      	bcc.n	65a2 <cosf+0x1a>
    659c:	ee30 0a40 	vsub.f32	s0, s0, s0
    65a0:	4770      	bx	lr
    65a2:	b500      	push	{lr}
    65a4:	b083      	sub	sp, #12
    65a6:	4668      	mov	r0, sp
    65a8:	f000 f9dc 	bl	6964 <__ieee754_rem_pio2f>
    65ac:	f000 0003 	and.w	r0, r0, #3
    65b0:	2801      	cmp	r0, #1
    65b2:	eddd 0a01 	vldr	s1, [sp, #4]
    65b6:	ed9d 0a00 	vldr	s0, [sp]
    65ba:	d00c      	beq.n	65d6 <cosf+0x4e>
    65bc:	2802      	cmp	r0, #2
    65be:	d012      	beq.n	65e6 <cosf+0x5e>
    65c0:	b170      	cbz	r0, 65e0 <cosf+0x58>
    65c2:	2001      	movs	r0, #1
    65c4:	f000 fafe 	bl	6bc4 <__kernel_sinf>
    65c8:	b003      	add	sp, #12
    65ca:	f85d fb04 	ldr.w	pc, [sp], #4
    65ce:	eddf 0a09 	vldr	s1, [pc, #36]	; 65f4 <cosf+0x6c>
    65d2:	f000 b945 	b.w	6860 <__kernel_cosf>
    65d6:	f000 faf5 	bl	6bc4 <__kernel_sinf>
    65da:	eeb1 0a40 	vneg.f32	s0, s0
    65de:	e7f3      	b.n	65c8 <cosf+0x40>
    65e0:	f000 f93e 	bl	6860 <__kernel_cosf>
    65e4:	e7f0      	b.n	65c8 <cosf+0x40>
    65e6:	f000 f93b 	bl	6860 <__kernel_cosf>
    65ea:	eeb1 0a40 	vneg.f32	s0, s0
    65ee:	e7eb      	b.n	65c8 <cosf+0x40>
    65f0:	3f490fd8 	svccc	0x00490fd8
    65f4:	00000000 	andeq	r0, r0, r0

Disassembly of section .text.frexpf:

000065f8 <frexpf>:
    65f8:	ee10 3a10 	vmov	r3, s0
    65fc:	b410      	push	{r4}
    65fe:	f023 4200 	bic.w	r2, r3, #2147483648	; 0x80000000
    6602:	4c13      	ldr	r4, [pc, #76]	; (6650 <frexpf+0x58>)
    6604:	f102 3cff 	add.w	ip, r2, #4294967295	; 0xffffffff
    6608:	45a4      	cmp	ip, r4
    660a:	d21c      	bcs.n	6646 <frexpf+0x4e>
    660c:	f013 4fff 	tst.w	r3, #2139095040	; 0x7f800000
    6610:	4619      	mov	r1, r3
    6612:	d00d      	beq.n	6630 <frexpf+0x38>
    6614:	2400      	movs	r4, #0
    6616:	15d2      	asrs	r2, r2, #23
    6618:	3a7e      	subs	r2, #126	; 0x7e
    661a:	f021 41ff 	bic.w	r1, r1, #2139095040	; 0x7f800000
    661e:	4422      	add	r2, r4
    6620:	f041 537c 	orr.w	r3, r1, #1056964608	; 0x3f000000
    6624:	ee00 3a10 	vmov	s0, r3
    6628:	f85d 4b04 	ldr.w	r4, [sp], #4
    662c:	6002      	str	r2, [r0, #0]
    662e:	4770      	bx	lr
    6630:	eddf 7a08 	vldr	s15, [pc, #32]	; 6654 <frexpf+0x5c>
    6634:	ee60 7a27 	vmul.f32	s15, s0, s15
    6638:	f06f 0418 	mvn.w	r4, #24
    663c:	ee17 1a90 	vmov	r1, s15
    6640:	f021 4200 	bic.w	r2, r1, #2147483648	; 0x80000000
    6644:	e7e7      	b.n	6616 <frexpf+0x1e>
    6646:	2200      	movs	r2, #0
    6648:	f85d 4b04 	ldr.w	r4, [sp], #4
    664c:	6002      	str	r2, [r0, #0]
    664e:	4770      	bx	lr
    6650:	7f7fffff 	svcvc	0x007fffff
    6654:	4c000000 	stcmi	0, cr0, [r0], {-0}

Disassembly of section .text.sinf:

00006658 <sinf>:
    6658:	ee10 3a10 	vmov	r3, s0
    665c:	4919      	ldr	r1, [pc, #100]	; (66c4 <sinf+0x6c>)
    665e:	f023 4200 	bic.w	r2, r3, #2147483648	; 0x80000000
    6662:	428a      	cmp	r2, r1
    6664:	d91c      	bls.n	66a0 <sinf+0x48>
    6666:	f1b2 4fff 	cmp.w	r2, #2139095040	; 0x7f800000
    666a:	d302      	bcc.n	6672 <sinf+0x1a>
    666c:	ee30 0a40 	vsub.f32	s0, s0, s0
    6670:	4770      	bx	lr
    6672:	b500      	push	{lr}
    6674:	b083      	sub	sp, #12
    6676:	4668      	mov	r0, sp
    6678:	f000 f974 	bl	6964 <__ieee754_rem_pio2f>
    667c:	f000 0003 	and.w	r0, r0, #3
    6680:	2801      	cmp	r0, #1
    6682:	eddd 0a01 	vldr	s1, [sp, #4]
    6686:	ed9d 0a00 	vldr	s0, [sp]
    668a:	d00e      	beq.n	66aa <sinf+0x52>
    668c:	2802      	cmp	r0, #2
    668e:	d013      	beq.n	66b8 <sinf+0x60>
    6690:	b170      	cbz	r0, 66b0 <sinf+0x58>
    6692:	f000 f8e5 	bl	6860 <__kernel_cosf>
    6696:	eeb1 0a40 	vneg.f32	s0, s0
    669a:	b003      	add	sp, #12
    669c:	f85d fb04 	ldr.w	pc, [sp], #4
    66a0:	eddf 0a09 	vldr	s1, [pc, #36]	; 66c8 <sinf+0x70>
    66a4:	2000      	movs	r0, #0
    66a6:	f000 ba8d 	b.w	6bc4 <__kernel_sinf>
    66aa:	f000 f8d9 	bl	6860 <__kernel_cosf>
    66ae:	e7f4      	b.n	669a <sinf+0x42>
    66b0:	2001      	movs	r0, #1
    66b2:	f000 fa87 	bl	6bc4 <__kernel_sinf>
    66b6:	e7f0      	b.n	669a <sinf+0x42>
    66b8:	2001      	movs	r0, #1
    66ba:	f000 fa83 	bl	6bc4 <__kernel_sinf>
    66be:	eeb1 0a40 	vneg.f32	s0, s0
    66c2:	e7ea      	b.n	669a <sinf+0x42>
    66c4:	3f490fd8 	svccc	0x00490fd8
    66c8:	00000000 	andeq	r0, r0, r0

Disassembly of section .text.fmaxf:

000066cc <fmaxf>:
    66cc:	b508      	push	{r3, lr}
    66ce:	ed2d 8b02 	vpush	{d8}
    66d2:	eef0 8a40 	vmov.f32	s17, s0
    66d6:	eeb0 8a60 	vmov.f32	s16, s1
    66da:	f000 f8a5 	bl	6828 <__fpclassifyf>
    66de:	b920      	cbnz	r0, 66ea <fmaxf+0x1e>
    66e0:	eeb0 0a48 	vmov.f32	s0, s16
    66e4:	ecbd 8b02 	vpop	{d8}
    66e8:	bd08      	pop	{r3, pc}
    66ea:	eeb0 0a48 	vmov.f32	s0, s16
    66ee:	f000 f89b 	bl	6828 <__fpclassifyf>
    66f2:	b120      	cbz	r0, 66fe <fmaxf+0x32>
    66f4:	eef4 8ac8 	vcmpe.f32	s17, s16
    66f8:	eef1 fa10 	vmrs	APSR_nzcv, fpscr
    66fc:	ddf0      	ble.n	66e0 <fmaxf+0x14>
    66fe:	eeb0 0a68 	vmov.f32	s0, s17
    6702:	ecbd 8b02 	vpop	{d8}
    6706:	bd08      	pop	{r3, pc}

Disassembly of section .text.fminf:

00006708 <fminf>:
    6708:	b508      	push	{r3, lr}
    670a:	ed2d 8b02 	vpush	{d8}
    670e:	eef0 8a40 	vmov.f32	s17, s0
    6712:	eeb0 8a60 	vmov.f32	s16, s1
    6716:	f000 f887 	bl	6828 <__fpclassifyf>
    671a:	b920      	cbnz	r0, 6726 <fminf+0x1e>
    671c:	eeb0 0a48 	vmov.f32	s0, s16
    6720:	ecbd 8b02 	vpop	{d8}
    6724:	bd08      	pop	{r3, pc}
    6726:	eeb0 0a48 	vmov.f32	s0, s16
    672a:	f000 f87d 	bl	6828 <__fpclassifyf>
    672e:	b120      	cbz	r0, 673a <fminf+0x32>
    6730:	eef4 8ac8 	vcmpe.f32	s17, s16
    6734:	eef1 fa10 	vmrs	APSR_nzcv, fpscr
    6738:	d5f0      	bpl.n	671c <fminf+0x14>
    673a:	eeb0 0a68 	vmov.f32	s0, s17
    673e:	ecbd 8b02 	vpop	{d8}
    6742:	bd08      	pop	{r3, pc}

Disassembly of section .text.scalbnf:

00006744 <scalbnf>:
    6744:	ee10 3a10 	vmov	r3, s0
    6748:	f033 4100 	bics.w	r1, r3, #2147483648	; 0x80000000
    674c:	461a      	mov	r2, r3
    674e:	d027      	beq.n	67a0 <scalbnf+0x5c>
    6750:	f1b1 4fff 	cmp.w	r1, #2139095040	; 0x7f800000
    6754:	d221      	bcs.n	679a <scalbnf+0x56>
    6756:	f013 4fff 	tst.w	r3, #2139095040	; 0x7f800000
    675a:	d122      	bne.n	67a2 <scalbnf+0x5e>
    675c:	eddf 7a2b 	vldr	s15, [pc, #172]	; 680c <scalbnf+0xc8>
    6760:	4a2b      	ldr	r2, [pc, #172]	; (6810 <scalbnf+0xcc>)
    6762:	ee60 7a27 	vmul.f32	s15, s0, s15
    6766:	4290      	cmp	r0, r2
    6768:	ee17 3a90 	vmov	r3, s15
    676c:	db33      	blt.n	67d6 <scalbnf+0x92>
    676e:	f24c 3c50 	movw	ip, #50000	; 0xc350
    6772:	f3c3 51c7 	ubfx	r1, r3, #23, #8
    6776:	4560      	cmp	r0, ip
    6778:	461a      	mov	r2, r3
    677a:	f1a1 0119 	sub.w	r1, r1, #25
    677e:	dd16      	ble.n	67ae <scalbnf+0x6a>
    6780:	eddf 7a24 	vldr	s15, [pc, #144]	; 6814 <scalbnf+0xd0>
    6784:	eddf 6a24 	vldr	s13, [pc, #144]	; 6818 <scalbnf+0xd4>
    6788:	2b00      	cmp	r3, #0
    678a:	eeb0 7a67 	vmov.f32	s14, s15
    678e:	bfb8      	it	lt
    6790:	eef0 7a66 	vmovlt.f32	s15, s13
    6794:	ee27 0a87 	vmul.f32	s0, s15, s14
    6798:	4770      	bx	lr
    679a:	ee30 0a00 	vadd.f32	s0, s0, s0
    679e:	4770      	bx	lr
    67a0:	4770      	bx	lr
    67a2:	f24c 3c50 	movw	ip, #50000	; 0xc350
    67a6:	4560      	cmp	r0, ip
    67a8:	ea4f 51d1 	mov.w	r1, r1, lsr #23
    67ac:	dce8      	bgt.n	6780 <scalbnf+0x3c>
    67ae:	4401      	add	r1, r0
    67b0:	29fe      	cmp	r1, #254	; 0xfe
    67b2:	dce5      	bgt.n	6780 <scalbnf+0x3c>
    67b4:	2900      	cmp	r1, #0
    67b6:	dc15      	bgt.n	67e4 <scalbnf+0xa0>
    67b8:	f111 0f16 	cmn.w	r1, #22
    67bc:	db19      	blt.n	67f2 <scalbnf+0xae>
    67be:	3119      	adds	r1, #25
    67c0:	f022 42ff 	bic.w	r2, r2, #2139095040	; 0x7f800000
    67c4:	ea42 52c1 	orr.w	r2, r2, r1, lsl #23
    67c8:	ee07 2a90 	vmov	s15, r2
    67cc:	ed9f 0a13 	vldr	s0, [pc, #76]	; 681c <scalbnf+0xd8>
    67d0:	ee27 0a80 	vmul.f32	s0, s15, s0
    67d4:	4770      	bx	lr
    67d6:	eddf 7a12 	vldr	s15, [pc, #72]	; 6820 <scalbnf+0xdc>
    67da:	ee07 3a10 	vmov	s14, r3
    67de:	ee27 0a27 	vmul.f32	s0, s14, s15
    67e2:	4770      	bx	lr
    67e4:	f022 42ff 	bic.w	r2, r2, #2139095040	; 0x7f800000
    67e8:	ea42 53c1 	orr.w	r3, r2, r1, lsl #23
    67ec:	ee00 3a10 	vmov	s0, r3
    67f0:	4770      	bx	lr
    67f2:	eddf 7a0b 	vldr	s15, [pc, #44]	; 6820 <scalbnf+0xdc>
    67f6:	eddf 6a0b 	vldr	s13, [pc, #44]	; 6824 <scalbnf+0xe0>
    67fa:	2b00      	cmp	r3, #0
    67fc:	eeb0 7a67 	vmov.f32	s14, s15
    6800:	bfb8      	it	lt
    6802:	eef0 7a66 	vmovlt.f32	s15, s13
    6806:	ee27 0a87 	vmul.f32	s0, s15, s14
    680a:	4770      	bx	lr
    680c:	4c000000 	stcmi	0, cr0, [r0], {-0}
    6810:	ffff3cb0 			; <UNDEFINED> instruction: 0xffff3cb0
    6814:	7149f2ca 	smlalbtvc	pc, r9, sl, r2	; <UNPREDICTABLE>
    6818:	f149f2ca 			; <UNDEFINED> instruction: 0xf149f2ca
    681c:	33000000 	movwcc	r0, #0
    6820:	0da24260 	sfmeq	f4, 4, [r2, #384]!	; 0x180
    6824:	8da24260 	sfmhi	f4, 4, [r2, #384]!	; 0x180

Disassembly of section .text.__fpclassifyf:

00006828 <__fpclassifyf>:
    6828:	ee10 3a10 	vmov	r3, s0
    682c:	f033 4000 	bics.w	r0, r3, #2147483648	; 0x80000000
    6830:	d00e      	beq.n	6850 <__fpclassifyf+0x28>
    6832:	f5a0 0300 	sub.w	r3, r0, #8388608	; 0x800000
    6836:	f1b3 4ffe 	cmp.w	r3, #2130706432	; 0x7f000000
    683a:	d30d      	bcc.n	6858 <__fpclassifyf+0x30>
    683c:	4b07      	ldr	r3, [pc, #28]	; (685c <__fpclassifyf+0x34>)
    683e:	1e42      	subs	r2, r0, #1
    6840:	429a      	cmp	r2, r3
    6842:	d907      	bls.n	6854 <__fpclassifyf+0x2c>
    6844:	f1a0 40ff 	sub.w	r0, r0, #2139095040	; 0x7f800000
    6848:	fab0 f080 	clz	r0, r0
    684c:	0940      	lsrs	r0, r0, #5
    684e:	4770      	bx	lr
    6850:	2002      	movs	r0, #2
    6852:	4770      	bx	lr
    6854:	2003      	movs	r0, #3
    6856:	4770      	bx	lr
    6858:	2004      	movs	r0, #4
    685a:	4770      	bx	lr
    685c:	007ffffe 	ldrshteq	pc, [pc], #-254	; <UNPREDICTABLE>

Disassembly of section .text.__kernel_cosf:

00006860 <__kernel_cosf>:
    6860:	ee10 3a10 	vmov	r3, s0
    6864:	f023 4300 	bic.w	r3, r3, #2147483648	; 0x80000000
    6868:	f1b3 5f48 	cmp.w	r3, #838860800	; 0x32000000
    686c:	d22c      	bcs.n	68c8 <__kernel_cosf+0x68>
    686e:	eefd 7ac0 	vcvt.s32.f32	s15, s0
    6872:	ee17 3a90 	vmov	r3, s15
    6876:	2b00      	cmp	r3, #0
    6878:	d060      	beq.n	693c <__kernel_cosf+0xdc>
    687a:	ee60 7a00 	vmul.f32	s15, s0, s0
    687e:	ed9f 7a31 	vldr	s14, [pc, #196]	; 6944 <__kernel_cosf+0xe4>
    6882:	ed9f 5a31 	vldr	s10, [pc, #196]	; 6948 <__kernel_cosf+0xe8>
    6886:	eddf 5a31 	vldr	s11, [pc, #196]	; 694c <__kernel_cosf+0xec>
    688a:	ed9f 6a31 	vldr	s12, [pc, #196]	; 6950 <__kernel_cosf+0xf0>
    688e:	eddf 6a31 	vldr	s13, [pc, #196]	; 6954 <__kernel_cosf+0xf4>
    6892:	eea7 5a87 	vfma.f32	s10, s15, s14
    6896:	ed9f 7a30 	vldr	s14, [pc, #192]	; 6958 <__kernel_cosf+0xf8>
    689a:	eee5 5a27 	vfma.f32	s11, s10, s15
    689e:	eea7 6aa5 	vfma.f32	s12, s15, s11
    68a2:	eea7 7a86 	vfma.f32	s14, s15, s12
    68a6:	eee7 6a87 	vfma.f32	s13, s15, s14
    68aa:	ee67 6aa6 	vmul.f32	s13, s15, s13
    68ae:	ee60 0ac0 	vnmul.f32	s1, s1, s0
    68b2:	eeb6 7a00 	vmov.f32	s14, #96	; 0x3f000000  0.5
    68b6:	eee7 0aa6 	vfma.f32	s1, s15, s13
    68ba:	eeb7 0a00 	vmov.f32	s0, #112	; 0x3f800000  1.0
    68be:	eed7 0a87 	vfnms.f32	s1, s15, s14
    68c2:	ee30 0a60 	vsub.f32	s0, s0, s1
    68c6:	4770      	bx	lr
    68c8:	ee60 7a00 	vmul.f32	s15, s0, s0
    68cc:	ed9f 7a1d 	vldr	s14, [pc, #116]	; 6944 <__kernel_cosf+0xe4>
    68d0:	ed9f 5a1d 	vldr	s10, [pc, #116]	; 6948 <__kernel_cosf+0xe8>
    68d4:	eddf 5a1d 	vldr	s11, [pc, #116]	; 694c <__kernel_cosf+0xec>
    68d8:	ed9f 6a1d 	vldr	s12, [pc, #116]	; 6950 <__kernel_cosf+0xf0>
    68dc:	eddf 6a1d 	vldr	s13, [pc, #116]	; 6954 <__kernel_cosf+0xf4>
    68e0:	4a1e      	ldr	r2, [pc, #120]	; (695c <__kernel_cosf+0xfc>)
    68e2:	eea7 5a87 	vfma.f32	s10, s15, s14
    68e6:	4293      	cmp	r3, r2
    68e8:	ed9f 7a1b 	vldr	s14, [pc, #108]	; 6958 <__kernel_cosf+0xf8>
    68ec:	eee5 5a27 	vfma.f32	s11, s10, s15
    68f0:	eea5 6aa7 	vfma.f32	s12, s11, s15
    68f4:	eea6 7a27 	vfma.f32	s14, s12, s15
    68f8:	eee7 6a27 	vfma.f32	s13, s14, s15
    68fc:	ee66 6aa7 	vmul.f32	s13, s13, s15
    6900:	d9d5      	bls.n	68ae <__kernel_cosf+0x4e>
    6902:	4a17      	ldr	r2, [pc, #92]	; (6960 <__kernel_cosf+0x100>)
    6904:	4293      	cmp	r3, r2
    6906:	d814      	bhi.n	6932 <__kernel_cosf+0xd2>
    6908:	f103 437f 	add.w	r3, r3, #4278190080	; 0xff000000
    690c:	ee07 3a10 	vmov	s14, r3
    6910:	eeb7 6a00 	vmov.f32	s12, #112	; 0x3f800000  1.0
    6914:	ee36 6a47 	vsub.f32	s12, s12, s14
    6918:	ee60 0ac0 	vnmul.f32	s1, s1, s0
    691c:	eef6 5a00 	vmov.f32	s11, #96	; 0x3f000000  0.5
    6920:	ee97 7aa5 	vfnms.f32	s14, s15, s11
    6924:	eee7 0aa6 	vfma.f32	s1, s15, s13
    6928:	ee37 7a60 	vsub.f32	s14, s14, s1
    692c:	ee36 0a47 	vsub.f32	s0, s12, s14
    6930:	4770      	bx	lr
    6932:	eeb6 6a07 	vmov.f32	s12, #103	; 0x3f380000  0.7187500
    6936:	eeb5 7a02 	vmov.f32	s14, #82	; 0x3e900000  0.2812500
    693a:	e7ed      	b.n	6918 <__kernel_cosf+0xb8>
    693c:	eeb7 0a00 	vmov.f32	s0, #112	; 0x3f800000  1.0
    6940:	4770      	bx	lr
    6942:	bf00      	nop
    6944:	ad47d74e 	stclge	7, cr13, [r7, #-312]	; 0xfffffec8
    6948:	310f74f6 	strdcc	r7, [pc, -r6]
    694c:	b493f27c 	ldrlt	pc, [r3], #636	; 0x27c
    6950:	37d00d01 	ldrbcc	r0, [r0, r1, lsl #26]
    6954:	3d2aaaab 	vstmdbcc	sl!, {s20-s190}
    6958:	bab60b61 	blt	fed896e4 <memset+0xfed82370>
    695c:	3e999999 			; <UNDEFINED> instruction: 0x3e999999
    6960:	3f480000 	svccc	0x00480000

Disassembly of section .text.__ieee754_rem_pio2f:

00006964 <__ieee754_rem_pio2f>:
    6964:	b570      	push	{r4, r5, r6, lr}
    6966:	ee10 3a10 	vmov	r3, s0
    696a:	4a88      	ldr	r2, [pc, #544]	; (6b8c <__ieee754_rem_pio2f+0x228>)
    696c:	f023 4400 	bic.w	r4, r3, #2147483648	; 0x80000000
    6970:	4294      	cmp	r4, r2
    6972:	b086      	sub	sp, #24
    6974:	4605      	mov	r5, r0
    6976:	d971      	bls.n	6a5c <__ieee754_rem_pio2f+0xf8>
    6978:	4a85      	ldr	r2, [pc, #532]	; (6b90 <__ieee754_rem_pio2f+0x22c>)
    697a:	4294      	cmp	r4, r2
    697c:	461e      	mov	r6, r3
    697e:	d824      	bhi.n	69ca <__ieee754_rem_pio2f+0x66>
    6980:	f023 4600 	bic.w	r6, r3, #2147483648	; 0x80000000
    6984:	2b00      	cmp	r3, #0
    6986:	eddf 7a83 	vldr	s15, [pc, #524]	; 6b94 <__ieee754_rem_pio2f+0x230>
    698a:	4a83      	ldr	r2, [pc, #524]	; (6b98 <__ieee754_rem_pio2f+0x234>)
    698c:	f026 060f 	bic.w	r6, r6, #15
    6990:	eeb0 7a40 	vmov.f32	s14, s0
    6994:	f340 80e0 	ble.w	6b58 <__ieee754_rem_pio2f+0x1f4>
    6998:	4296      	cmp	r6, r2
    699a:	ee70 7a67 	vsub.f32	s15, s0, s15
    699e:	bf09      	itett	eq
    69a0:	ed9f 7a7e 	vldreq	s14, [pc, #504]	; 6b9c <__ieee754_rem_pio2f+0x238>
    69a4:	eddf 6a7e 	vldrne	s13, [pc, #504]	; 6ba0 <__ieee754_rem_pio2f+0x23c>
    69a8:	eddf 6a7e 	vldreq	s13, [pc, #504]	; 6ba4 <__ieee754_rem_pio2f+0x240>
    69ac:	ee77 7ac7 	vsubeq.f32	s15, s15, s14
    69b0:	ee37 7ae6 	vsub.f32	s14, s15, s13
    69b4:	ee77 7ac7 	vsub.f32	s15, s15, s14
    69b8:	ed80 7a00 	vstr	s14, [r0]
    69bc:	ee77 7ae6 	vsub.f32	s15, s15, s13
    69c0:	edc0 7a01 	vstr	s15, [r0, #4]
    69c4:	2001      	movs	r0, #1
    69c6:	b006      	add	sp, #24
    69c8:	bd70      	pop	{r4, r5, r6, pc}
    69ca:	4a77      	ldr	r2, [pc, #476]	; (6ba8 <__ieee754_rem_pio2f+0x244>)
    69cc:	4294      	cmp	r4, r2
    69ce:	d952      	bls.n	6a76 <__ieee754_rem_pio2f+0x112>
    69d0:	f1b4 4fff 	cmp.w	r4, #2139095040	; 0x7f800000
    69d4:	d248      	bcs.n	6a68 <__ieee754_rem_pio2f+0x104>
    69d6:	15e2      	asrs	r2, r4, #23
    69d8:	3a86      	subs	r2, #134	; 0x86
    69da:	eba4 53c2 	sub.w	r3, r4, r2, lsl #23
    69de:	ee07 3a90 	vmov	s15, r3
    69e2:	eebd 7ae7 	vcvt.s32.f32	s14, s15
    69e6:	eddf 6a71 	vldr	s13, [pc, #452]	; 6bac <__ieee754_rem_pio2f+0x248>
    69ea:	eeb8 7ac7 	vcvt.f32.s32	s14, s14
    69ee:	ee77 7ac7 	vsub.f32	s15, s15, s14
    69f2:	ed8d 7a03 	vstr	s14, [sp, #12]
    69f6:	ee67 7aa6 	vmul.f32	s15, s15, s13
    69fa:	eebd 7ae7 	vcvt.s32.f32	s14, s15
    69fe:	eeb8 7ac7 	vcvt.f32.s32	s14, s14
    6a02:	ee77 7ac7 	vsub.f32	s15, s15, s14
    6a06:	ed8d 7a04 	vstr	s14, [sp, #16]
    6a0a:	ee67 7aa6 	vmul.f32	s15, s15, s13
    6a0e:	eef5 7a40 	vcmp.f32	s15, #0.0
    6a12:	eef1 fa10 	vmrs	APSR_nzcv, fpscr
    6a16:	edcd 7a05 	vstr	s15, [sp, #20]
    6a1a:	f040 8098 	bne.w	6b4e <__ieee754_rem_pio2f+0x1ea>
    6a1e:	eeb5 7a40 	vcmp.f32	s14, #0.0
    6a22:	eef1 fa10 	vmrs	APSR_nzcv, fpscr
    6a26:	bf0c      	ite	eq
    6a28:	2301      	moveq	r3, #1
    6a2a:	2302      	movne	r3, #2
    6a2c:	4960      	ldr	r1, [pc, #384]	; (6bb0 <__ieee754_rem_pio2f+0x24c>)
    6a2e:	9101      	str	r1, [sp, #4]
    6a30:	2102      	movs	r1, #2
    6a32:	9100      	str	r1, [sp, #0]
    6a34:	a803      	add	r0, sp, #12
    6a36:	4629      	mov	r1, r5
    6a38:	f000 f914 	bl	6c64 <__kernel_rem_pio2f>
    6a3c:	2e00      	cmp	r6, #0
    6a3e:	dac2      	bge.n	69c6 <__ieee754_rem_pio2f+0x62>
    6a40:	ed95 7a00 	vldr	s14, [r5]
    6a44:	edd5 7a01 	vldr	s15, [r5, #4]
    6a48:	eeb1 7a47 	vneg.f32	s14, s14
    6a4c:	eef1 7a67 	vneg.f32	s15, s15
    6a50:	ed85 7a00 	vstr	s14, [r5]
    6a54:	edc5 7a01 	vstr	s15, [r5, #4]
    6a58:	4240      	negs	r0, r0
    6a5a:	e7b4      	b.n	69c6 <__ieee754_rem_pio2f+0x62>
    6a5c:	2200      	movs	r2, #0
    6a5e:	ed85 0a00 	vstr	s0, [r5]
    6a62:	6042      	str	r2, [r0, #4]
    6a64:	2000      	movs	r0, #0
    6a66:	e7ae      	b.n	69c6 <__ieee754_rem_pio2f+0x62>
    6a68:	ee70 7a40 	vsub.f32	s15, s0, s0
    6a6c:	edc0 7a01 	vstr	s15, [r0, #4]
    6a70:	edc0 7a00 	vstr	s15, [r0]
    6a74:	e7f6      	b.n	6a64 <__ieee754_rem_pio2f+0x100>
    6a76:	f000 f8ed 	bl	6c54 <fabsf>
    6a7a:	ed9f 7a4e 	vldr	s14, [pc, #312]	; 6bb4 <__ieee754_rem_pio2f+0x250>
    6a7e:	ed9f 6a45 	vldr	s12, [pc, #276]	; 6b94 <__ieee754_rem_pio2f+0x230>
    6a82:	eef6 7a00 	vmov.f32	s15, #96	; 0x3f000000  0.5
    6a86:	eee0 7a07 	vfma.f32	s15, s0, s14
    6a8a:	ed9f 7a45 	vldr	s14, [pc, #276]	; 6ba0 <__ieee754_rem_pio2f+0x23c>
    6a8e:	eefd 7ae7 	vcvt.s32.f32	s15, s15
    6a92:	ee17 0a90 	vmov	r0, s15
    6a96:	eef8 6ae7 	vcvt.f32.s32	s13, s15
    6a9a:	281f      	cmp	r0, #31
    6a9c:	eea6 0ac6 	vfms.f32	s0, s13, s12
    6aa0:	ee66 7a87 	vmul.f32	s15, s13, s14
    6aa4:	eeb1 6a66 	vneg.f32	s12, s13
    6aa8:	dc20      	bgt.n	6aec <__ieee754_rem_pio2f+0x188>
    6aaa:	4a43      	ldr	r2, [pc, #268]	; (6bb8 <__ieee754_rem_pio2f+0x254>)
    6aac:	1e41      	subs	r1, r0, #1
    6aae:	f026 4300 	bic.w	r3, r6, #2147483648	; 0x80000000
    6ab2:	f852 2021 	ldr.w	r2, [r2, r1, lsl #2]
    6ab6:	f023 03ff 	bic.w	r3, r3, #255	; 0xff
    6aba:	4293      	cmp	r3, r2
    6abc:	d016      	beq.n	6aec <__ieee754_rem_pio2f+0x188>
    6abe:	ee30 7a67 	vsub.f32	s14, s0, s15
    6ac2:	ee30 0a47 	vsub.f32	s0, s0, s14
    6ac6:	2e00      	cmp	r6, #0
    6ac8:	ee30 0a67 	vsub.f32	s0, s0, s15
    6acc:	ed85 7a00 	vstr	s14, [r5]
    6ad0:	ed85 0a01 	vstr	s0, [r5, #4]
    6ad4:	f6bf af77 	bge.w	69c6 <__ieee754_rem_pio2f+0x62>
    6ad8:	eeb1 7a47 	vneg.f32	s14, s14
    6adc:	eeb1 0a40 	vneg.f32	s0, s0
    6ae0:	ed85 7a00 	vstr	s14, [r5]
    6ae4:	ed85 0a01 	vstr	s0, [r5, #4]
    6ae8:	4240      	negs	r0, r0
    6aea:	e76c      	b.n	69c6 <__ieee754_rem_pio2f+0x62>
    6aec:	ee30 7a67 	vsub.f32	s14, s0, s15
    6af0:	15e2      	asrs	r2, r4, #23
    6af2:	ee17 3a10 	vmov	r3, s14
    6af6:	f3c3 53c7 	ubfx	r3, r3, #23, #8
    6afa:	ebc3 53d4 	rsb	r3, r3, r4, lsr #23
    6afe:	2b08      	cmp	r3, #8
    6b00:	dddf      	ble.n	6ac2 <__ieee754_rem_pio2f+0x15e>
    6b02:	ed9f 7a26 	vldr	s14, [pc, #152]	; 6b9c <__ieee754_rem_pio2f+0x238>
    6b06:	ed9f 5a27 	vldr	s10, [pc, #156]	; 6ba4 <__ieee754_rem_pio2f+0x240>
    6b0a:	eef0 5a40 	vmov.f32	s11, s0
    6b0e:	eee6 5a07 	vfma.f32	s11, s12, s14
    6b12:	ee70 7a65 	vsub.f32	s15, s0, s11
    6b16:	eee6 7a07 	vfma.f32	s15, s12, s14
    6b1a:	eed6 7a85 	vfnms.f32	s15, s13, s10
    6b1e:	ee35 7ae7 	vsub.f32	s14, s11, s15
    6b22:	ee17 3a10 	vmov	r3, s14
    6b26:	f3c3 53c7 	ubfx	r3, r3, #23, #8
    6b2a:	1ad2      	subs	r2, r2, r3
    6b2c:	2a19      	cmp	r2, #25
    6b2e:	dd10      	ble.n	6b52 <__ieee754_rem_pio2f+0x1ee>
    6b30:	ed9f 7a22 	vldr	s14, [pc, #136]	; 6bbc <__ieee754_rem_pio2f+0x258>
    6b34:	ed9f 5a22 	vldr	s10, [pc, #136]	; 6bc0 <__ieee754_rem_pio2f+0x25c>
    6b38:	eeb0 0a65 	vmov.f32	s0, s11
    6b3c:	eea6 0a07 	vfma.f32	s0, s12, s14
    6b40:	ee75 7ac0 	vsub.f32	s15, s11, s0
    6b44:	eee6 7a07 	vfma.f32	s15, s12, s14
    6b48:	eed6 7a85 	vfnms.f32	s15, s13, s10
    6b4c:	e7b7      	b.n	6abe <__ieee754_rem_pio2f+0x15a>
    6b4e:	2303      	movs	r3, #3
    6b50:	e76c      	b.n	6a2c <__ieee754_rem_pio2f+0xc8>
    6b52:	eeb0 0a65 	vmov.f32	s0, s11
    6b56:	e7b4      	b.n	6ac2 <__ieee754_rem_pio2f+0x15e>
    6b58:	4296      	cmp	r6, r2
    6b5a:	ee70 7a27 	vadd.f32	s15, s0, s15
    6b5e:	bf09      	itett	eq
    6b60:	ed9f 7a0e 	vldreq	s14, [pc, #56]	; 6b9c <__ieee754_rem_pio2f+0x238>
    6b64:	eddf 6a0e 	vldrne	s13, [pc, #56]	; 6ba0 <__ieee754_rem_pio2f+0x23c>
    6b68:	eddf 6a0e 	vldreq	s13, [pc, #56]	; 6ba4 <__ieee754_rem_pio2f+0x240>
    6b6c:	ee77 7a87 	vaddeq.f32	s15, s15, s14
    6b70:	ee37 7aa6 	vadd.f32	s14, s15, s13
    6b74:	ee77 7ac7 	vsub.f32	s15, s15, s14
    6b78:	ed80 7a00 	vstr	s14, [r0]
    6b7c:	ee77 7aa6 	vadd.f32	s15, s15, s13
    6b80:	edc0 7a01 	vstr	s15, [r0, #4]
    6b84:	f04f 30ff 	mov.w	r0, #4294967295	; 0xffffffff
    6b88:	e71d      	b.n	69c6 <__ieee754_rem_pio2f+0x62>
    6b8a:	bf00      	nop
    6b8c:	3f490fd8 	svccc	0x00490fd8
    6b90:	4016cbe3 	andsmi	ip, r6, r3, ror #23
    6b94:	3fc90f80 	svccc	0x00c90f80
    6b98:	3fc90fd0 	svccc	0x00c90fd0
    6b9c:	37354400 	ldrcc	r4, [r5, -r0, lsl #8]!
    6ba0:	37354443 	ldrcc	r4, [r5, -r3, asr #8]!
    6ba4:	2e85a308 	cdpcs	3, 8, cr10, cr5, cr8, {0}
    6ba8:	43490f80 	movtmi	r0, #40832	; 0x9f80
    6bac:	43800000 	orrmi	r0, r0, #0
    6bb0:	00002fb0 			; <UNDEFINED> instruction: 0x00002fb0
    6bb4:	3f22f984 	svccc	0x0022f984
    6bb8:	00002f30 	andeq	r2, r0, r0, lsr pc
    6bbc:	2e85a300 	cdpcs	3, 8, cr10, cr5, cr0, {0}
    6bc0:	248d3132 	strcs	r3, [sp], #306	; 0x132

Disassembly of section .text.__kernel_sinf:

00006bc4 <__kernel_sinf>:
    6bc4:	ee10 3a10 	vmov	r3, s0
    6bc8:	f023 4300 	bic.w	r3, r3, #2147483648	; 0x80000000
    6bcc:	f1b3 5f48 	cmp.w	r3, #838860800	; 0x32000000
    6bd0:	d204      	bcs.n	6bdc <__kernel_sinf+0x18>
    6bd2:	eefd 7ac0 	vcvt.s32.f32	s15, s0
    6bd6:	ee17 3a90 	vmov	r3, s15
    6bda:	b35b      	cbz	r3, 6c34 <__kernel_sinf+0x70>
    6bdc:	ee60 7a00 	vmul.f32	s15, s0, s0
    6be0:	ed9f 7a15 	vldr	s14, [pc, #84]	; 6c38 <__kernel_sinf+0x74>
    6be4:	eddf 5a15 	vldr	s11, [pc, #84]	; 6c3c <__kernel_sinf+0x78>
    6be8:	ed9f 6a15 	vldr	s12, [pc, #84]	; 6c40 <__kernel_sinf+0x7c>
    6bec:	eddf 6a15 	vldr	s13, [pc, #84]	; 6c44 <__kernel_sinf+0x80>
    6bf0:	eee7 5a87 	vfma.f32	s11, s15, s14
    6bf4:	ed9f 7a14 	vldr	s14, [pc, #80]	; 6c48 <__kernel_sinf+0x84>
    6bf8:	eea5 6aa7 	vfma.f32	s12, s11, s15
    6bfc:	ee20 5a27 	vmul.f32	s10, s0, s15
    6c00:	eee6 6a27 	vfma.f32	s13, s12, s15
    6c04:	eea6 7aa7 	vfma.f32	s14, s13, s15
    6c08:	b930      	cbnz	r0, 6c18 <__kernel_sinf+0x54>
    6c0a:	eddf 6a10 	vldr	s13, [pc, #64]	; 6c4c <__kernel_sinf+0x88>
    6c0e:	eee7 6a87 	vfma.f32	s13, s15, s14
    6c12:	eea6 0a85 	vfma.f32	s0, s13, s10
    6c16:	4770      	bx	lr
    6c18:	ee27 7a45 	vnmul.f32	s14, s14, s10
    6c1c:	eef6 6a00 	vmov.f32	s13, #96	; 0x3f000000  0.5
    6c20:	eea0 7aa6 	vfma.f32	s14, s1, s13
    6c24:	eddf 6a0a 	vldr	s13, [pc, #40]	; 6c50 <__kernel_sinf+0x8c>
    6c28:	eed7 0a27 	vfnms.f32	s1, s14, s15
    6c2c:	eee5 0a26 	vfma.f32	s1, s10, s13
    6c30:	ee30 0a60 	vsub.f32	s0, s0, s1
    6c34:	4770      	bx	lr
    6c36:	bf00      	nop
    6c38:	2f2ec9d3 	svccs	0x002ec9d3
    6c3c:	b2d72f34 	sbcslt	r2, r7, #52, 30	; 0xd0
    6c40:	3638ef1b 	shadd16cc	lr, r8, fp
    6c44:	b9500d01 	ldmdblt	r0, {r0, r8, sl, fp}^
    6c48:	3c088889 	stccc	8, cr8, [r8], {137}	; 0x89
    6c4c:	be2aaaab 	vmullt.f32	s20, s21, s23
    6c50:	3e2aaaab 	vmulcc.f32	s20, s21, s23

Disassembly of section .text.fabsf:

00006c54 <fabsf>:
    6c54:	ee10 3a10 	vmov	r3, s0
    6c58:	f023 4300 	bic.w	r3, r3, #2147483648	; 0x80000000
    6c5c:	ee00 3a10 	vmov	s0, r3
    6c60:	4770      	bx	lr
    6c62:	bf00      	nop

Disassembly of section .text.__kernel_rem_pio2f:

00006c64 <__kernel_rem_pio2f>:
    6c64:	e92d 4ff0 	stmdb	sp!, {r4, r5, r6, r7, r8, r9, sl, fp, lr}
    6c68:	ed2d 8b04 	vpush	{d8-d9}
    6c6c:	b0db      	sub	sp, #364	; 0x16c
    6c6e:	460c      	mov	r4, r1
    6c70:	4681      	mov	r9, r0
    6c72:	4611      	mov	r1, r2
    6c74:	9868      	ldr	r0, [sp, #416]	; 0x1a0
    6c76:	4a96      	ldr	r2, [pc, #600]	; (6ed0 <__kernel_rem_pio2f+0x26c>)
    6c78:	9304      	str	r3, [sp, #16]
    6c7a:	461e      	mov	r6, r3
    6c7c:	4623      	mov	r3, r4
    6c7e:	1d0c      	adds	r4, r1, #4
    6c80:	f852 5020 	ldr.w	r5, [r2, r0, lsl #2]
    6c84:	f106 37ff 	add.w	r7, r6, #4294967295	; 0xffffffff
    6c88:	f2c0 82b0 	blt.w	71ec <__kernel_rem_pio2f+0x588>
    6c8c:	1eca      	subs	r2, r1, #3
    6c8e:	bf48      	it	mi
    6c90:	1d0a      	addmi	r2, r1, #4
    6c92:	10d2      	asrs	r2, r2, #3
    6c94:	9203      	str	r2, [sp, #12]
    6c96:	3201      	adds	r2, #1
    6c98:	00d2      	lsls	r2, r2, #3
    6c9a:	9206      	str	r2, [sp, #24]
    6c9c:	9a06      	ldr	r2, [sp, #24]
    6c9e:	9803      	ldr	r0, [sp, #12]
    6ca0:	19ee      	adds	r6, r5, r7
    6ca2:	eba1 0202 	sub.w	r2, r1, r2
    6ca6:	eba0 0007 	sub.w	r0, r0, r7
    6caa:	d419      	bmi.n	6ce0 <__kernel_rem_pio2f+0x7c>
    6cac:	3601      	adds	r6, #1
    6cae:	ed9f 7a89 	vldr	s14, [pc, #548]	; 6ed4 <__kernel_rem_pio2f+0x270>
    6cb2:	f8dd c1a4 	ldr.w	ip, [sp, #420]	; 0x1a4
    6cb6:	4406      	add	r6, r0
    6cb8:	ac1e      	add	r4, sp, #120	; 0x78
    6cba:	469e      	mov	lr, r3
    6cbc:	2800      	cmp	r0, #0
    6cbe:	bfa4      	itt	ge
    6cc0:	f85c 3020 	ldrge.w	r3, [ip, r0, lsl #2]
    6cc4:	ee07 3a90 	vmovge	s15, r3
    6cc8:	f100 0001 	add.w	r0, r0, #1
    6ccc:	bfac      	ite	ge
    6cce:	eef8 7ae7 	vcvtge.f32.s32	s15, s15
    6cd2:	eef0 7a47 	vmovlt.f32	s15, s14
    6cd6:	42b0      	cmp	r0, r6
    6cd8:	ece4 7a01 	vstmia	r4!, {s15}
    6cdc:	d1ee      	bne.n	6cbc <__kernel_rem_pio2f+0x58>
    6cde:	4673      	mov	r3, lr
    6ce0:	2d00      	cmp	r5, #0
    6ce2:	f2c0 82d9 	blt.w	7298 <__kernel_rem_pio2f+0x634>
    6ce6:	9804      	ldr	r0, [sp, #16]
    6ce8:	ac1e      	add	r4, sp, #120	; 0x78
    6cea:	eb04 0680 	add.w	r6, r4, r0, lsl #2
    6cee:	ea4f 0880 	mov.w	r8, r0, lsl #2
    6cf2:	eb05 0e00 	add.w	lr, r5, r0
    6cf6:	f50d 7c8c 	add.w	ip, sp, #280	; 0x118
    6cfa:	463c      	mov	r4, r7
    6cfc:	eb09 0080 	add.w	r0, r9, r0, lsl #2
    6d00:	2f00      	cmp	r7, #0
    6d02:	eddf 7a74 	vldr	s15, [pc, #464]	; 6ed4 <__kernel_rem_pio2f+0x270>
    6d06:	db09      	blt.n	6d1c <__kernel_rem_pio2f+0xb8>
    6d08:	46b3      	mov	fp, r6
    6d0a:	46ca      	mov	sl, r9
    6d0c:	ecfa 6a01 	vldmia	sl!, {s13}
    6d10:	ed3b 7a01 	vldmdb	fp!, {s14}
    6d14:	4582      	cmp	sl, r0
    6d16:	eee6 7a87 	vfma.f32	s15, s13, s14
    6d1a:	d1f7      	bne.n	6d0c <__kernel_rem_pio2f+0xa8>
    6d1c:	3401      	adds	r4, #1
    6d1e:	4574      	cmp	r4, lr
    6d20:	ecec 7a01 	vstmia	ip!, {s15}
    6d24:	f106 0604 	add.w	r6, r6, #4
    6d28:	d1ea      	bne.n	6d00 <__kernel_rem_pio2f+0x9c>
    6d2a:	f10d 0a28 	add.w	sl, sp, #40	; 0x28
    6d2e:	eb0a 0085 	add.w	r0, sl, r5, lsl #2
    6d32:	e9cd 3107 	strd	r3, r1, [sp, #28]
    6d36:	3804      	subs	r0, #4
    6d38:	ed9f 9a68 	vldr	s18, [pc, #416]	; 6edc <__kernel_rem_pio2f+0x278>
    6d3c:	eddf 8a66 	vldr	s17, [pc, #408]	; 6ed8 <__kernel_rem_pio2f+0x274>
    6d40:	9005      	str	r0, [sp, #20]
    6d42:	eb09 0408 	add.w	r4, r9, r8
    6d46:	46ab      	mov	fp, r5
    6d48:	eb0a 0885 	add.w	r8, sl, r5, lsl #2
    6d4c:	ae46      	add	r6, sp, #280	; 0x118
    6d4e:	9501      	str	r5, [sp, #4]
    6d50:	4610      	mov	r0, r2
    6d52:	ab5a      	add	r3, sp, #360	; 0x168
    6d54:	eb03 038b 	add.w	r3, r3, fp, lsl #2
    6d58:	f1bb 0f00 	cmp.w	fp, #0
    6d5c:	ed13 0a14 	vldr	s0, [r3, #-80]	; 0xffffffb0
    6d60:	dd16      	ble.n	6d90 <__kernel_rem_pio2f+0x12c>
    6d62:	eb06 038b 	add.w	r3, r6, fp, lsl #2
    6d66:	4652      	mov	r2, sl
    6d68:	ee60 7a09 	vmul.f32	s15, s0, s18
    6d6c:	eeb0 7a40 	vmov.f32	s14, s0
    6d70:	eefd 7ae7 	vcvt.s32.f32	s15, s15
    6d74:	ed73 6a01 	vldmdb	r3!, {s13}
    6d78:	eef8 7ae7 	vcvt.f32.s32	s15, s15
    6d7c:	42b3      	cmp	r3, r6
    6d7e:	eea7 7ae8 	vfms.f32	s14, s15, s17
    6d82:	ee37 0aa6 	vadd.f32	s0, s15, s13
    6d86:	eebd 7ac7 	vcvt.s32.f32	s14, s14
    6d8a:	eca2 7a01 	vstmia	r2!, {s14}
    6d8e:	d1eb      	bne.n	6d68 <__kernel_rem_pio2f+0x104>
    6d90:	9002      	str	r0, [sp, #8]
    6d92:	f7ff fcd7 	bl	6744 <scalbnf>
    6d96:	eef4 7a00 	vmov.f32	s15, #64	; 0x3e000000  0.125
    6d9a:	eeb0 8a40 	vmov.f32	s16, s0
    6d9e:	ee20 0a27 	vmul.f32	s0, s0, s15
    6da2:	f000 fa9d 	bl	72e0 <floorf>
    6da6:	eef2 7a00 	vmov.f32	s15, #32	; 0x41000000  8.0
    6daa:	eea0 8a67 	vfms.f32	s16, s0, s15
    6dae:	9802      	ldr	r0, [sp, #8]
    6db0:	2800      	cmp	r0, #0
    6db2:	eefd 9ac8 	vcvt.s32.f32	s19, s16
    6db6:	eef8 7ae9 	vcvt.f32.s32	s15, s19
    6dba:	ee38 8a67 	vsub.f32	s16, s16, s15
    6dbe:	dd6e      	ble.n	6e9e <__kernel_rem_pio2f+0x23a>
    6dc0:	f10b 3cff 	add.w	ip, fp, #4294967295	; 0xffffffff
    6dc4:	f1c0 0308 	rsb	r3, r0, #8
    6dc8:	f85a 202c 	ldr.w	r2, [sl, ip, lsl #2]
    6dcc:	fa42 f503 	asr.w	r5, r2, r3
    6dd0:	fa05 f303 	lsl.w	r3, r5, r3
    6dd4:	1ad2      	subs	r2, r2, r3
    6dd6:	f1c0 0107 	rsb	r1, r0, #7
    6dda:	ee19 3a90 	vmov	r3, s19
    6dde:	fa42 f101 	asr.w	r1, r2, r1
    6de2:	442b      	add	r3, r5
    6de4:	2900      	cmp	r1, #0
    6de6:	f84a 202c 	str.w	r2, [sl, ip, lsl #2]
    6dea:	ee09 3a90 	vmov	s19, r3
    6dee:	f300 814b 	bgt.w	7088 <__kernel_rem_pio2f+0x424>
    6df2:	eeb5 8a40 	vcmp.f32	s16, #0.0
    6df6:	eef1 fa10 	vmrs	APSR_nzcv, fpscr
    6dfa:	f040 80ba 	bne.w	6f72 <__kernel_rem_pio2f+0x30e>
    6dfe:	9b01      	ldr	r3, [sp, #4]
    6e00:	459b      	cmp	fp, r3
    6e02:	dd0b      	ble.n	6e1c <__kernel_rem_pio2f+0x1b8>
    6e04:	eb0a 038b 	add.w	r3, sl, fp, lsl #2
    6e08:	2200      	movs	r2, #0
    6e0a:	f853 5d04 	ldr.w	r5, [r3, #-4]!
    6e0e:	4543      	cmp	r3, r8
    6e10:	ea42 0205 	orr.w	r2, r2, r5
    6e14:	d1f9      	bne.n	6e0a <__kernel_rem_pio2f+0x1a6>
    6e16:	2a00      	cmp	r2, #0
    6e18:	f040 8154 	bne.w	70c4 <__kernel_rem_pio2f+0x460>
    6e1c:	9b01      	ldr	r3, [sp, #4]
    6e1e:	3b01      	subs	r3, #1
    6e20:	f85a 3023 	ldr.w	r3, [sl, r3, lsl #2]
    6e24:	2b00      	cmp	r3, #0
    6e26:	f040 8144 	bne.w	70b2 <__kernel_rem_pio2f+0x44e>
    6e2a:	9b05      	ldr	r3, [sp, #20]
    6e2c:	2101      	movs	r1, #1
    6e2e:	f853 2d04 	ldr.w	r2, [r3, #-4]!
    6e32:	3101      	adds	r1, #1
    6e34:	2a00      	cmp	r2, #0
    6e36:	d0fa      	beq.n	6e2e <__kernel_rem_pio2f+0x1ca>
    6e38:	f10b 0301 	add.w	r3, fp, #1
    6e3c:	4459      	add	r1, fp
    6e3e:	469c      	mov	ip, r3
    6e40:	9d03      	ldr	r5, [sp, #12]
    6e42:	9a04      	ldr	r2, [sp, #16]
    6e44:	eb05 0e03 	add.w	lr, r5, r3
    6e48:	f10e 4e80 	add.w	lr, lr, #1073741824	; 0x40000000
    6e4c:	9d69      	ldr	r5, [sp, #420]	; 0x1a4
    6e4e:	445a      	add	r2, fp
    6e50:	f10e 3eff 	add.w	lr, lr, #4294967295	; 0xffffffff
    6e54:	eb06 0b83 	add.w	fp, r6, r3, lsl #2
    6e58:	ab1e      	add	r3, sp, #120	; 0x78
    6e5a:	eb05 0e8e 	add.w	lr, r5, lr, lsl #2
    6e5e:	eb03 0582 	add.w	r5, r3, r2, lsl #2
    6e62:	edde 7a01 	vldr	s15, [lr, #4]
    6e66:	eef8 7ae7 	vcvt.f32.s32	s15, s15
    6e6a:	2f00      	cmp	r7, #0
    6e6c:	f10e 0e04 	add.w	lr, lr, #4
    6e70:	ece5 7a01 	vstmia	r5!, {s15}
    6e74:	eddf 7a17 	vldr	s15, [pc, #92]	; 6ed4 <__kernel_rem_pio2f+0x270>
    6e78:	db09      	blt.n	6e8e <__kernel_rem_pio2f+0x22a>
    6e7a:	462a      	mov	r2, r5
    6e7c:	464b      	mov	r3, r9
    6e7e:	ecf3 6a01 	vldmia	r3!, {s13}
    6e82:	ed32 7a01 	vldmdb	r2!, {s14}
    6e86:	42a3      	cmp	r3, r4
    6e88:	eee6 7a87 	vfma.f32	s15, s13, s14
    6e8c:	d1f7      	bne.n	6e7e <__kernel_rem_pio2f+0x21a>
    6e8e:	f10c 0c01 	add.w	ip, ip, #1
    6e92:	4561      	cmp	r1, ip
    6e94:	eceb 7a01 	vstmia	fp!, {s15}
    6e98:	dae3      	bge.n	6e62 <__kernel_rem_pio2f+0x1fe>
    6e9a:	468b      	mov	fp, r1
    6e9c:	e759      	b.n	6d52 <__kernel_rem_pio2f+0xee>
    6e9e:	f040 80e9 	bne.w	7074 <__kernel_rem_pio2f+0x410>
    6ea2:	f10b 33ff 	add.w	r3, fp, #4294967295	; 0xffffffff
    6ea6:	f85a 1023 	ldr.w	r1, [sl, r3, lsl #2]
    6eaa:	11c9      	asrs	r1, r1, #7
    6eac:	2900      	cmp	r1, #0
    6eae:	dda0      	ble.n	6df2 <__kernel_rem_pio2f+0x18e>
    6eb0:	ee19 3a90 	vmov	r3, s19
    6eb4:	f1bb 0f00 	cmp.w	fp, #0
    6eb8:	f103 0301 	add.w	r3, r3, #1
    6ebc:	ee09 3a90 	vmov	s19, r3
    6ec0:	f340 81ee 	ble.w	72a0 <__kernel_rem_pio2f+0x63c>
    6ec4:	2500      	movs	r5, #0
    6ec6:	46d4      	mov	ip, sl
    6ec8:	462a      	mov	r2, r5
    6eca:	9102      	str	r1, [sp, #8]
    6ecc:	4686      	mov	lr, r0
    6ece:	e019      	b.n	6f04 <__kernel_rem_pio2f+0x2a0>
    6ed0:	00003300 	andeq	r3, r0, r0, lsl #6
    6ed4:	00000000 	andeq	r0, r0, r0
    6ed8:	43800000 	orrmi	r0, r0, #0
    6edc:	3b800000 	blcc	fe006ee4 <memset+0xfdfffb70>
    6ee0:	3501      	adds	r5, #1
    6ee2:	45ab      	cmp	fp, r5
    6ee4:	f841 0c04 	str.w	r0, [r1, #-4]
    6ee8:	f340 80e8 	ble.w	70bc <__kernel_rem_pio2f+0x458>
    6eec:	680b      	ldr	r3, [r1, #0]
    6eee:	f10c 0c08 	add.w	ip, ip, #8
    6ef2:	3501      	adds	r5, #1
    6ef4:	f1c3 03ff 	rsb	r3, r3, #255	; 0xff
    6ef8:	45ab      	cmp	fp, r5
    6efa:	f04f 0201 	mov.w	r2, #1
    6efe:	f84c 3c04 	str.w	r3, [ip, #-4]
    6f02:	dd0d      	ble.n	6f20 <__kernel_rem_pio2f+0x2bc>
    6f04:	4661      	mov	r1, ip
    6f06:	f851 3b04 	ldr.w	r3, [r1], #4
    6f0a:	2a00      	cmp	r2, #0
    6f0c:	f040 80b0 	bne.w	7070 <__kernel_rem_pio2f+0x40c>
    6f10:	f5c3 7080 	rsb	r0, r3, #256	; 0x100
    6f14:	2b00      	cmp	r3, #0
    6f16:	d1e3      	bne.n	6ee0 <__kernel_rem_pio2f+0x27c>
    6f18:	3501      	adds	r5, #1
    6f1a:	45ab      	cmp	fp, r5
    6f1c:	468c      	mov	ip, r1
    6f1e:	dcf1      	bgt.n	6f04 <__kernel_rem_pio2f+0x2a0>
    6f20:	9902      	ldr	r1, [sp, #8]
    6f22:	4670      	mov	r0, lr
    6f24:	2800      	cmp	r0, #0
    6f26:	dd0c      	ble.n	6f42 <__kernel_rem_pio2f+0x2de>
    6f28:	2801      	cmp	r0, #1
    6f2a:	f000 80b9 	beq.w	70a0 <__kernel_rem_pio2f+0x43c>
    6f2e:	2802      	cmp	r0, #2
    6f30:	d107      	bne.n	6f42 <__kernel_rem_pio2f+0x2de>
    6f32:	f10b 35ff 	add.w	r5, fp, #4294967295	; 0xffffffff
    6f36:	f85a 3025 	ldr.w	r3, [sl, r5, lsl #2]
    6f3a:	f003 033f 	and.w	r3, r3, #63	; 0x3f
    6f3e:	f84a 3025 	str.w	r3, [sl, r5, lsl #2]
    6f42:	2902      	cmp	r1, #2
    6f44:	f47f af55 	bne.w	6df2 <__kernel_rem_pio2f+0x18e>
    6f48:	eeb7 0a00 	vmov.f32	s0, #112	; 0x3f800000  1.0
    6f4c:	ee30 8a48 	vsub.f32	s16, s0, s16
    6f50:	2a00      	cmp	r2, #0
    6f52:	f43f af4e 	beq.w	6df2 <__kernel_rem_pio2f+0x18e>
    6f56:	9109      	str	r1, [sp, #36]	; 0x24
    6f58:	9002      	str	r0, [sp, #8]
    6f5a:	f7ff fbf3 	bl	6744 <scalbnf>
    6f5e:	ee38 8a40 	vsub.f32	s16, s16, s0
    6f62:	9802      	ldr	r0, [sp, #8]
    6f64:	9909      	ldr	r1, [sp, #36]	; 0x24
    6f66:	eeb5 8a40 	vcmp.f32	s16, #0.0
    6f6a:	eef1 fa10 	vmrs	APSR_nzcv, fpscr
    6f6e:	f43f af46 	beq.w	6dfe <__kernel_rem_pio2f+0x19a>
    6f72:	9b07      	ldr	r3, [sp, #28]
    6f74:	9d01      	ldr	r5, [sp, #4]
    6f76:	9301      	str	r3, [sp, #4]
    6f78:	4688      	mov	r8, r1
    6f7a:	9b06      	ldr	r3, [sp, #24]
    6f7c:	9908      	ldr	r1, [sp, #32]
    6f7e:	9002      	str	r0, [sp, #8]
    6f80:	eeb0 0a48 	vmov.f32	s0, s16
    6f84:	1a58      	subs	r0, r3, r1
    6f86:	f7ff fbdd 	bl	6744 <scalbnf>
    6f8a:	ed5f 6a2d 	vldr	s13, [pc, #-180]	; 6ed8 <__kernel_rem_pio2f+0x274>
    6f8e:	eeb4 0ae6 	vcmpe.f32	s0, s13
    6f92:	eef1 fa10 	vmrs	APSR_nzcv, fpscr
    6f96:	e9dd 3201 	ldrd	r3, r2, [sp, #4]
    6f9a:	eef0 7a40 	vmov.f32	s15, s0
    6f9e:	f2c0 814d 	blt.w	723c <__kernel_rem_pio2f+0x5d8>
    6fa2:	ed1f 7a32 	vldr	s14, [pc, #-200]	; 6edc <__kernel_rem_pio2f+0x278>
    6fa6:	ee20 7a07 	vmul.f32	s14, s0, s14
    6faa:	f10b 0401 	add.w	r4, fp, #1
    6fae:	eebd 7ac7 	vcvt.s32.f32	s14, s14
    6fb2:	3208      	adds	r2, #8
    6fb4:	eeb8 7ac7 	vcvt.f32.s32	s14, s14
    6fb8:	eee7 7a66 	vfms.f32	s15, s14, s13
    6fbc:	eebd 7ac7 	vcvt.s32.f32	s14, s14
    6fc0:	eefd 7ae7 	vcvt.s32.f32	s15, s15
    6fc4:	ee17 1a90 	vmov	r1, s15
    6fc8:	f84a 102b 	str.w	r1, [sl, fp, lsl #2]
    6fcc:	ee17 1a10 	vmov	r1, s14
    6fd0:	f84a 1024 	str.w	r1, [sl, r4, lsl #2]
    6fd4:	4610      	mov	r0, r2
    6fd6:	eeb7 0a00 	vmov.f32	s0, #112	; 0x3f800000  1.0
    6fda:	9301      	str	r3, [sp, #4]
    6fdc:	f7ff fbb2 	bl	6744 <scalbnf>
    6fe0:	2c00      	cmp	r4, #0
    6fe2:	9b01      	ldr	r3, [sp, #4]
    6fe4:	eeb0 7a40 	vmov.f32	s14, s0
    6fe8:	f2c0 814c 	blt.w	7284 <__kernel_rem_pio2f+0x620>
    6fec:	1c60      	adds	r0, r4, #1
    6fee:	ae46      	add	r6, sp, #280	; 0x118
    6ff0:	ed5f 6a46 	vldr	s13, [pc, #-280]	; 6edc <__kernel_rem_pio2f+0x278>
    6ff4:	0081      	lsls	r1, r0, #2
    6ff6:	eb0a 0280 	add.w	r2, sl, r0, lsl #2
    6ffa:	eb06 0080 	add.w	r0, r6, r0, lsl #2
    6ffe:	ed72 7a01 	vldmdb	r2!, {s15}
    7002:	eef8 7ae7 	vcvt.f32.s32	s15, s15
    7006:	4552      	cmp	r2, sl
    7008:	ee67 7a87 	vmul.f32	s15, s15, s14
    700c:	ee27 7a26 	vmul.f32	s14, s14, s13
    7010:	ed60 7a01 	vstmdb	r0!, {s15}
    7014:	d1f3      	bne.n	6ffe <__kernel_rem_pio2f+0x39a>
    7016:	1f0a      	subs	r2, r1, #4
    7018:	a846      	add	r0, sp, #280	; 0x118
    701a:	2d00      	cmp	r5, #0
    701c:	eb00 0702 	add.w	r7, r0, r2
    7020:	f04f 0600 	mov.w	r6, #0
    7024:	469c      	mov	ip, r3
    7026:	db20      	blt.n	706a <__kernel_rem_pio2f+0x406>
    7028:	4bab      	ldr	r3, [pc, #684]	; (72d8 <__kernel_rem_pio2f+0x674>)
    702a:	eddf 7aac 	vldr	s15, [pc, #688]	; 72dc <__kernel_rem_pio2f+0x678>
    702e:	4638      	mov	r0, r7
    7030:	2200      	movs	r2, #0
    7032:	e001      	b.n	7038 <__kernel_rem_pio2f+0x3d4>
    7034:	42b2      	cmp	r2, r6
    7036:	dc08      	bgt.n	704a <__kernel_rem_pio2f+0x3e6>
    7038:	ecf3 6a01 	vldmia	r3!, {s13}
    703c:	ecb0 7a01 	vldmia	r0!, {s14}
    7040:	3201      	adds	r2, #1
    7042:	4295      	cmp	r5, r2
    7044:	eee6 7a87 	vfma.f32	s15, s13, s14
    7048:	daf4      	bge.n	7034 <__kernel_rem_pio2f+0x3d0>
    704a:	ab5a      	add	r3, sp, #360	; 0x168
    704c:	eb03 0286 	add.w	r2, r3, r6, lsl #2
    7050:	42a6      	cmp	r6, r4
    7052:	ed42 7a28 	vstr	s15, [r2, #-160]	; 0xffffff60
    7056:	ea4f 0086 	mov.w	r0, r6, lsl #2
    705a:	f106 0201 	add.w	r2, r6, #1
    705e:	f1a7 0704 	sub.w	r7, r7, #4
    7062:	d047      	beq.n	70f4 <__kernel_rem_pio2f+0x490>
    7064:	2d00      	cmp	r5, #0
    7066:	4616      	mov	r6, r2
    7068:	dade      	bge.n	7028 <__kernel_rem_pio2f+0x3c4>
    706a:	eddf 7a9c 	vldr	s15, [pc, #624]	; 72dc <__kernel_rem_pio2f+0x678>
    706e:	e7ec      	b.n	704a <__kernel_rem_pio2f+0x3e6>
    7070:	468c      	mov	ip, r1
    7072:	e73e      	b.n	6ef2 <__kernel_rem_pio2f+0x28e>
    7074:	eef6 7a00 	vmov.f32	s15, #96	; 0x3f000000  0.5
    7078:	eeb4 8ae7 	vcmpe.f32	s16, s15
    707c:	eef1 fa10 	vmrs	APSR_nzcv, fpscr
    7080:	f280 80a2 	bge.w	71c8 <__kernel_rem_pio2f+0x564>
    7084:	2100      	movs	r1, #0
    7086:	e6b4      	b.n	6df2 <__kernel_rem_pio2f+0x18e>
    7088:	3301      	adds	r3, #1
    708a:	f1bb 0f00 	cmp.w	fp, #0
    708e:	ee09 3a90 	vmov	s19, r3
    7092:	bfd8      	it	le
    7094:	2200      	movle	r2, #0
    7096:	f73f af15 	bgt.w	6ec4 <__kernel_rem_pio2f+0x260>
    709a:	2801      	cmp	r0, #1
    709c:	f47f af47 	bne.w	6f2e <__kernel_rem_pio2f+0x2ca>
    70a0:	f10b 35ff 	add.w	r5, fp, #4294967295	; 0xffffffff
    70a4:	f85a 3025 	ldr.w	r3, [sl, r5, lsl #2]
    70a8:	f003 037f 	and.w	r3, r3, #127	; 0x7f
    70ac:	f84a 3025 	str.w	r3, [sl, r5, lsl #2]
    70b0:	e747      	b.n	6f42 <__kernel_rem_pio2f+0x2de>
    70b2:	f10b 0301 	add.w	r3, fp, #1
    70b6:	469c      	mov	ip, r3
    70b8:	4619      	mov	r1, r3
    70ba:	e6c1      	b.n	6e40 <__kernel_rem_pio2f+0x1dc>
    70bc:	9902      	ldr	r1, [sp, #8]
    70be:	4670      	mov	r0, lr
    70c0:	2201      	movs	r2, #1
    70c2:	e72f      	b.n	6f24 <__kernel_rem_pio2f+0x2c0>
    70c4:	f10b 34ff 	add.w	r4, fp, #4294967295	; 0xffffffff
    70c8:	4688      	mov	r8, r1
    70ca:	f85a 1024 	ldr.w	r1, [sl, r4, lsl #2]
    70ce:	9d01      	ldr	r5, [sp, #4]
    70d0:	9b07      	ldr	r3, [sp, #28]
    70d2:	f1a0 0208 	sub.w	r2, r0, #8
    70d6:	2900      	cmp	r1, #0
    70d8:	f47f af7c 	bne.w	6fd4 <__kernel_rem_pio2f+0x370>
    70dc:	f10b 4180 	add.w	r1, fp, #1073741824	; 0x40000000
    70e0:	3901      	subs	r1, #1
    70e2:	eb0a 0181 	add.w	r1, sl, r1, lsl #2
    70e6:	f851 0d04 	ldr.w	r0, [r1, #-4]!
    70ea:	3c01      	subs	r4, #1
    70ec:	3a08      	subs	r2, #8
    70ee:	2800      	cmp	r0, #0
    70f0:	d0f9      	beq.n	70e6 <__kernel_rem_pio2f+0x482>
    70f2:	e76f      	b.n	6fd4 <__kernel_rem_pio2f+0x370>
    70f4:	9a68      	ldr	r2, [sp, #416]	; 0x1a0
    70f6:	2a02      	cmp	r2, #2
    70f8:	4663      	mov	r3, ip
    70fa:	dc1b      	bgt.n	7134 <__kernel_rem_pio2f+0x4d0>
    70fc:	2a00      	cmp	r2, #0
    70fe:	dc7a      	bgt.n	71f6 <__kernel_rem_pio2f+0x592>
    7100:	d10f      	bne.n	7122 <__kernel_rem_pio2f+0x4be>
    7102:	aa32      	add	r2, sp, #200	; 0xc8
    7104:	eddf 7a75 	vldr	s15, [pc, #468]	; 72dc <__kernel_rem_pio2f+0x678>
    7108:	4411      	add	r1, r2
    710a:	ed31 7a01 	vldmdb	r1!, {s14}
    710e:	4291      	cmp	r1, r2
    7110:	ee77 7a87 	vadd.f32	s15, s15, s14
    7114:	d1f9      	bne.n	710a <__kernel_rem_pio2f+0x4a6>
    7116:	4642      	mov	r2, r8
    7118:	b10a      	cbz	r2, 711e <__kernel_rem_pio2f+0x4ba>
    711a:	eef1 7a67 	vneg.f32	s15, s15
    711e:	edc3 7a00 	vstr	s15, [r3]
    7122:	ee19 3a90 	vmov	r3, s19
    7126:	f003 0007 	and.w	r0, r3, #7
    712a:	b05b      	add	sp, #364	; 0x16c
    712c:	ecbd 8b04 	vpop	{d8-d9}
    7130:	e8bd 8ff0 	ldmia.w	sp!, {r4, r5, r6, r7, r8, r9, sl, fp, pc}
    7134:	9a68      	ldr	r2, [sp, #416]	; 0x1a0
    7136:	2a03      	cmp	r2, #3
    7138:	d1f3      	bne.n	7122 <__kernel_rem_pio2f+0x4be>
    713a:	2c00      	cmp	r4, #0
    713c:	f000 80bc 	beq.w	72b8 <__kernel_rem_pio2f+0x654>
    7140:	a932      	add	r1, sp, #200	; 0xc8
    7142:	180d      	adds	r5, r1, r0
    7144:	ed95 7a00 	vldr	s14, [r5]
    7148:	eb01 0084 	add.w	r0, r1, r4, lsl #2
    714c:	00a7      	lsls	r7, r4, #2
    714e:	4606      	mov	r6, r0
    7150:	ed56 7a01 	vldr	s15, [r6, #-4]
    7154:	eef0 6a47 	vmov.f32	s13, s14
    7158:	ee37 7a27 	vadd.f32	s14, s14, s15
    715c:	4632      	mov	r2, r6
    715e:	ee77 7ac7 	vsub.f32	s15, s15, s14
    7162:	3e04      	subs	r6, #4
    7164:	ee77 7aa6 	vadd.f32	s15, s15, s13
    7168:	42b1      	cmp	r1, r6
    716a:	edc2 7a00 	vstr	s15, [r2]
    716e:	ed02 7a01 	vstr	s14, [r2, #-4]
    7172:	d1ed      	bne.n	7150 <__kernel_rem_pio2f+0x4ec>
    7174:	2c01      	cmp	r4, #1
    7176:	f000 809f 	beq.w	72b8 <__kernel_rem_pio2f+0x654>
    717a:	ed95 7a00 	vldr	s14, [r5]
    717e:	ed70 7a01 	vldmdb	r0!, {s15}
    7182:	eef0 6a47 	vmov.f32	s13, s14
    7186:	ee37 7a27 	vadd.f32	s14, s14, s15
    718a:	4282      	cmp	r2, r0
    718c:	ee77 7ac7 	vsub.f32	s15, s15, s14
    7190:	ed80 7a00 	vstr	s14, [r0]
    7194:	ee77 7aa6 	vadd.f32	s15, s15, s13
    7198:	edc0 7a01 	vstr	s15, [r0, #4]
    719c:	d1ef      	bne.n	717e <__kernel_rem_pio2f+0x51a>
    719e:	1d38      	adds	r0, r7, #4
    71a0:	eddf 7a4e 	vldr	s15, [pc, #312]	; 72dc <__kernel_rem_pio2f+0x678>
    71a4:	4401      	add	r1, r0
    71a6:	3204      	adds	r2, #4
    71a8:	ed31 7a01 	vldmdb	r1!, {s14}
    71ac:	428a      	cmp	r2, r1
    71ae:	ee77 7a87 	vadd.f32	s15, s15, s14
    71b2:	d1f9      	bne.n	71a8 <__kernel_rem_pio2f+0x544>
    71b4:	4642      	mov	r2, r8
    71b6:	2a00      	cmp	r2, #0
    71b8:	d148      	bne.n	724c <__kernel_rem_pio2f+0x5e8>
    71ba:	9932      	ldr	r1, [sp, #200]	; 0xc8
    71bc:	9a33      	ldr	r2, [sp, #204]	; 0xcc
    71be:	6019      	str	r1, [r3, #0]
    71c0:	605a      	str	r2, [r3, #4]
    71c2:	edc3 7a02 	vstr	s15, [r3, #8]
    71c6:	e7ac      	b.n	7122 <__kernel_rem_pio2f+0x4be>
    71c8:	ee19 3a90 	vmov	r3, s19
    71cc:	f1bb 0f00 	cmp.w	fp, #0
    71d0:	f103 0301 	add.w	r3, r3, #1
    71d4:	ee09 3a90 	vmov	s19, r3
    71d8:	bfc8      	it	gt
    71da:	2102      	movgt	r1, #2
    71dc:	f73f ae72 	bgt.w	6ec4 <__kernel_rem_pio2f+0x260>
    71e0:	eef7 7a00 	vmov.f32	s15, #112	; 0x3f800000  1.0
    71e4:	ee37 8ac8 	vsub.f32	s16, s15, s16
    71e8:	2102      	movs	r1, #2
    71ea:	e602      	b.n	6df2 <__kernel_rem_pio2f+0x18e>
    71ec:	2208      	movs	r2, #8
    71ee:	9206      	str	r2, [sp, #24]
    71f0:	2200      	movs	r2, #0
    71f2:	9203      	str	r2, [sp, #12]
    71f4:	e552      	b.n	6c9c <__kernel_rem_pio2f+0x38>
    71f6:	aa32      	add	r2, sp, #200	; 0xc8
    71f8:	eddf 7a38 	vldr	s15, [pc, #224]	; 72dc <__kernel_rem_pio2f+0x678>
    71fc:	4411      	add	r1, r2
    71fe:	ed31 7a01 	vldmdb	r1!, {s14}
    7202:	428a      	cmp	r2, r1
    7204:	ee77 7a87 	vadd.f32	s15, s15, s14
    7208:	d1f9      	bne.n	71fe <__kernel_rem_pio2f+0x59a>
    720a:	4642      	mov	r2, r8
    720c:	bb7a      	cbnz	r2, 726e <__kernel_rem_pio2f+0x60a>
    720e:	ed9d 7a32 	vldr	s14, [sp, #200]	; 0xc8
    7212:	edc3 7a00 	vstr	s15, [r3]
    7216:	ee77 7a67 	vsub.f32	s15, s14, s15
    721a:	b164      	cbz	r4, 7236 <__kernel_rem_pio2f+0x5d2>
    721c:	a933      	add	r1, sp, #204	; 0xcc
    721e:	2201      	movs	r2, #1
    7220:	ecb1 7a01 	vldmia	r1!, {s14}
    7224:	3201      	adds	r2, #1
    7226:	4294      	cmp	r4, r2
    7228:	ee77 7a87 	vadd.f32	s15, s15, s14
    722c:	daf8      	bge.n	7220 <__kernel_rem_pio2f+0x5bc>
    722e:	4642      	mov	r2, r8
    7230:	b10a      	cbz	r2, 7236 <__kernel_rem_pio2f+0x5d2>
    7232:	eef1 7a67 	vneg.f32	s15, s15
    7236:	edc3 7a01 	vstr	s15, [r3, #4]
    723a:	e772      	b.n	7122 <__kernel_rem_pio2f+0x4be>
    723c:	eefd 7ac0 	vcvt.s32.f32	s15, s0
    7240:	465c      	mov	r4, fp
    7242:	ee17 1a90 	vmov	r1, s15
    7246:	f84a 102b 	str.w	r1, [sl, fp, lsl #2]
    724a:	e6c3      	b.n	6fd4 <__kernel_rem_pio2f+0x370>
    724c:	eddd 6a32 	vldr	s13, [sp, #200]	; 0xc8
    7250:	ed9d 7a33 	vldr	s14, [sp, #204]	; 0xcc
    7254:	eef1 6a66 	vneg.f32	s13, s13
    7258:	eeb1 7a47 	vneg.f32	s14, s14
    725c:	eef1 7a67 	vneg.f32	s15, s15
    7260:	edc3 6a00 	vstr	s13, [r3]
    7264:	ed83 7a01 	vstr	s14, [r3, #4]
    7268:	edc3 7a02 	vstr	s15, [r3, #8]
    726c:	e759      	b.n	7122 <__kernel_rem_pio2f+0x4be>
    726e:	eddd 6a32 	vldr	s13, [sp, #200]	; 0xc8
    7272:	eeb1 7a67 	vneg.f32	s14, s15
    7276:	ed83 7a00 	vstr	s14, [r3]
    727a:	ee76 7ae7 	vsub.f32	s15, s13, s15
    727e:	2c00      	cmp	r4, #0
    7280:	d1cc      	bne.n	721c <__kernel_rem_pio2f+0x5b8>
    7282:	e7d6      	b.n	7232 <__kernel_rem_pio2f+0x5ce>
    7284:	9a68      	ldr	r2, [sp, #416]	; 0x1a0
    7286:	2a02      	cmp	r2, #2
    7288:	dc12      	bgt.n	72b0 <__kernel_rem_pio2f+0x64c>
    728a:	2a00      	cmp	r2, #0
    728c:	dc17      	bgt.n	72be <__kernel_rem_pio2f+0x65a>
    728e:	f47f af48 	bne.w	7122 <__kernel_rem_pio2f+0x4be>
    7292:	eddf 7a12 	vldr	s15, [pc, #72]	; 72dc <__kernel_rem_pio2f+0x678>
    7296:	e73e      	b.n	7116 <__kernel_rem_pio2f+0x4b2>
    7298:	9804      	ldr	r0, [sp, #16]
    729a:	ea4f 0880 	mov.w	r8, r0, lsl #2
    729e:	e544      	b.n	6d2a <__kernel_rem_pio2f+0xc6>
    72a0:	2902      	cmp	r1, #2
    72a2:	f47f ada6 	bne.w	6df2 <__kernel_rem_pio2f+0x18e>
    72a6:	eef7 7a00 	vmov.f32	s15, #112	; 0x3f800000  1.0
    72aa:	ee37 8ac8 	vsub.f32	s16, s15, s16
    72ae:	e5a0      	b.n	6df2 <__kernel_rem_pio2f+0x18e>
    72b0:	9a68      	ldr	r2, [sp, #416]	; 0x1a0
    72b2:	2a03      	cmp	r2, #3
    72b4:	f47f af35 	bne.w	7122 <__kernel_rem_pio2f+0x4be>
    72b8:	eddf 7a08 	vldr	s15, [pc, #32]	; 72dc <__kernel_rem_pio2f+0x678>
    72bc:	e77a      	b.n	71b4 <__kernel_rem_pio2f+0x550>
    72be:	4642      	mov	r2, r8
    72c0:	b922      	cbnz	r2, 72cc <__kernel_rem_pio2f+0x668>
    72c2:	2200      	movs	r2, #0
    72c4:	eddd 7a32 	vldr	s15, [sp, #200]	; 0xc8
    72c8:	601a      	str	r2, [r3, #0]
    72ca:	e7b4      	b.n	7236 <__kernel_rem_pio2f+0x5d2>
    72cc:	f04f 4200 	mov.w	r2, #2147483648	; 0x80000000
    72d0:	eddd 7a32 	vldr	s15, [sp, #200]	; 0xc8
    72d4:	601a      	str	r2, [r3, #0]
    72d6:	e7ac      	b.n	7232 <__kernel_rem_pio2f+0x5ce>
    72d8:	000032d0 	ldrdeq	r3, [r0], -r0
    72dc:	00000000 	andeq	r0, r0, r0

Disassembly of section .text.floorf:

000072e0 <floorf>:
    72e0:	ee10 2a10 	vmov	r2, s0
    72e4:	f3c2 53c7 	ubfx	r3, r2, #23, #8
    72e8:	3b7f      	subs	r3, #127	; 0x7f
    72ea:	2b16      	cmp	r3, #22
    72ec:	f022 4100 	bic.w	r1, r2, #2147483648	; 0x80000000
    72f0:	dc29      	bgt.n	7346 <floorf+0x66>
    72f2:	2b00      	cmp	r3, #0
    72f4:	4610      	mov	r0, r2
    72f6:	db18      	blt.n	732a <floorf+0x4a>
    72f8:	491a      	ldr	r1, [pc, #104]	; (7364 <floorf+0x84>)
    72fa:	4119      	asrs	r1, r3
    72fc:	420a      	tst	r2, r1
    72fe:	d021      	beq.n	7344 <floorf+0x64>
    7300:	eddf 7a19 	vldr	s15, [pc, #100]	; 7368 <floorf+0x88>
    7304:	ee70 7a27 	vadd.f32	s15, s0, s15
    7308:	eef5 7ac0 	vcmpe.f32	s15, #0.0
    730c:	eef1 fa10 	vmrs	APSR_nzcv, fpscr
    7310:	dd18      	ble.n	7344 <floorf+0x64>
    7312:	2a00      	cmp	r2, #0
    7314:	da04      	bge.n	7320 <floorf+0x40>
    7316:	f44f 0200 	mov.w	r2, #8388608	; 0x800000
    731a:	fa42 f303 	asr.w	r3, r2, r3
    731e:	4418      	add	r0, r3
    7320:	ea20 0301 	bic.w	r3, r0, r1
    7324:	ee00 3a10 	vmov	s0, r3
    7328:	4770      	bx	lr
    732a:	eddf 7a0f 	vldr	s15, [pc, #60]	; 7368 <floorf+0x88>
    732e:	ee70 7a27 	vadd.f32	s15, s0, s15
    7332:	eef5 7ac0 	vcmpe.f32	s15, #0.0
    7336:	eef1 fa10 	vmrs	APSR_nzcv, fpscr
    733a:	dd03      	ble.n	7344 <floorf+0x64>
    733c:	2a00      	cmp	r2, #0
    733e:	db08      	blt.n	7352 <floorf+0x72>
    7340:	ed9f 0a0a 	vldr	s0, [pc, #40]	; 736c <floorf+0x8c>
    7344:	4770      	bx	lr
    7346:	f1b1 4fff 	cmp.w	r1, #2139095040	; 0x7f800000
    734a:	d3fb      	bcc.n	7344 <floorf+0x64>
    734c:	ee30 0a00 	vadd.f32	s0, s0, s0
    7350:	4770      	bx	lr
    7352:	eddf 7a07 	vldr	s15, [pc, #28]	; 7370 <floorf+0x90>
    7356:	2900      	cmp	r1, #0
    7358:	eebf 0a00 	vmov.f32	s0, #240	; 0xbf800000 -1.0
    735c:	bf08      	it	eq
    735e:	eeb0 0a67 	vmoveq.f32	s0, s15
    7362:	4770      	bx	lr
    7364:	007fffff 	ldrshteq	pc, [pc], #-255	; <UNPREDICTABLE>
    7368:	7149f2ca 	smlalbtvc	pc, r9, sl, r2	; <UNPREDICTABLE>
    736c:	00000000 	andeq	r0, r0, r0
    7370:	80000000 	andhi	r0, r0, r0

Disassembly of section .text.memset:

00007374 <memset>:
    7374:	0783      	lsls	r3, r0, #30
    7376:	b530      	push	{r4, r5, lr}
    7378:	d047      	beq.n	740a <memset+0x96>
    737a:	1e54      	subs	r4, r2, #1
    737c:	2a00      	cmp	r2, #0
    737e:	d03e      	beq.n	73fe <memset+0x8a>
    7380:	b2ca      	uxtb	r2, r1
    7382:	4603      	mov	r3, r0
    7384:	e001      	b.n	738a <memset+0x16>
    7386:	3c01      	subs	r4, #1
    7388:	d339      	bcc.n	73fe <memset+0x8a>
    738a:	f803 2b01 	strb.w	r2, [r3], #1
    738e:	079d      	lsls	r5, r3, #30
    7390:	d1f9      	bne.n	7386 <memset+0x12>
    7392:	2c03      	cmp	r4, #3
    7394:	d92c      	bls.n	73f0 <memset+0x7c>
    7396:	b2cd      	uxtb	r5, r1
    7398:	eb05 2505 	add.w	r5, r5, r5, lsl #8
    739c:	2c0f      	cmp	r4, #15
    739e:	eb05 4505 	add.w	r5, r5, r5, lsl #16
    73a2:	d935      	bls.n	7410 <memset+0x9c>
    73a4:	f1a4 0210 	sub.w	r2, r4, #16
    73a8:	f022 0c0f 	bic.w	ip, r2, #15
    73ac:	f103 0e10 	add.w	lr, r3, #16
    73b0:	44e6      	add	lr, ip
    73b2:	ea4f 1c12 	mov.w	ip, r2, lsr #4
    73b6:	461a      	mov	r2, r3
    73b8:	6015      	str	r5, [r2, #0]
    73ba:	6055      	str	r5, [r2, #4]
    73bc:	6095      	str	r5, [r2, #8]
    73be:	60d5      	str	r5, [r2, #12]
    73c0:	3210      	adds	r2, #16
    73c2:	4572      	cmp	r2, lr
    73c4:	d1f8      	bne.n	73b8 <memset+0x44>
    73c6:	f10c 0201 	add.w	r2, ip, #1
    73ca:	f014 0f0c 	tst.w	r4, #12
    73ce:	eb03 1202 	add.w	r2, r3, r2, lsl #4
    73d2:	f004 0c0f 	and.w	ip, r4, #15
    73d6:	d013      	beq.n	7400 <memset+0x8c>
    73d8:	f1ac 0304 	sub.w	r3, ip, #4
    73dc:	f023 0303 	bic.w	r3, r3, #3
    73e0:	3304      	adds	r3, #4
    73e2:	4413      	add	r3, r2
    73e4:	f842 5b04 	str.w	r5, [r2], #4
    73e8:	429a      	cmp	r2, r3
    73ea:	d1fb      	bne.n	73e4 <memset+0x70>
    73ec:	f00c 0403 	and.w	r4, ip, #3
    73f0:	b12c      	cbz	r4, 73fe <memset+0x8a>
    73f2:	b2c9      	uxtb	r1, r1
    73f4:	441c      	add	r4, r3
    73f6:	f803 1b01 	strb.w	r1, [r3], #1
    73fa:	429c      	cmp	r4, r3
    73fc:	d1fb      	bne.n	73f6 <memset+0x82>
    73fe:	bd30      	pop	{r4, r5, pc}
    7400:	4664      	mov	r4, ip
    7402:	4613      	mov	r3, r2
    7404:	2c00      	cmp	r4, #0
    7406:	d1f4      	bne.n	73f2 <memset+0x7e>
    7408:	e7f9      	b.n	73fe <memset+0x8a>
    740a:	4603      	mov	r3, r0
    740c:	4614      	mov	r4, r2
    740e:	e7c0      	b.n	7392 <memset+0x1e>
    7410:	461a      	mov	r2, r3
    7412:	46a4      	mov	ip, r4
    7414:	e7e0      	b.n	73d8 <memset+0x64>
    7416:	bf00      	nop

Disassembly of section .comment:

00000000 <.comment>:
   0:	3a434347 	bcc	10d0d24 <memset+0x10c99b0>
   4:	72412820 	subvc	r2, r1, #32, 16	; 0x200000
   8:	4e47206d 	cdpmi	0, 4, cr2, cr7, cr13, {3}
   c:	6f542055 	svcvs	0x00542055
  10:	68636c6f 	stmdavs	r3!, {r0, r1, r2, r3, r5, r6, sl, fp, sp, lr}^
  14:	206e6961 	rsbcs	r6, lr, r1, ror #18
  18:	322e3231 	eorcc	r3, lr, #268435459	; 0x10000003
  1c:	6c65522e 	sfmvs	f5, 2, [r5], #-184	; 0xffffff48
  20:	42282031 	eormi	r2, r8, #49	; 0x31
  24:	646c6975 	strbtvs	r6, [ip], #-2421	; 0xfffff68b
  28:	6d726120 	ldfvse	f6, [r2, #-128]!	; 0xffffff80
  2c:	2e32312d 	rsfcssp	f3, f2, #5.0
  30:	29293432 	stmdbcs	r9!, {r1, r4, r5, sl, ip, sp}
  34:	2e323120 	rsfcssp	f3, f2, f0
  38:	20312e32 	eorscs	r2, r1, r2, lsr lr
  3c:	32323032 	eorscc	r3, r2, #50	; 0x32
  40:	35303231 	ldrcc	r3, [r0, #-561]!	; 0xfffffdcf
	...

Disassembly of section .ARM.attributes:

00000000 <.ARM.attributes>:
   0:	00003141 	andeq	r3, r0, r1, asr #2
   4:	61656100 	cmnvs	r5, r0, lsl #2
   8:	01006962 	tsteq	r0, r2, ror #18
   c:	00000027 	andeq	r0, r0, r7, lsr #32
  10:	2d453705 	stclcs	7, cr3, [r5, #-20]	; 0xffffffec
  14:	0d06004d 	stceq	0, cr0, [r6, #-308]	; 0xfffffecc
  18:	02094d07 	andeq	r4, r9, #448	; 0x1c0
  1c:	0412060a 	ldreq	r0, [r2], #-1546	; 0xfffff9f6
  20:	01150114 	tsteq	r5, r4, lsl r1
  24:	01180317 	tsteq	r8, r7, lsl r3
  28:	011b011a 	tsteq	fp, sl, lsl r1
  2c:	041e011c 	ldreq	r0, [lr], #-284	; 0xfffffee4
  30:	Address 0x0000000000000030 is out of bounds.


Disassembly of section .debug_frame:

00000000 <.debug_frame>:
   0:	0000000c 	andeq	r0, r0, ip
   4:	ffffffff 			; <UNDEFINED> instruction: 0xffffffff
   8:	7c020001 	stcvc	0, cr0, [r2], {1}
   c:	000d0c0e 	andeq	r0, sp, lr, lsl #24
  10:	0000000c 	andeq	r0, r0, ip
  14:	00000000 	andeq	r0, r0, r0
  18:	0000653c 	andeq	r6, r0, ip, lsr r5
  1c:	0000004c 	andeq	r0, r0, ip, asr #32
  20:	0000000c 	andeq	r0, r0, ip
  24:	ffffffff 			; <UNDEFINED> instruction: 0xffffffff
  28:	7c020001 	stcvc	0, cr0, [r2], {1}
  2c:	000d0c0e 	andeq	r0, sp, lr, lsl #24
  30:	00000020 	andeq	r0, r0, r0, lsr #32
  34:	00000020 	andeq	r0, r0, r0, lsr #32
  38:	00006588 	andeq	r6, r0, r8, lsl #11
  3c:	00000070 	andeq	r0, r0, r0, ror r0
  40:	8e040e4e 	cdphi	14, 0, cr0, cr4, cr14, {2}
  44:	100e4101 	andne	r4, lr, r1, lsl #2
  48:	42040e52 	andmi	r0, r4, #1312	; 0x520
  4c:	44ce000e 	strbmi	r0, [lr], #14
  50:	018e100e 	orreq	r1, lr, lr
  54:	0000000c 	andeq	r0, r0, ip
  58:	ffffffff 			; <UNDEFINED> instruction: 0xffffffff
  5c:	7c020001 	stcvc	0, cr0, [r2], {1}
  60:	000d0c0e 	andeq	r0, sp, lr, lsl #24
  64:	0000001c 	andeq	r0, r0, ip, lsl r0
  68:	00000054 	andeq	r0, r0, r4, asr r0
  6c:	000065f8 	strdeq	r6, [r0], -r8
  70:	00000060 	andeq	r0, r0, r0, rrx
  74:	84040e43 	strhi	r0, [r4], #-3651	; 0xfffff1bd
  78:	c40a5701 	strgt	r5, [sl], #-1793	; 0xfffff8ff
  7c:	0b42000e 	bleq	10800bc <memset+0x1078d48>
  80:	000ec44e 	andeq	ip, lr, lr, asr #8
  84:	0000000c 	andeq	r0, r0, ip
  88:	ffffffff 			; <UNDEFINED> instruction: 0xffffffff
  8c:	7c020001 	stcvc	0, cr0, [r2], {1}
  90:	000d0c0e 	andeq	r0, sp, lr, lsl #24
  94:	00000020 	andeq	r0, r0, r0, lsr #32
  98:	00000084 	andeq	r0, r0, r4, lsl #1
  9c:	00006658 	andeq	r6, r0, r8, asr r6
  a0:	00000074 	andeq	r0, r0, r4, ror r0
  a4:	8e040e4e 	cdphi	14, 0, cr0, cr4, cr14, {2}
  a8:	100e4101 	andne	r4, lr, r1, lsl #2
  ac:	42040e53 	andmi	r0, r4, #1328	; 0x530
  b0:	45ce000e 	strbmi	r0, [lr, #14]
  b4:	018e100e 	orreq	r1, lr, lr
  b8:	0000000c 	andeq	r0, r0, ip
  bc:	ffffffff 			; <UNDEFINED> instruction: 0xffffffff
  c0:	7c020001 	stcvc	0, cr0, [r2], {1}
  c4:	000d0c0e 	andeq	r0, sp, lr, lsl #24
  c8:	00000030 	andeq	r0, r0, r0, lsr r0
  cc:	000000b8 	strheq	r0, [r0], -r8
  d0:	000066cc 	andeq	r6, r0, ip, asr #13
  d4:	0000003c 	andeq	r0, r0, ip, lsr r0
  d8:	83080e41 	movwhi	r0, #36417	; 0x8e41
  dc:	42018e02 	andmi	r8, r1, #2, 28
  e0:	5005100e 	andpl	r1, r5, lr
  e4:	03510504 	cmpeq	r1, #4, 10	; 0x1000000
  e8:	50060a4b 	andpl	r0, r6, fp, asr #20
  ec:	080e5106 	stmdaeq	lr, {r1, r2, r8, ip, lr}
  f0:	064e0b41 	strbeq	r0, [lr], -r1, asr #22
  f4:	0e510650 	mrceq	6, 2, r0, cr1, cr0, {2}
  f8:	00000008 	andeq	r0, r0, r8
  fc:	0000000c 	andeq	r0, r0, ip
 100:	ffffffff 			; <UNDEFINED> instruction: 0xffffffff
 104:	7c020001 	stcvc	0, cr0, [r2], {1}
 108:	000d0c0e 	andeq	r0, sp, lr, lsl #24
 10c:	00000030 	andeq	r0, r0, r0, lsr r0
 110:	000000fc 	strdeq	r0, [r0], -ip
 114:	00006708 	andeq	r6, r0, r8, lsl #14
 118:	0000003c 	andeq	r0, r0, ip, lsr r0
 11c:	83080e41 	movwhi	r0, #36417	; 0x8e41
 120:	42018e02 	andmi	r8, r1, #2, 28
 124:	5005100e 	andpl	r1, r5, lr
 128:	03510504 	cmpeq	r1, #4, 10	; 0x1000000
 12c:	50060a4b 	andpl	r0, r6, fp, asr #20
 130:	080e5106 	stmdaeq	lr, {r1, r2, r8, ip, lr}
 134:	064e0b41 	strbeq	r0, [lr], -r1, asr #22
 138:	0e510650 	mrceq	6, 2, r0, cr1, cr0, {2}
 13c:	00000008 	andeq	r0, r0, r8
 140:	0000000c 	andeq	r0, r0, ip
 144:	ffffffff 			; <UNDEFINED> instruction: 0xffffffff
 148:	7c020001 	stcvc	0, cr0, [r2], {1}
 14c:	000d0c0e 	andeq	r0, sp, lr, lsl #24
 150:	0000000c 	andeq	r0, r0, ip
 154:	00000140 	andeq	r0, r0, r0, asr #2
 158:	00006744 	andeq	r6, r0, r4, asr #14
 15c:	000000e4 	andeq	r0, r0, r4, ror #1
 160:	0000000c 	andeq	r0, r0, ip
 164:	ffffffff 			; <UNDEFINED> instruction: 0xffffffff
 168:	7c020001 	stcvc	0, cr0, [r2], {1}
 16c:	000d0c0e 	andeq	r0, sp, lr, lsl #24
 170:	0000000c 	andeq	r0, r0, ip
 174:	00000160 	andeq	r0, r0, r0, ror #2
 178:	00006828 	andeq	r6, r0, r8, lsr #16
 17c:	00000038 	andeq	r0, r0, r8, lsr r0
 180:	0000000c 	andeq	r0, r0, ip
 184:	ffffffff 			; <UNDEFINED> instruction: 0xffffffff
 188:	7c020001 	stcvc	0, cr0, [r2], {1}
 18c:	000d0c0e 	andeq	r0, sp, lr, lsl #24
 190:	0000000c 	andeq	r0, r0, ip
 194:	00000180 	andeq	r0, r0, r0, lsl #3
 198:	00006860 	andeq	r6, r0, r0, ror #16
 19c:	00000104 	andeq	r0, r0, r4, lsl #2
 1a0:	0000000c 	andeq	r0, r0, ip
 1a4:	ffffffff 			; <UNDEFINED> instruction: 0xffffffff
 1a8:	7c020001 	stcvc	0, cr0, [r2], {1}
 1ac:	000d0c0e 	andeq	r0, sp, lr, lsl #24
 1b0:	00000020 	andeq	r0, r0, r0, lsr #32
 1b4:	000001a0 	andeq	r0, r0, r0, lsr #3
 1b8:	00006964 	andeq	r6, r0, r4, ror #18
 1bc:	00000260 	andeq	r0, r0, r0, ror #4
 1c0:	84100e41 	ldrhi	r0, [r0], #-3649	; 0xfffff1bf
 1c4:	86038504 	strhi	r8, [r3], -r4, lsl #10
 1c8:	47018e02 	strmi	r8, [r1, -r2, lsl #28]
 1cc:	0a6a280e 	beq	1a8a20c <memset+0x1a82e98>
 1d0:	0b41100e 	bleq	1044210 <memset+0x103ce9c>
 1d4:	0000000c 	andeq	r0, r0, ip
 1d8:	ffffffff 			; <UNDEFINED> instruction: 0xffffffff
 1dc:	7c020001 	stcvc	0, cr0, [r2], {1}
 1e0:	000d0c0e 	andeq	r0, sp, lr, lsl #24
 1e4:	0000000c 	andeq	r0, r0, ip
 1e8:	000001d4 	ldrdeq	r0, [r0], -r4
 1ec:	00006bc4 	andeq	r6, r0, r4, asr #23
 1f0:	00000090 	muleq	r0, r0, r0
 1f4:	0000000c 	andeq	r0, r0, ip
 1f8:	ffffffff 			; <UNDEFINED> instruction: 0xffffffff
 1fc:	7c020001 	stcvc	0, cr0, [r2], {1}
 200:	000d0c0e 	andeq	r0, sp, lr, lsl #24
 204:	0000000c 	andeq	r0, r0, ip
 208:	000001f4 	strdeq	r0, [r0], -r4
 20c:	00006c54 	andeq	r6, r0, r4, asr ip
 210:	0000000e 	andeq	r0, r0, lr
 214:	0000000c 	andeq	r0, r0, ip
 218:	ffffffff 			; <UNDEFINED> instruction: 0xffffffff
 21c:	7c020001 	stcvc	0, cr0, [r2], {1}
 220:	000d0c0e 	andeq	r0, sp, lr, lsl #24
 224:	00000048 	andeq	r0, r0, r8, asr #32
 228:	00000214 	andeq	r0, r0, r4, lsl r2
 22c:	00006c64 	andeq	r6, r0, r4, ror #24
 230:	0000067c 	andeq	r0, r0, ip, ror r6
 234:	84240e42 	strthi	r0, [r4], #-3650	; 0xfffff1be
 238:	86088509 	strhi	r8, [r8], -r9, lsl #10
 23c:	88068707 	stmdahi	r6, {r0, r1, r2, r8, r9, sl, pc}
 240:	8a048905 	bhi	12265c <memset+0x11b2e8>
 244:	8e028b03 	vmlahi.f64	d8, d2, d3
 248:	340e4201 	strcc	r4, [lr], #-513	; 0xfffffdff
 24c:	050d5005 	streq	r5, [sp, #-5]
 250:	52050c51 	andpl	r0, r5, #20736	; 0x5100
 254:	0a53050b 	beq	14c1688 <memset+0x14ba314>
 258:	03a00e41 	moveq	r0, #1040	; 0x410
 25c:	0a025f03 	beq	97e70 <memset+0x90afc>
 260:	0642340e 	strbeq	r3, [r2], -lr, lsl #8
 264:	06530652 			; <UNDEFINED> instruction: 0x06530652
 268:	0e510650 	mrceq	6, 2, r0, cr1, cr0, {2}
 26c:	000b4224 	andeq	r4, fp, r4, lsr #4
 270:	0000000c 	andeq	r0, r0, ip
 274:	ffffffff 			; <UNDEFINED> instruction: 0xffffffff
 278:	7c020001 	stcvc	0, cr0, [r2], {1}
 27c:	000d0c0e 	andeq	r0, sp, lr, lsl #24
 280:	0000000c 	andeq	r0, r0, ip
 284:	00000270 	andeq	r0, r0, r0, ror r2
 288:	000072e0 	andeq	r7, r0, r0, ror #5
 28c:	00000094 	muleq	r0, r4, r0
 290:	0000000c 	andeq	r0, r0, ip
 294:	ffffffff 			; <UNDEFINED> instruction: 0xffffffff
 298:	7c020001 	stcvc	0, cr0, [r2], {1}
 29c:	000d0c0e 	andeq	r0, sp, lr, lsl #24
 2a0:	0000001c 	andeq	r0, r0, ip, lsl r0
 2a4:	00000290 	muleq	r0, r0, r2
 2a8:	000026c0 	andeq	r2, r0, r0, asr #13
 2ac:	00000282 	andeq	r0, r0, r2, lsl #5
 2b0:	0c0e470a 	stceq	7, cr4, [lr], {10}
 2b4:	02850384 	addeq	r0, r5, #132, 6	; 0x10000002
 2b8:	3a03018e 	bcc	c08f8 <memset+0xb9584>
 2bc:	00000b01 	andeq	r0, r0, r1, lsl #22
 2c0:	00000018 	andeq	r0, r0, r8, lsl r0
 2c4:	00000290 	muleq	r0, r0, r2
 2c8:	00002944 	andeq	r2, r0, r4, asr #18
 2cc:	0000001e 	andeq	r0, r0, lr, lsl r0
 2d0:	0c0e460a 	stceq	6, cr4, [lr], {10}
 2d4:	02850384 	addeq	r0, r5, #132, 6	; 0x10000002
 2d8:	0b49018e 	bleq	1240918 <memset+0x12395a4>
 2dc:	00000018 	andeq	r0, r0, r8, lsl r0
 2e0:	00000290 	muleq	r0, r0, r2
 2e4:	00002964 	andeq	r2, r0, r4, ror #18
 2e8:	00000022 	andeq	r0, r0, r2, lsr #32
 2ec:	0c0e460a 	stceq	6, cr4, [lr], {10}
 2f0:	02850384 	addeq	r0, r5, #132, 6	; 0x10000002
 2f4:	0b4b018e 	bleq	12c0934 <memset+0x12b95c0>
 2f8:	00000018 	andeq	r0, r0, r8, lsl r0
 2fc:	00000290 	muleq	r0, r0, r2
 300:	00002988 	andeq	r2, r0, r8, lsl #19
 304:	00000042 	andeq	r0, r0, r2, asr #32
 308:	0c0e5a0a 			; <UNDEFINED> instruction: 0x0c0e5a0a
 30c:	02850384 	addeq	r0, r5, #132, 6	; 0x10000002
 310:	0b47018e 	bleq	11c0950 <memset+0x11b95dc>
 314:	00000024 	andeq	r0, r0, r4, lsr #32
 318:	00000290 	muleq	r0, r0, r2
 31c:	000029cc 	andeq	r2, r0, ip, asr #19
 320:	0000006a 	andeq	r0, r0, sl, rrx
 324:	0e450a0a 	vmlaeq.f32	s1, s10, s20
 328:	8503840c 	strhi	r8, [r3, #-1036]	; 0xfffffbf4
 32c:	43018e02 	movwmi	r8, #7682	; 0x1e02
 330:	0c0e450b 	cfstr32eq	mvfx4, [lr], {11}
 334:	02850384 	addeq	r0, r5, #132, 6	; 0x10000002
 338:	0b68018e 	bleq	1a00978 <memset+0x19f9604>
 33c:	0000000c 	andeq	r0, r0, ip
 340:	ffffffff 			; <UNDEFINED> instruction: 0xffffffff
 344:	7c020001 	stcvc	0, cr0, [r2], {1}
 348:	000d0c0e 	andeq	r0, sp, lr, lsl #24
 34c:	00000010 	andeq	r0, r0, r0, lsl r0
 350:	0000033c 	andeq	r0, r0, ip, lsr r3
 354:	00002a40 	andeq	r2, r0, r0, asr #20
 358:	0000016c 	andeq	r0, r0, ip, ror #2
 35c:	0bb6020a 	bleq	fed80b8c <memset+0xfed79818>
 360:	00000010 	andeq	r0, r0, r0, lsl r0
 364:	0000033c 	andeq	r0, r0, ip, lsr r3
 368:	00002bac 	andeq	r2, r0, ip, lsr #23
 36c:	00000024 	andeq	r0, r0, r4, lsr #32
 370:	000b520a 	andeq	r5, fp, sl, lsl #4
 374:	00000010 	andeq	r0, r0, r0, lsl r0
 378:	0000033c 	andeq	r0, r0, ip, lsr r3
 37c:	00002bd0 	ldrdeq	r2, [r0], -r0
 380:	0000008c 	andeq	r0, r0, ip, lsl #1
 384:	0b46020a 	bleq	1180bb4 <memset+0x1179840>
 388:	0000000c 	andeq	r0, r0, ip
 38c:	ffffffff 			; <UNDEFINED> instruction: 0xffffffff
 390:	7c020001 	stcvc	0, cr0, [r2], {1}
 394:	000d0c0e 	andeq	r0, sp, lr, lsl #24
 398:	00000018 	andeq	r0, r0, r8, lsl r0
 39c:	00000388 	andeq	r0, r0, r8, lsl #7
 3a0:	00007374 	andeq	r7, r0, r4, ror r3
 3a4:	000000a2 	andeq	r0, r0, r2, lsr #1
 3a8:	840c0e42 	strhi	r0, [ip], #-3650	; 0xfffff1be
 3ac:	8e028503 	cfsh32hi	mvfx8, mvfx2, #3
 3b0:	00000001 	andeq	r0, r0, r1

Disassembly of section .debug_line_str:

00000000 <.debug_line_str>:
   0:	7461642f 	strbtvc	r6, [r1], #-1071	; 0xfffffbd1
   4:	656a2f61 	strbvs	r2, [sl, #-3937]!	; 0xfffff09f
   8:	6e696b6e 	vnmulvs.f64	d22, d9, d30
   c:	6f772f73 	svcvs	0x00772f73
  10:	70736b72 	rsbsvc	r6, r3, r2, ror fp
  14:	2f656361 	svccs	0x00656361
  18:	2d554e47 	ldclcs	14, cr4, [r5, #-284]	; 0xfffffee4
  1c:	6c6f6f74 	stclvs	15, cr6, [pc], #-464	; fffffe54 <memset+0xffff8ae0>
  20:	69616863 	stmdbvs	r1!, {r0, r1, r5, r6, fp, sp, lr}^
  24:	72612f6e 	rsbvc	r2, r1, #440	; 0x1b8
  28:	32312d6d 	eorscc	r2, r1, #6976	; 0x1b40
  2c:	6975622f 	ldmdbvs	r5!, {r0, r1, r2, r3, r5, r9, sp, lr}^
  30:	612d646c 			; <UNDEFINED> instruction: 0x612d646c
  34:	6e2d6d72 	mcrvs	13, 1, r6, cr13, cr2, {3}
  38:	2d656e6f 	stclcs	14, cr6, [r5, #-444]!	; 0xfffffe44
  3c:	69626165 	stmdbvs	r2!, {r0, r2, r5, r6, r8, sp, lr}^
  40:	6a626f2f 	bvs	189bd04 <memset+0x1894990>
  44:	6363672f 	cmnvs	r3, #12320768	; 0xbc0000
  48:	72612f32 	rsbvc	r2, r1, #50, 30	; 0xc8
  4c:	6f6e2d6d 	svcvs	0x006e2d6d
  50:	652d656e 	strvs	r6, [sp, #-1390]!	; 0xfffffa92
  54:	2f696261 	svccs	0x00696261
  58:	6d756874 	ldclvs	8, cr6, [r5, #-464]!	; 0xfffffe30
  5c:	37762f62 	ldrbcc	r2, [r6, -r2, ror #30]!
  60:	2b6d2d65 	blcs	1b4b5fc <memset+0x1b44288>
  64:	682f7066 	stmdavs	pc!, {r1, r2, r5, r6, ip, sp, lr}	; <UNPREDICTABLE>
  68:	2f647261 	svccs	0x00647261
  6c:	6762696c 	strbvs	r6, [r2, -ip, ror #18]!
  70:	2f006363 	svccs	0x00006363
  74:	61746164 	cmnvs	r4, r4, ror #2
  78:	6e656a2f 	vmulvs.f32	s13, s10, s31
  7c:	736e696b 	cmnvc	lr, #1753088	; 0x1ac000
  80:	726f772f 	rsbvc	r7, pc, #12320768	; 0xbc0000
  84:	6170736b 	cmnvs	r0, fp, ror #6
  88:	472f6563 	strmi	r6, [pc, -r3, ror #10]!
  8c:	742d554e 	strtvc	r5, [sp], #-1358	; 0xfffffab2
  90:	636c6f6f 	cmnvs	ip, #444	; 0x1bc
  94:	6e696168 	powvsez	f6, f1, #0.0
  98:	6d72612f 	ldfvse	f6, [r2, #-188]!	; 0xffffff44
  9c:	2f32312d 	svccs	0x0032312d
  a0:	2f637273 	svccs	0x00637273
  a4:	2f636367 	svccs	0x00636367
  a8:	6762696c 	strbvs	r6, [r2, -ip, ror #18]!
  ac:	632f6363 			; <UNDEFINED> instruction: 0x632f6363
  b0:	69666e6f 	stmdbvs	r6!, {r0, r1, r2, r3, r5, r6, r9, sl, fp, sp, lr}^
  b4:	72612f67 	rsbvc	r2, r1, #412	; 0x19c
  b8:	6569006d 	strbvs	r0, [r9, #-109]!	; 0xffffff93
  bc:	35376565 	ldrcc	r6, [r7, #-1381]!	; 0xfffffa9b
  c0:	66642d34 			; <UNDEFINED> instruction: 0x66642d34
  c4:	6900532e 	stmdbvs	r0, {r1, r2, r3, r5, r8, r9, ip, lr}
  c8:	37656565 	strbcc	r6, [r5, -r5, ror #10]!
  cc:	732d3435 			; <UNDEFINED> instruction: 0x732d3435
  d0:	00532e66 	subseq	r2, r3, r6, ror #28
  d4:	7461642f 	strbtvc	r6, [r1], #-1071	; 0xfffffbd1
  d8:	656a2f61 	strbvs	r2, [sl, #-3937]!	; 0xfffff09f
  dc:	6e696b6e 	vnmulvs.f64	d22, d9, d30
  e0:	6f772f73 	svcvs	0x00772f73
  e4:	70736b72 	rsbsvc	r6, r3, r2, ror fp
  e8:	2f656361 	svccs	0x00656361
  ec:	2d554e47 	ldclcs	14, cr4, [r5, #-284]	; 0xfffffee4
  f0:	6c6f6f74 	stclvs	15, cr6, [pc], #-464	; ffffff28 <memset+0xffff8bb4>
  f4:	69616863 	stmdbvs	r1!, {r0, r1, r5, r6, fp, sp, lr}^
  f8:	72612f6e 	rsbvc	r2, r1, #440	; 0x1b8
  fc:	32312d6d 	eorscc	r2, r1, #6976	; 0x1b40
 100:	6975622f 	ldmdbvs	r5!, {r0, r1, r2, r3, r5, r9, sp, lr}^
 104:	612d646c 			; <UNDEFINED> instruction: 0x612d646c
 108:	6e2d6d72 	mcrvs	13, 1, r6, cr13, cr2, {3}
 10c:	2d656e6f 	stclcs	14, cr6, [r5, #-444]!	; 0xfffffe44
 110:	69626165 	stmdbvs	r2!, {r0, r2, r5, r6, r8, sp, lr}^
 114:	6a626f2f 	bvs	189bdd8 <memset+0x1894a64>
 118:	77656e2f 	strbvc	r6, [r5, -pc, lsr #28]!
 11c:	2f62696c 	svccs	0x0062696c
 120:	2d6d7261 	sfmcs	f7, 2, [sp, #-388]!	; 0xfffffe7c
 124:	656e6f6e 	strbvs	r6, [lr, #-3950]!	; 0xfffff092
 128:	6261652d 	rsbvs	r6, r1, #188743680	; 0xb400000
 12c:	68742f69 	ldmdavs	r4!, {r0, r3, r5, r6, r8, r9, sl, fp, sp}^
 130:	2f626d75 	svccs	0x00626d75
 134:	2d653776 	stclcs	7, cr3, [r5, #-472]!	; 0xfffffe28
 138:	70662b6d 	rsbvc	r2, r6, sp, ror #22
 13c:	7261682f 	rsbvc	r6, r1, #3080192	; 0x2f0000
 140:	656e2f64 	strbvs	r2, [lr, #-3940]!	; 0xfffff09c
 144:	62696c77 	rsbvs	r6, r9, #30464	; 0x7700
 148:	61642f00 	cmnvs	r4, r0, lsl #30
 14c:	6a2f6174 	bvs	bd8724 <memset+0xbd13b0>
 150:	696b6e65 	stmdbvs	fp!, {r0, r2, r5, r6, r9, sl, fp, sp, lr}^
 154:	772f736e 	strvc	r7, [pc, -lr, ror #6]!
 158:	736b726f 	cmnvc	fp, #-268435450	; 0xf0000006
 15c:	65636170 	strbvs	r6, [r3, #-368]!	; 0xfffffe90
 160:	554e472f 	strbpl	r4, [lr, #-1839]	; 0xfffff8d1
 164:	6f6f742d 	svcvs	0x006f742d
 168:	6168636c 	cmnvs	r8, ip, ror #6
 16c:	612f6e69 			; <UNDEFINED> instruction: 0x612f6e69
 170:	312d6d72 			; <UNDEFINED> instruction: 0x312d6d72
 174:	72732f32 	rsbsvc	r2, r3, #50, 30	; 0xc8
 178:	656e2f63 	strbvs	r2, [lr, #-3939]!	; 0xfffff09d
 17c:	62696c77 	rsbvs	r6, r9, #30464	; 0x7700
 180:	6779632d 	ldrbvs	r6, [r9, -sp, lsr #6]!
 184:	2f6e6977 	svccs	0x006e6977
 188:	6c77656e 	cfldr64vs	mvdx6, [r7], #-440	; 0xfffffe48
 18c:	6c2f6269 	sfmvs	f6, 4, [pc], #-420	; fffffff0 <memset+0xffff8c7c>
 190:	2f636269 	svccs	0x00636269
 194:	6863616d 	stmdavs	r3!, {r0, r2, r3, r5, r6, r8, sp, lr}^
 198:	2f656e69 	svccs	0x00656e69
 19c:	006d7261 	rsbeq	r7, sp, r1, ror #4
 1a0:	636d656d 	cmnvs	sp, #457179136	; 0x1b400000
 1a4:	612d7970 			; <UNDEFINED> instruction: 0x612d7970
 1a8:	37766d72 			; <UNDEFINED> instruction: 0x37766d72
 1ac:	00532e6d 	subseq	r2, r3, sp, ror #28
